<abi-corpus version='2.2'>
  <elf-needed>
    <dependency name='build/cached/third_party/s2/libs2.so'/>
    <dependency name='build/cached/third_party/s2/util/math/libmath.so'/>
    <dependency name='build/cached/third_party/s2/util/coding/libcoding.so'/>
    <dependency name='build/cached/third_party/s2/strings/libstrings.so'/>
    <dependency name='build/cached/third_party/s2/base/libbase.so'/>
    <dependency name='build/cached/mongo/db/libservice_context.so'/>
    <dependency name='build/cached/mongo/util/libperiodic_runner.so'/>
    <dependency name='build/cached/mongo/util/libfail_point.so'/>
    <dependency name='build/cached/mongo/util/libclock_sources.so'/>
    <dependency name='build/cached/mongo/util/concurrency/libspin_lock.so'/>
    <dependency name='build/cached/mongo/transport/libtransport_layer_common.so'/>
    <dependency name='build/cached/mongo/util/net/libnetwork.so'/>
    <dependency name='build/cached/mongo/util/concurrency/libticketholder.so'/>
    <dependency name='build/cached/mongo/db/auth/libauth_rolename.so'/>
    <dependency name='build/cached/mongo/transport/libmessage_compressor.so'/>
    <dependency name='build/cached/third_party/libshim_zlib.so'/>
    <dependency name='build/cached/third_party/zlib-1.2.8/libzlib.so'/>
    <dependency name='build/cached/third_party/libshim_snappy.so'/>
    <dependency name='build/cached/third_party/snappy-1.1.3/libsnappy.so'/>
    <dependency name='build/cached/mongo/util/options_parser/liboptions_parser.so'/>
    <dependency name='build/cached/third_party/libshim_yaml.so'/>
    <dependency name='build/cached/third_party/yaml-cpp-0.5.3/libyaml.so'/>
    <dependency name='build/cached/mongo/db/liblogical_session_id.so'/>
    <dependency name='build/cached/mongo/util/libuuid.so'/>
    <dependency name='build/cached/mongo/util/libdecorable.so'/>
    <dependency name='build/cached/mongo/idl/libidl_parser.so'/>
    <dependency name='build/cached/mongo/db/libserver_parameters.so'/>
    <dependency name='build/cached/mongo/crypto/libsha_block_openssl.so'/>
    <dependency name='build/cached/mongo/crypto/libsha1_block.so'/>
    <dependency name='build/cached/mongo/crypto/libsha256_block.so'/>
    <dependency name='build/cached/mongo/util/libsecure_compare_memory.so'/>
    <dependency name='build/cached/mongo/db/libserver_options_core.so'/>
    <dependency name='build/cached/mongo/bson/util/libbson_extract.so'/>
    <dependency name='build/cached/mongo/libbase.so'/>
    <dependency name='build/cached/third_party/murmurhash3/libmurmurhash3.so'/>
    <dependency name='build/cached/third_party/libshim_tz.so'/>
    <dependency name='build/cached/third_party/libshim_pcrecpp.so'/>
    <dependency name='build/cached/third_party/pcre-8.41/libpcrecpp.so'/>
    <dependency name='build/cached/third_party/libshim_intel_decimal128.so'/>
    <dependency name='build/cached/third_party/IntelRDFPMathLib20U1/libintel_decimal128.so'/>
    <dependency name='build/cached/third_party/libshim_boost.so'/>
    <dependency name='build/cached/third_party/boost-1.60.0/libboost_program_options.so'/>
    <dependency name='build/cached/third_party/boost-1.60.0/libboost_iostreams.so'/>
    <dependency name='build/cached/third_party/boost-1.60.0/libboost_filesystem.so'/>
    <dependency name='build/cached/third_party/boost-1.60.0/libboost_system.so'/>
    <dependency name='build/cached/mongo/util/libquick_exit.so'/>
    <dependency name='build/cached/third_party/libshim_allocator.so'/>
    <dependency name='build/cached/third_party/gperftools-2.5/libtcmalloc_minimal.so'/>
    <dependency name='build/cached/mongo/util/libdebugger.so'/>
    <dependency name='libm.so.6'/>
    <dependency name='libssl.so.1.0.0'/>
    <dependency name='libcrypto.so.1.0.0'/>
    <dependency name='librt.so.1'/>
    <dependency name='libdl.so.2'/>
    <dependency name='libatomic.so.1'/>
    <dependency name='libstdc++.so.6'/>
    <dependency name='libgcc_s.so.1'/>
    <dependency name='libpthread.so.0'/>
    <dependency name='libc.so.6'/>
  </elf-needed>
  <elf-function-symbols>
    <elf-symbol name='_ZN5boost10filesystem15directory_entryC2ERKS1_' type='func-type' binding='weak-binding' visibility='default-visibility' is-defined='yes'/>
    <elf-symbol name='_ZN5boost10filesystem15directory_entryD2Ev' type='func-type' binding='weak-binding' visibility='default-visibility' is-defined='yes'/>
    <elf-symbol name='_ZN5boost10filesystem18directory_iteratorC2ERKNS0_4pathE' type='func-type' binding='weak-binding' visibility='default-visibility' is-defined='yes'/>
    <elf-symbol name='_ZN5boost10filesystem4pathD2Ev' type='func-type' binding='weak-binding' visibility='default-visibility' is-defined='yes'/>
    <elf-symbol name='_ZN5boost10filesystemdvERKNS0_4pathES3_' type='func-type' binding='weak-binding' visibility='default-visibility' is-defined='yes'/>
    <elf-symbol name='_ZN5boost6detail12shared_countC2INS_10filesystem6detail11dir_itr_impEEEPT_' type='func-type' binding='weak-binding' visibility='default-visibility' is-defined='yes'/>
    <elf-symbol name='_ZN5boost6detail15sp_counted_base7destroyEv' type='func-type' binding='weak-binding' visibility='default-visibility' is-defined='yes'/>
    <elf-symbol name='_ZN5boost6detail15sp_counted_baseD2Ev' type='func-type' binding='weak-binding' visibility='default-visibility' is-defined='yes'/>
    <elf-symbol name='_ZN5boost6detail17sp_counted_impl_pINS_10filesystem6detail11dir_itr_impEE11get_deleterERKSt9type_info' type='func-type' binding='weak-binding' visibility='default-visibility' is-defined='yes'/>
    <elf-symbol name='_ZN5boost6detail17sp_counted_impl_pINS_10filesystem6detail11dir_itr_impEE19get_untyped_deleterEv' type='func-type' binding='weak-binding' visibility='default-visibility' is-defined='yes'/>
    <elf-symbol name='_ZN5boost6detail17sp_counted_impl_pINS_10filesystem6detail11dir_itr_impEE7disposeEv' type='func-type' binding='weak-binding' visibility='default-visibility' is-defined='yes'/>
    <elf-symbol name='_ZN5boost6detail17sp_counted_impl_pINS_10filesystem6detail11dir_itr_impEED0Ev' type='func-type' binding='weak-binding' visibility='default-visibility' is-defined='yes'/>
    <elf-symbol name='_ZN5boost6detail26sp_enable_shared_from_thisEz' type='func-type' binding='weak-binding' visibility='default-visibility' is-defined='yes'/>
    <elf-symbol name='_ZN5mongo10StringDataC2EPKc' type='func-type' binding='weak-binding' visibility='default-visibility' is-defined='yes'/>
    <elf-symbol name='_ZN5mongo11DataBuilder15writeAndAdvanceINS_10FTDCVarIntEEENS_6StatusERKT_' type='func-type' binding='weak-binding' visibility='default-visibility' is-defined='yes'/>
    <elf-symbol name='_ZN5mongo11DataBuilder6resizeEm' type='func-type' binding='weak-binding' visibility='default-visibility' is-defined='yes'/>
    <elf-symbol name='_ZN5mongo11_BufBuilderINS_21SharedBufferAllocatorEE15grow_reallocateEi' type='func-type' binding='weak-binding' visibility='default-visibility' is-defined='yes'/>
    <elf-symbol name='_ZN5mongo11_BufBuilderINS_21SharedBufferAllocatorEEC2Ei' type='func-type' binding='weak-binding' visibility='default-visibility' is-defined='yes'/>
    <elf-symbol name='_ZN5mongo11_BufBuilderINS_21SharedBufferAllocatorEED2Ev' type='func-type' binding='weak-binding' visibility='default-visibility' is-defined='yes'/>
    <elf-symbol name='_ZN5mongo12FTDCBSONUtil17getBSONDocumentIdERKNS_7BSONObjE' type='func-type' binding='global-binding' visibility='default-visibility' is-defined='yes'/>
    <elf-symbol name='_ZN5mongo12FTDCBSONUtil19getBSONDocumentTypeERKNS_7BSONObjE' type='func-type' binding='global-binding' visibility='default-visibility' is-defined='yes'/>
    <elf-symbol name='_ZN5mongo12FTDCBSONUtil23getMetricsFromMetricDocERKNS_7BSONObjEPNS_16FTDCDecompressorE' type='func-type' binding='global-binding' visibility='default-visibility' is-defined='yes'/>
    <elf-symbol name='_ZN5mongo12FTDCBSONUtil26createBSONMetadataDocumentERKNS_7BSONObjENS_6Date_tE' type='func-type' binding='global-binding' visibility='default-visibility' is-defined='yes'/>
    <elf-symbol name='_ZN5mongo12FTDCBSONUtil26extractMetricsFromDocumentERKNS_7BSONObjES3_PSt6vectorImSaImEE' type='func-type' binding='global-binding' visibility='default-visibility' is-defined='yes'/>
    <elf-symbol name='_ZN5mongo12FTDCBSONUtil28constructDocumentFromMetricsERKNS_7BSONObjERKSt6vectorImSaImEE' type='func-type' binding='global-binding' visibility='default-visibility' is-defined='yes'/>
    <elf-symbol name='_ZN5mongo12FTDCBSONUtil29createBSONMetricChunkDocumentENS_14ConstDataRangeENS_6Date_tE' type='func-type' binding='global-binding' visibility='default-visibility' is-defined='yes'/>
    <elf-symbol name='_ZN5mongo12FTDCBSONUtil30getBSONDocumentFromMetadataDocERKNS_7BSONObjE' type='func-type' binding='global-binding' visibility='default-visibility' is-defined='yes'/>
    <elf-symbol name='_ZN5mongo14BSONObjBuilder11subobjStartENS_10StringDataE' type='func-type' binding='weak-binding' visibility='default-visibility' is-defined='yes'/>
    <elf-symbol name='_ZN5mongo14BSONObjBuilder12appendObjectENS_10StringDataEPKci' type='func-type' binding='weak-binding' visibility='default-visibility' is-defined='yes'/>
    <elf-symbol name='_ZN5mongo14BSONObjBuilder13appendBinDataENS_10StringDataEiNS_11BinDataTypeEPKv' type='func-type' binding='weak-binding' visibility='default-visibility' is-defined='yes'/>
    <elf-symbol name='_ZN5mongo14BSONObjBuilder13subarrayStartENS_10StringDataE' type='func-type' binding='weak-binding' visibility='default-visibility' is-defined='yes'/>
    <elf-symbol name='_ZN5mongo14BSONObjBuilder3objEv' type='func-type' binding='weak-binding' visibility='default-visibility' is-defined='yes'/>
    <elf-symbol name='_ZN5mongo14BSONObjBuilder5_doneEv' type='func-type' binding='weak-binding' visibility='default-visibility' is-defined='yes'/>
    <elf-symbol name='_ZN5mongo14BSONObjBuilder6appendENS_10StringDataEb' type='func-type' binding='weak-binding' visibility='default-visibility' is-defined='yes'/>
    <elf-symbol name='_ZN5mongo14BSONObjBuilder6appendENS_10StringDataEi' type='func-type' binding='weak-binding' visibility='default-visibility' is-defined='yes'/>
    <elf-symbol name='_ZN5mongo14BSONObjBuilder6appendENS_10StringDataEx' type='func-type' binding='weak-binding' visibility='default-visibility' is-defined='yes'/>
    <elf-symbol name='_ZN5mongo14BSONObjBuilder6appendERKNS_11BSONElementE' type='func-type' binding='weak-binding' visibility='default-visibility' is-defined='yes'/>
    <elf-symbol name='_ZN5mongo14BSONObjBuilderC2ERNS_11_BufBuilderINS_21SharedBufferAllocatorEEE' type='func-type' binding='weak-binding' visibility='default-visibility' is-defined='yes'/>
    <elf-symbol name='_ZN5mongo14BSONObjBuilderC2Ei' type='func-type' binding='weak-binding' visibility='default-visibility' is-defined='yes'/>
    <elf-symbol name='_ZN5mongo14BSONObjBuilderD2Ev' type='func-type' binding='weak-binding' visibility='default-visibility' is-defined='yes'/>
    <elf-symbol name='_ZN5mongo14FTDCCompressor20getCompressedSamplesEv' type='func-type' binding='global-binding' visibility='default-visibility' is-defined='yes'/>
    <elf-symbol name='_ZN5mongo14FTDCCompressor5resetEv' type='func-type' binding='global-binding' visibility='default-visibility' is-defined='yes'/>
    <elf-symbol name='_ZN5mongo14FTDCCompressor6_resetERKNS_7BSONObjENS_6Date_tE' type='func-type' binding='global-binding' visibility='default-visibility' is-defined='yes'/>
    <elf-symbol name='_ZN5mongo14FTDCCompressor9addSampleERKNS_7BSONObjENS_6Date_tE' type='func-type' binding='global-binding' visibility='default-visibility' is-defined='yes'/>
    <elf-symbol name='_ZN5mongo14FTDCCompressorC2EPKNS_10FTDCConfigE' type='func-type' binding='weak-binding' visibility='default-visibility' is-defined='yes'/>
    <elf-symbol name='_ZN5mongo14FTDCCompressorD2Ev' type='func-type' binding='weak-binding' visibility='default-visibility' is-defined='yes'/>
    <elf-symbol name='_ZN5mongo14FTDCController10setEnabledEb' type='func-type' binding='global-binding' visibility='default-visibility' is-defined='yes'/>
    <elf-symbol name='_ZN5mongo14FTDCController12setDirectoryERKN5boost10filesystem4pathE' type='func-type' binding='global-binding' visibility='default-visibility' is-defined='yes'/>
    <elf-symbol name='_ZN5mongo14FTDCController19setMaxFileSizeBytesEm' type='func-type' binding='global-binding' visibility='default-visibility' is-defined='yes'/>
    <elf-symbol name='_ZN5mongo14FTDCController20addOnRotateCollectorESt10unique_ptrINS_22FTDCCollectorInterfaceESt14default_deleteIS2_EE' type='func-type' binding='global-binding' visibility='default-visibility' is-defined='yes'/>
    <elf-symbol name='_ZN5mongo14FTDCController20addPeriodicCollectorESt10unique_ptrINS_22FTDCCollectorInterfaceESt14default_deleteIS2_EE' type='func-type' binding='global-binding' visibility='default-visibility' is-defined='yes'/>
    <elf-symbol name='_ZN5mongo14FTDCController24setMaxDirectorySizeBytesEm' type='func-type' binding='global-binding' visibility='default-visibility' is-defined='yes'/>
    <elf-symbol name='_ZN5mongo14FTDCController29getMostRecentPeriodicDocumentEv' type='func-type' binding='global-binding' visibility='default-visibility' is-defined='yes'/>
    <elf-symbol name='_ZN5mongo14FTDCController34setMaxSamplesPerArchiveMetricChunkEm' type='func-type' binding='global-binding' visibility='default-visibility' is-defined='yes'/>
    <elf-symbol name='_ZN5mongo14FTDCController34setMaxSamplesPerInterimMetricChunkEm' type='func-type' binding='global-binding' visibility='default-visibility' is-defined='yes'/>
    <elf-symbol name='_ZN5mongo14FTDCController4stopEv' type='func-type' binding='global-binding' visibility='default-visibility' is-defined='yes'/>
    <elf-symbol name='_ZN5mongo14FTDCController5startEv' type='func-type' binding='global-binding' visibility='default-visibility' is-defined='yes'/>
    <elf-symbol name='_ZN5mongo14FTDCController6doLoopEv' type='func-type' binding='global-binding' visibility='default-visibility' is-defined='yes'/>
    <elf-symbol name='_ZN5mongo14FTDCController9setPeriodENS_8DurationISt5ratioILl1ELl1000EEEE' type='func-type' binding='global-binding' visibility='default-visibility' is-defined='yes'/>
    <elf-symbol name='_ZN5mongo14FTDCFileReader12readDocumentEv' type='func-type' binding='global-binding' visibility='default-visibility' is-defined='yes'/>
    <elf-symbol name='_ZN5mongo14FTDCFileReader4nextEv' type='func-type' binding='global-binding' visibility='default-visibility' is-defined='yes'/>
    <elf-symbol name='_ZN5mongo14FTDCFileReader4openERKN5boost10filesystem4pathE' type='func-type' binding='global-binding' visibility='default-visibility' is-defined='yes'/>
    <elf-symbol name='_ZN5mongo14FTDCFileReader7hasNextEv' type='func-type' binding='global-binding' visibility='default-visibility' is-defined='yes'/>
    <elf-symbol name='_ZN5mongo14FTDCFileReaderC2Ev' type='func-type' binding='weak-binding' visibility='default-visibility' is-defined='yes'/>
    <elf-symbol name='_ZN5mongo14FTDCFileReaderD1Ev' type='func-type' binding='global-binding' visibility='default-visibility' is-defined='yes'/>
    <elf-symbol name='_ZN5mongo14FTDCFileReaderD2Ev' type='func-type' binding='global-binding' visibility='default-visibility' alias='_ZN5mongo14FTDCFileReaderD1Ev' is-defined='yes'/>
    <elf-symbol name='_ZN5mongo14FTDCFileWriter11writeSampleERKNS_7BSONObjENS_6Date_tE' type='func-type' binding='global-binding' visibility='default-visibility' is-defined='yes'/>
    <elf-symbol name='_ZN5mongo14FTDCFileWriter13writeMetadataERKNS_7BSONObjENS_6Date_tE' type='func-type' binding='global-binding' visibility='default-visibility' is-defined='yes'/>
    <elf-symbol name='_ZN5mongo14FTDCFileWriter22writeArchiveFileBufferENS_14ConstDataRangeE' type='func-type' binding='global-binding' visibility='default-visibility' is-defined='yes'/>
    <elf-symbol name='_ZN5mongo14FTDCFileWriter22writeInterimFileBufferENS_14ConstDataRangeE' type='func-type' binding='global-binding' visibility='default-visibility' is-defined='yes'/>
    <elf-symbol name='_ZN5mongo14FTDCFileWriter24closeWithoutFlushForTestEv' type='func-type' binding='global-binding' visibility='default-visibility' is-defined='yes'/>
    <elf-symbol name='_ZN5mongo14FTDCFileWriter4openERKN5boost10filesystem4pathE' type='func-type' binding='global-binding' visibility='default-visibility' is-defined='yes'/>
    <elf-symbol name='_ZN5mongo14FTDCFileWriter5closeEv' type='func-type' binding='global-binding' visibility='default-visibility' is-defined='yes'/>
    <elf-symbol name='_ZN5mongo14FTDCFileWriter5flushERKN5boost8optionalINS_14ConstDataRangeEEENS_6Date_tE' type='func-type' binding='global-binding' visibility='default-visibility' is-defined='yes'/>
    <elf-symbol name='_ZN5mongo14FTDCFileWriterC2EPKNS_10FTDCConfigE' type='func-type' binding='weak-binding' visibility='default-visibility' is-defined='yes'/>
    <elf-symbol name='_ZN5mongo14FTDCFileWriterD1Ev' type='func-type' binding='global-binding' visibility='default-visibility' is-defined='yes'/>
    <elf-symbol name='_ZN5mongo14FTDCFileWriterD2Ev' type='func-type' binding='global-binding' visibility='default-visibility' alias='_ZN5mongo14FTDCFileWriterD1Ev' is-defined='yes'/>
    <elf-symbol name='_ZN5mongo15BlockCompressor10uncompressENS_14ConstDataRangeEm' type='func-type' binding='global-binding' visibility='default-visibility' is-defined='yes'/>
    <elf-symbol name='_ZN5mongo15BlockCompressor8compressENS_14ConstDataRangeE' type='func-type' binding='global-binding' visibility='default-visibility' is-defined='yes'/>
    <elf-symbol name='_ZN5mongo15FTDCFileManager13scanDirectoryEv' type='func-type' binding='global-binding' visibility='default-visibility' is-defined='yes'/>
    <elf-symbol name='_ZN5mongo15FTDCFileManager13trimDirectoryERSt6vectorIN5boost10filesystem4pathESaIS4_EE' type='func-type' binding='global-binding' visibility='default-visibility' is-defined='yes'/>
    <elf-symbol name='_ZN5mongo15FTDCFileManager15openArchiveFileEPNS_6ClientERKN5boost10filesystem4pathERKSt6vectorISt5tupleIJNS_12FTDCBSONUtil8FTDCTypeENS_7BSONObjENS_6Date_tEEESaISE_EE' type='func-type' binding='global-binding' visibility='default-visibility' is-defined='yes'/>
    <elf-symbol name='_ZN5mongo15FTDCFileManager18recoverInterimFileEv' type='func-type' binding='global-binding' visibility='default-visibility' is-defined='yes'/>
    <elf-symbol name='_ZN5mongo15FTDCFileManager23generateArchiveFileNameERKN5boost10filesystem4pathENS_10StringDataE' type='func-type' binding='global-binding' visibility='default-visibility' is-defined='yes'/>
    <elf-symbol name='_ZN5mongo15FTDCFileManager28writeSampleAndRotateIfNeededEPNS_6ClientERKNS_7BSONObjENS_6Date_tE' type='func-type' binding='global-binding' visibility='default-visibility' is-defined='yes'/>
    <elf-symbol name='_ZN5mongo15FTDCFileManager5closeEv' type='func-type' binding='global-binding' visibility='default-visibility' is-defined='yes'/>
    <elf-symbol name='_ZN5mongo15FTDCFileManager6createEPKNS_10FTDCConfigERKN5boost10filesystem4pathEPNS_23FTDCCollectorCollectionEPNS_6ClientE' type='func-type' binding='global-binding' visibility='default-visibility' is-defined='yes'/>
    <elf-symbol name='_ZN5mongo15FTDCFileManager6rotateEPNS_6ClientE' type='func-type' binding='global-binding' visibility='default-visibility' is-defined='yes'/>
    <elf-symbol name='_ZN5mongo15FTDCFileManagerC1EPKNS_10FTDCConfigERKN5boost10filesystem4pathEPNS_23FTDCCollectorCollectionE' type='func-type' binding='global-binding' visibility='default-visibility' is-defined='yes'/>
    <elf-symbol name='_ZN5mongo15FTDCFileManagerC2EPKNS_10FTDCConfigERKN5boost10filesystem4pathEPNS_23FTDCCollectorCollectionE' type='func-type' binding='global-binding' visibility='default-visibility' alias='_ZN5mongo15FTDCFileManagerC1EPKNS_10FTDCConfigERKN5boost10filesystem4pathEPNS_23FTDCCollectorCollectionE' is-defined='yes'/>
    <elf-symbol name='_ZN5mongo15FTDCFileManagerD1Ev' type='func-type' binding='global-binding' visibility='default-visibility' is-defined='yes'/>
    <elf-symbol name='_ZN5mongo15FTDCFileManagerD2Ev' type='func-type' binding='global-binding' visibility='default-visibility' alias='_ZN5mongo15FTDCFileManagerD1Ev' is-defined='yes'/>
    <elf-symbol name='_ZN5mongo16FTDCDecompressor10uncompressENS_14ConstDataRangeE' type='func-type' binding='global-binding' visibility='default-visibility' is-defined='yes'/>
    <elf-symbol name='_ZN5mongo16FTDCDecompressorD2Ev' type='func-type' binding='weak-binding' visibility='default-visibility' is-defined='yes'/>
    <elf-symbol name='_ZN5mongo17StringBuilderImplINS_21SharedBufferAllocatorEE14appendIntegralIiEERS2_T_i' type='func-type' binding='weak-binding' visibility='default-visibility' is-defined='yes'/>
    <elf-symbol name='_ZN5mongo17StringBuilderImplINS_21SharedBufferAllocatorEE14appendIntegralIxEERS2_T_i' type='func-type' binding='weak-binding' visibility='default-visibility' is-defined='yes'/>
    <elf-symbol name='_ZN5mongo20ConstDataRangeCursor14readAndAdvanceINS_9ValidatedINS_7BSONObjEEEEENS_10StatusWithIT_EEv' type='func-type' binding='weak-binding' visibility='default-visibility' is-defined='yes'/>
    <elf-symbol name='_ZN5mongo23FTDCCollectorCollection3addESt10unique_ptrINS_22FTDCCollectorInterfaceESt14default_deleteIS2_EE' type='func-type' binding='global-binding' visibility='default-visibility' is-defined='yes'/>
    <elf-symbol name='_ZN5mongo23FTDCCollectorCollection7collectEPNS_6ClientE' type='func-type' binding='global-binding' visibility='default-visibility' is-defined='yes'/>
    <elf-symbol name='_ZN5mongo25BSONObjBuilderValueStreamD2Ev' type='func-type' binding='weak-binding' visibility='default-visibility' is-defined='yes'/>
    <elf-symbol name='_ZN5mongo6logger16LogstreamBuilderlsINS_6StatusEEERS1_RKT_' type='func-type' binding='weak-binding' visibility='default-visibility' is-defined='yes'/>
    <elf-symbol name='_ZN5mongo7BSONObjD2Ev' type='func-type' binding='weak-binding' visibility='default-visibility' is-defined='yes'/>
    <elf-symbol name='_ZN5mongo8DataType7HandlerINS_10FTDCVarIntEvE4loadEPS2_PKcmPml' type='func-type' binding='global-binding' visibility='default-visibility' is-defined='yes'/>
    <elf-symbol name='_ZN5mongo8DataType7HandlerINS_10FTDCVarIntEvE5storeERKS2_PcmPml' type='func-type' binding='global-binding' visibility='default-visibility' is-defined='yes'/>
    <elf-symbol name='_ZN5mongo8DataType7HandlerINS_7BSONObjEvE4loadEPS2_PKcmPml' type='func-type' binding='weak-binding' visibility='default-visibility' is-defined='yes'/>
    <elf-symbol name='_ZN5mongo8DataType7HandlerINS_9ValidatedINS_7BSONObjEEEvE4loadEPS4_PKcmPml' type='func-type' binding='weak-binding' visibility='default-visibility' is-defined='yes'/>
    <elf-symbol name='_ZN5mongo8FTDCUtil13getMongoSPathERKN5boost10filesystem4pathE' type='func-type' binding='global-binding' visibility='default-visibility' is-defined='yes'/>
    <elf-symbol name='_ZN5mongo8FTDCUtil14getInterimFileERKN5boost10filesystem4pathE' type='func-type' binding='global-binding' visibility='default-visibility' is-defined='yes'/>
    <elf-symbol name='_ZN5mongo8FTDCUtil18getInterimTempFileERKN5boost10filesystem4pathE' type='func-type' binding='global-binding' visibility='default-visibility' is-defined='yes'/>
    <elf-symbol name='_ZN5mongo8FTDCUtil9roundTimeENS_6Date_tENS_8DurationISt5ratioILl1ELl1000EEEE' type='func-type' binding='global-binding' visibility='default-visibility' is-defined='yes'/>
    <elf-symbol name='_ZNK5mongo11BSONElement10numberLongEv' type='func-type' binding='weak-binding' visibility='default-visibility' is-defined='yes'/>
    <elf-symbol name='_ZNK5mongo11BSONElement3chkENS_8BSONTypeE' type='func-type' binding='weak-binding' visibility='default-visibility' is-defined='yes'/>
    <elf-symbol name='_ZNK5mongo14ConstDataRange4readINS_9ValidatedINS_7BSONObjEEEEENS_10StatusWithIT_EEm' type='func-type' binding='weak-binding' visibility='default-visibility' is-defined='yes'/>
    <elf-symbol name='_ZNSt23_Sp_counted_ptr_inplaceINSt6thread5_ImplISt12_Bind_simpleIFSt5_BindIFSt7_Mem_fnIMN5mongo14FTDCControllerEFvvEEPS6_EEvEEEESaISF_ELN9__gnu_cxx12_Lock_policyE2EE10_M_destroyEv' type='func-type' binding='weak-binding' visibility='default-visibility' is-defined='yes'/>
    <elf-symbol name='_ZNSt23_Sp_counted_ptr_inplaceINSt6thread5_ImplISt12_Bind_simpleIFSt5_BindIFSt7_Mem_fnIMN5mongo14FTDCControllerEFvvEEPS6_EEvEEEESaISF_ELN9__gnu_cxx12_Lock_policyE2EE10_M_disposeEv' type='func-type' binding='weak-binding' visibility='default-visibility' is-defined='yes'/>
    <elf-symbol name='_ZNSt23_Sp_counted_ptr_inplaceINSt6thread5_ImplISt12_Bind_simpleIFSt5_BindIFSt7_Mem_fnIMN5mongo14FTDCControllerEFvvEEPS6_EEvEEEESaISF_ELN9__gnu_cxx12_Lock_policyE2EE14_M_get_deleterERKSt9type_info' type='func-type' binding='weak-binding' visibility='default-visibility' is-defined='yes'/>
    <elf-symbol name='_ZNSt23_Sp_counted_ptr_inplaceINSt6thread5_ImplISt12_Bind_simpleIFSt5_BindIFSt7_Mem_fnIMN5mongo14FTDCControllerEFvvEEPS6_EEvEEEESaISF_ELN9__gnu_cxx12_Lock_policyE2EED0Ev' type='func-type' binding='weak-binding' visibility='default-visibility' is-defined='yes'/>
    <elf-symbol name='_ZNSt23_Sp_counted_ptr_inplaceINSt6thread5_ImplISt12_Bind_simpleIFSt5_BindIFSt7_Mem_fnIMN5mongo14FTDCControllerEFvvEEPS6_EEvEEEESaISF_ELN9__gnu_cxx12_Lock_policyE2EED2Ev' type='func-type' binding='weak-binding' visibility='default-visibility' is-defined='yes'/>
    <elf-symbol name='_ZNSt6thread10_Impl_baseD0Ev' type='func-type' binding='weak-binding' visibility='default-visibility' is-defined='yes'/>
    <elf-symbol name='_ZNSt6thread10_Impl_baseD2Ev' type='func-type' binding='weak-binding' visibility='default-visibility' is-defined='yes'/>
    <elf-symbol name='_ZNSt6thread5_ImplISt12_Bind_simpleIFSt5_BindIFSt7_Mem_fnIMN5mongo14FTDCControllerEFvvEEPS5_EEvEEE6_M_runEv' type='func-type' binding='weak-binding' visibility='default-visibility' is-defined='yes'/>
    <elf-symbol name='_ZNSt6thread5_ImplISt12_Bind_simpleIFSt5_BindIFSt7_Mem_fnIMN5mongo14FTDCControllerEFvvEEPS5_EEvEEED0Ev' type='func-type' binding='weak-binding' visibility='default-visibility' is-defined='yes'/>
    <elf-symbol name='_ZNSt6threadC2ISt5_BindIFSt7_Mem_fnIMN5mongo14FTDCControllerEFvvEEPS4_EEJEEEOT_DpOT0_' type='func-type' binding='weak-binding' visibility='default-visibility' is-defined='yes'/>
    <elf-symbol name='_ZNSt6vectorIN5boost10filesystem4pathESaIS2_EE19_M_emplace_back_auxIJS2_EEEvDpOT_' type='func-type' binding='weak-binding' visibility='default-visibility' is-defined='yes'/>
    <elf-symbol name='_ZNSt6vectorIN5mongo7BSONObjESaIS1_EE19_M_emplace_back_auxIJRS1_EEEvDpOT_' type='func-type' binding='weak-binding' visibility='default-visibility' is-defined='yes'/>
    <elf-symbol name='_ZNSt6vectorIN5mongo7BSONObjESaIS1_EE19_M_emplace_back_auxIJS1_EEEvDpOT_' type='func-type' binding='weak-binding' visibility='default-visibility' is-defined='yes'/>
    <elf-symbol name='_ZNSt6vectorIN5mongo7BSONObjESaIS1_EE7reserveEm' type='func-type' binding='weak-binding' visibility='default-visibility' is-defined='yes'/>
    <elf-symbol name='_ZNSt6vectorIN5mongo7BSONObjESaIS1_EED2Ev' type='func-type' binding='weak-binding' visibility='default-visibility' is-defined='yes'/>
    <elf-symbol name='_ZNSt6vectorIN5mongo7BSONObjESaIS1_EEaSERKS3_' type='func-type' binding='weak-binding' visibility='default-visibility' is-defined='yes'/>
    <elf-symbol name='_ZNSt6vectorISt10unique_ptrIN5mongo22FTDCCollectorInterfaceESt14default_deleteIS2_EESaIS5_EE19_M_emplace_back_auxIJS5_EEEvDpOT_' type='func-type' binding='weak-binding' visibility='default-visibility' is-defined='yes'/>
    <elf-symbol name='_ZNSt6vectorISt5tupleIJN5mongo12FTDCBSONUtil8FTDCTypeENS1_7BSONObjENS1_6Date_tEEESaIS6_EE19_M_emplace_back_auxIJS6_EEEvDpOT_' type='func-type' binding='weak-binding' visibility='default-visibility' is-defined='yes'/>
    <elf-symbol name='_ZNSt6vectorIcSaIcEE17_M_default_appendEm' type='func-type' binding='weak-binding' visibility='default-visibility' is-defined='yes'/>
    <elf-symbol name='_ZNSt6vectorIcSaIcEED2Ev' type='func-type' binding='weak-binding' visibility='default-visibility' is-defined='yes'/>
    <elf-symbol name='_ZNSt6vectorIhSaIhEE17_M_default_appendEm' type='func-type' binding='weak-binding' visibility='default-visibility' is-defined='yes'/>
    <elf-symbol name='_ZNSt6vectorImSaImEE17_M_default_appendEm' type='func-type' binding='weak-binding' visibility='default-visibility' is-defined='yes'/>
    <elf-symbol name='_ZNSt6vectorImSaImEE19_M_emplace_back_auxIJbEEEvDpOT_' type='func-type' binding='weak-binding' visibility='default-visibility' is-defined='yes'/>
    <elf-symbol name='_ZNSt6vectorImSaImEE19_M_emplace_back_auxIJjEEEvDpOT_' type='func-type' binding='weak-binding' visibility='default-visibility' is-defined='yes'/>
    <elf-symbol name='_ZNSt6vectorImSaImEE19_M_emplace_back_auxIJxEEEvDpOT_' type='func-type' binding='weak-binding' visibility='default-visibility' is-defined='yes'/>
    <elf-symbol name='_ZSt11__make_heapIN9__gnu_cxx17__normal_iteratorIPN5boost10filesystem4pathESt6vectorIS4_SaIS4_EEEENS0_5__ops15_Iter_less_iterEEvT_SC_T0_' type='func-type' binding='weak-binding' visibility='default-visibility' is-defined='yes'/>
    <elf-symbol name='_ZSt13__adjust_heapIN9__gnu_cxx17__normal_iteratorIPN5boost10filesystem4pathESt6vectorIS4_SaIS4_EEEElS4_NS0_5__ops15_Iter_less_iterEEvT_T0_SD_T1_T2_' type='func-type' binding='weak-binding' visibility='default-visibility' is-defined='yes'/>
    <elf-symbol name='_ZSt16__insertion_sortIN9__gnu_cxx17__normal_iteratorIPN5boost10filesystem4pathESt6vectorIS4_SaIS4_EEEENS0_5__ops15_Iter_less_iterEEvT_SC_T0_' type='func-type' binding='weak-binding' visibility='default-visibility' is-defined='yes'/>
    <elf-symbol name='_ZSt16__introsort_loopIN9__gnu_cxx17__normal_iteratorIPN5boost10filesystem4pathESt6vectorIS4_SaIS4_EEEElNS0_5__ops15_Iter_less_iterEEvT_SC_T0_T1_' type='func-type' binding='weak-binding' visibility='default-visibility' is-defined='yes'/>
    <elf-symbol name='_ZSt22__move_median_to_firstIN9__gnu_cxx17__normal_iteratorIPN5boost10filesystem4pathESt6vectorIS4_SaIS4_EEEENS0_5__ops15_Iter_less_iterEEvT_SC_SC_SC_T0_' type='func-type' binding='weak-binding' visibility='default-visibility' is-defined='yes'/>
    <elf-symbol name='_ZSt25__unguarded_linear_insertIN9__gnu_cxx17__normal_iteratorIPN5boost10filesystem4pathESt6vectorIS4_SaIS4_EEEENS0_5__ops14_Val_less_iterEEvT_T0_' type='func-type' binding='weak-binding' visibility='default-visibility' is-defined='yes'/>
    <elf-symbol name='_ZSt32__enable_shared_from_this_helperILN9__gnu_cxx12_Lock_policyE2EEvRKSt14__shared_countIXT_EEz' type='func-type' binding='weak-binding' visibility='default-visibility' is-defined='yes'/>
    <elf-symbol name='_ZStplIcSt11char_traitsIcESaIcEENSt7__cxx1112basic_stringIT_T0_T1_EEPKS5_RKS8_' type='func-type' binding='weak-binding' visibility='default-visibility' is-defined='yes'/>
    <elf-symbol name='_ZZN5mongo14BSONObjBuilder3objEvENKUlvE_clEv' type='func-type' binding='weak-binding' visibility='default-visibility' is-defined='yes'/>
    <elf-symbol name='_fini' type='func-type' binding='global-binding' visibility='default-visibility' is-defined='yes'/>
    <elf-symbol name='_init' type='func-type' binding='global-binding' visibility='default-visibility' is-defined='yes'/>
  </elf-function-symbols>
  <elf-variable-symbols>
    <elf-symbol name='_ZN5mongo10FTDCConfig20kPeriodMillisDefaultE' size='8' type='object-type' binding='global-binding' visibility='default-visibility' is-defined='yes'/>
    <elf-symbol name='_ZN5mongo12kFTDCIdFieldE' size='4' type='object-type' binding='global-binding' visibility='default-visibility' is-defined='yes'/>
    <elf-symbol name='_ZN5mongo13kFTDCDocFieldE' size='4' type='object-type' binding='global-binding' visibility='default-visibility' is-defined='yes'/>
    <elf-symbol name='_ZN5mongo14kFTDCDataFieldE' size='5' type='object-type' binding='global-binding' visibility='default-visibility' is-defined='yes'/>
    <elf-symbol name='_ZN5mongo14kFTDCDocsFieldE' size='5' type='object-type' binding='global-binding' visibility='default-visibility' is-defined='yes'/>
    <elf-symbol name='_ZN5mongo14kFTDCTypeFieldE' size='5' type='object-type' binding='global-binding' visibility='default-visibility' is-defined='yes'/>
    <elf-symbol name='_ZN5mongo16kFTDCArchiveFileE' size='8' type='object-type' binding='global-binding' visibility='default-visibility' is-defined='yes'/>
    <elf-symbol name='_ZN5mongo16kFTDCInterimFileE' size='16' type='object-type' binding='global-binding' visibility='default-visibility' is-defined='yes'/>
    <elf-symbol name='_ZN5mongo20kFTDCCollectEndFieldE' size='4' type='object-type' binding='global-binding' visibility='default-visibility' is-defined='yes'/>
    <elf-symbol name='_ZN5mongo22kFTDCCollectStartFieldE' size='6' type='object-type' binding='global-binding' visibility='default-visibility' is-defined='yes'/>
    <elf-symbol name='_ZTIN5boost6detail15sp_counted_baseE' size='16' type='object-type' binding='weak-binding' visibility='default-visibility' is-defined='yes'/>
    <elf-symbol name='_ZTIN5boost6detail17sp_counted_impl_pINS_10filesystem6detail11dir_itr_impEEE' size='24' type='object-type' binding='weak-binding' visibility='default-visibility' is-defined='yes'/>
    <elf-symbol name='_ZTINSt6thread10_Impl_baseE' size='16' type='object-type' binding='weak-binding' visibility='default-visibility' is-defined='yes'/>
    <elf-symbol name='_ZTINSt6thread5_ImplISt12_Bind_simpleIFSt5_BindIFSt7_Mem_fnIMN5mongo14FTDCControllerEFvvEEPS5_EEvEEEE' size='24' type='object-type' binding='weak-binding' visibility='default-visibility' is-defined='yes'/>
    <elf-symbol name='_ZTISt11_Mutex_baseILN9__gnu_cxx12_Lock_policyE2EE' size='16' type='object-type' binding='weak-binding' visibility='default-visibility' is-defined='yes'/>
    <elf-symbol name='_ZTISt16_Sp_counted_baseILN9__gnu_cxx12_Lock_policyE2EE' size='24' type='object-type' binding='weak-binding' visibility='default-visibility' is-defined='yes'/>
    <elf-symbol name='_ZTISt23_Sp_counted_ptr_inplaceINSt6thread5_ImplISt12_Bind_simpleIFSt5_BindIFSt7_Mem_fnIMN5mongo14FTDCControllerEFvvEEPS6_EEvEEEESaISF_ELN9__gnu_cxx12_Lock_policyE2EE' size='24' type='object-type' binding='weak-binding' visibility='default-visibility' is-defined='yes'/>
    <elf-symbol name='_ZTSN5boost6detail15sp_counted_baseE' size='33' type='object-type' binding='weak-binding' visibility='default-visibility' is-defined='yes'/>
    <elf-symbol name='_ZTSN5boost6detail17sp_counted_impl_pINS_10filesystem6detail11dir_itr_impEEE' size='73' type='object-type' binding='weak-binding' visibility='default-visibility' is-defined='yes'/>
    <elf-symbol name='_ZTSNSt6thread10_Impl_baseE' size='24' type='object-type' binding='weak-binding' visibility='default-visibility' is-defined='yes'/>
    <elf-symbol name='_ZTSNSt6thread5_ImplISt12_Bind_simpleIFSt5_BindIFSt7_Mem_fnIMN5mongo14FTDCControllerEFvvEEPS5_EEvEEEE' size='98' type='object-type' binding='weak-binding' visibility='default-visibility' is-defined='yes'/>
    <elf-symbol name='_ZTSSt11_Mutex_baseILN9__gnu_cxx12_Lock_policyE2EE' size='47' type='object-type' binding='weak-binding' visibility='default-visibility' is-defined='yes'/>
    <elf-symbol name='_ZTSSt16_Sp_counted_baseILN9__gnu_cxx12_Lock_policyE2EE' size='52' type='object-type' binding='weak-binding' visibility='default-visibility' is-defined='yes'/>
    <elf-symbol name='_ZTSSt19_Sp_make_shared_tag' size='24' type='object-type' binding='weak-binding' visibility='default-visibility' is-defined='yes'/>
    <elf-symbol name='_ZTSSt23_Sp_counted_ptr_inplaceINSt6thread5_ImplISt12_Bind_simpleIFSt5_BindIFSt7_Mem_fnIMN5mongo14FTDCControllerEFvvEEPS6_EEvEEEESaISF_ELN9__gnu_cxx12_Lock_policyE2EE' size='163' type='object-type' binding='weak-binding' visibility='default-visibility' is-defined='yes'/>
    <elf-symbol name='_ZTVN5boost6detail17sp_counted_impl_pINS_10filesystem6detail11dir_itr_impEEE' size='64' type='object-type' binding='weak-binding' visibility='default-visibility' is-defined='yes'/>
    <elf-symbol name='_ZTVNSt6thread10_Impl_baseE' size='40' type='object-type' binding='weak-binding' visibility='default-visibility' is-defined='yes'/>
    <elf-symbol name='_ZTVNSt6thread5_ImplISt12_Bind_simpleIFSt5_BindIFSt7_Mem_fnIMN5mongo14FTDCControllerEFvvEEPS5_EEvEEEE' size='40' type='object-type' binding='weak-binding' visibility='default-visibility' is-defined='yes'/>
    <elf-symbol name='_ZTVSt23_Sp_counted_ptr_inplaceINSt6thread5_ImplISt12_Bind_simpleIFSt5_BindIFSt7_Mem_fnIMN5mongo14FTDCControllerEFvvEEPS6_EEvEEEESaISF_ELN9__gnu_cxx12_Lock_policyE2EE' size='56' type='object-type' binding='weak-binding' visibility='default-visibility' is-defined='yes'/>
    <elf-symbol name='_ZZN5mongo11BSONElementC1EvE11kEooElement' size='2' type='object-type' binding='weak-binding' visibility='default-visibility' is-defined='yes'/>
    <elf-symbol name='_ZZN5mongo7BSONObjC1EvE21kEmptyObjectPrototype' size='5' type='object-type' binding='weak-binding' visibility='default-visibility' is-defined='yes'/>
  </elf-variable-symbols>
  <abi-instr address-size='64' path='src/mongo/db/ftdc/block_compressor.cpp' comp-dir-path='/home/andrew/Documents/10gen/dev/src/mongodb' language='LANG_C_plus_plus'>
    <type-decl name='bool' size-in-bits='8' id='type-id-1'/>
    <type-decl name='char' size-in-bits='8' id='type-id-2'/>
    <array-type-def dimensions='1' type-id='type-id-2' size-in-bits='168' id='type-id-3'>
      <subrange length='21' lower-bound='0' upper-bound='20' type-id='type-id-4' id='type-id-5'/>
    </array-type-def>
    <array-type-def dimensions='1' type-id='type-id-2' size-in-bits='192' id='type-id-6'>
      <subrange length='24' lower-bound='0' upper-bound='23' type-id='type-id-4' id='type-id-7'/>
    </array-type-def>
    <array-type-def dimensions='1' type-id='type-id-2' size-in-bits='200' id='type-id-8'>
      <subrange length='25' lower-bound='0' upper-bound='24' type-id='type-id-4' id='type-id-9'/>
    </array-type-def>
    <array-type-def dimensions='1' type-id='type-id-10' size-in-bits='168' id='type-id-11'>
      <subrange length='21' lower-bound='0' upper-bound='20' type-id='type-id-4' id='type-id-5'/>
    </array-type-def>
    <array-type-def dimensions='1' type-id='type-id-10' size-in-bits='192' id='type-id-12'>
      <subrange length='24' lower-bound='0' upper-bound='23' type-id='type-id-4' id='type-id-7'/>
    </array-type-def>
    <array-type-def dimensions='1' type-id='type-id-10' size-in-bits='200' id='type-id-13'>
      <subrange length='25' lower-bound='0' upper-bound='24' type-id='type-id-4' id='type-id-9'/>
    </array-type-def>
    <type-decl name='double' size-in-bits='64' id='type-id-14'/>
    <type-decl name='float' size-in-bits='32' id='type-id-15'/>
    <type-decl name='int' size-in-bits='32' id='type-id-16'/>
    <type-decl name='long double' size-in-bits='128' id='type-id-17'/>
    <type-decl name='long int' size-in-bits='64' id='type-id-18'/>
    <type-decl name='long long int' size-in-bits='64' id='type-id-19'/>
    <type-decl name='sizetype' size-in-bits='64' id='type-id-4'/>
    <class-decl name='_G_fpos_t' size-in-bits='128' is-struct='yes' naming-typedef-id='type-id-20' visibility='default' id='type-id-21'/>
    <class-decl name='imaxdiv_t' size-in-bits='128' is-struct='yes' naming-typedef-id='type-id-22' visibility='default' id='type-id-23'/>
    <class-decl name='lconv' size-in-bits='768' is-struct='yes' visibility='default' id='type-id-24'/>
    <typedef-decl name='FILE' type-id='type-id-25' filepath='/usr/include/stdio.h' line='48' column='1' id='type-id-26'/>
    <typedef-decl name='_G_fpos_t' type-id='type-id-21' filepath='/usr/include/_G_config.h' line='25' column='1' id='type-id-20'/>
    <typedef-decl name='__FILE' type-id='type-id-25' filepath='/usr/include/stdio.h' line='64' column='1' id='type-id-27'/>
    <typedef-decl name='__compar_fn_t' type-id='type-id-28' filepath='/usr/include/stdlib.h' line='741' column='1' id='type-id-29'/>
    <typedef-decl name='__int32_t' type-id='type-id-16' filepath='/usr/include/x86_64-linux-gnu/bits/types.h' line='40' column='1' id='type-id-30'/>
    <typedef-decl name='__mbstate_t' type-id='type-id-25' filepath='/usr/include/wchar.h' line='94' column='1' id='type-id-31'/>
    <typedef-decl name='div_t' type-id='type-id-25' filepath='/usr/include/stdlib.h' line='101' column='1' id='type-id-32'/>
    <typedef-decl name='fpos_t' type-id='type-id-20' filepath='/usr/include/stdio.h' line='110' column='1' id='type-id-33'/>
    <typedef-decl name='imaxdiv_t' type-id='type-id-23' filepath='/usr/include/inttypes.h' line='275' column='1' id='type-id-22'/>
    <typedef-decl name='intmax_t' type-id='type-id-18' filepath='/usr/include/stdint.h' line='134' column='1' id='type-id-34'/>
    <typedef-decl name='ldiv_t' type-id='type-id-23' filepath='/usr/include/stdlib.h' line='109' column='1' id='type-id-35'/>
    <typedef-decl name='lldiv_t' type-id='type-id-25' filepath='/usr/include/stdlib.h' line='121' column='1' id='type-id-36'/>
    <typedef-decl name='mbstate_t' type-id='type-id-31' filepath='/usr/include/wchar.h' line='106' column='1' id='type-id-37'/>
    <typedef-decl name='size_t' type-id='type-id-38' filepath='/usr/lib/llvm-3.9/bin/../lib/clang/3.9.1/include/stddef.h' line='62' column='1' id='type-id-39'/>
    <typedef-decl name='size_type' type-id='type-id-39' filepath='/usr/bin/../lib/gcc/x86_64-linux-gnu/5.4.0/../../../../include/c++/5.4.0/bits/stl_vector.h' line='236' column='1' id='type-id-40'/>
    <typedef-decl name='uintmax_t' type-id='type-id-38' filepath='/usr/include/stdint.h' line='135' column='1' id='type-id-41'/>
    <typedef-decl name='wctrans_t' type-id='type-id-42' filepath='/usr/include/wctype.h' line='186' column='1' id='type-id-43'/>
    <typedef-decl name='wctype_t' type-id='type-id-38' filepath='/usr/include/wctype.h' line='52' column='1' id='type-id-44'/>
    <typedef-decl name='wint_t' type-id='type-id-45' filepath='/usr/lib/llvm-3.9/bin/../lib/clang/3.9.1/include/stddef.h' line='132' column='1' id='type-id-46'/>
    <type-decl name='unnamed-enum-underlying-type-0' is-anonymous='yes' is-declaration-only='yes' id='type-id-47'/>
    <type-decl name='unsigned char' size-in-bits='8' id='type-id-48'/>
    <type-decl name='unsigned int' size-in-bits='32' id='type-id-45'/>
    <type-decl name='unsigned long int' size-in-bits='64' id='type-id-38'/>
    <type-decl name='unsigned long long int' size-in-bits='64' id='type-id-49'/>
    <type-decl name='wchar_t' size-in-bits='32' id='type-id-50'/>
    <pointer-type-def type-id='type-id-26' size-in-bits='64' id='type-id-51'/>
    <qualified-type-def type-id='type-id-51' restrict='yes' id='type-id-52'/>
    <pointer-type-def type-id='type-id-27' size-in-bits='64' id='type-id-53'/>
    <qualified-type-def type-id='type-id-53' restrict='yes' id='type-id-54'/>
    <pointer-type-def type-id='type-id-2' size-in-bits='64' id='type-id-55'/>
    <qualified-type-def type-id='type-id-55' restrict='yes' id='type-id-56'/>
    <pointer-type-def type-id='type-id-55' size-in-bits='64' id='type-id-57'/>
    <qualified-type-def type-id='type-id-57' restrict='yes' id='type-id-58'/>
    <qualified-type-def type-id='type-id-30' const='yes' id='type-id-59'/>
    <pointer-type-def type-id='type-id-59' size-in-bits='64' id='type-id-42'/>
    <qualified-type-def type-id='type-id-2' const='yes' id='type-id-10'/>
    <pointer-type-def type-id='type-id-10' size-in-bits='64' id='type-id-60'/>
    <qualified-type-def type-id='type-id-60' restrict='yes' id='type-id-61'/>
    <pointer-type-def type-id='type-id-60' size-in-bits='64' id='type-id-62'/>
    <qualified-type-def type-id='type-id-62' restrict='yes' id='type-id-63'/>
    <reference-type-def kind='lvalue' type-id='type-id-11' size-in-bits='64' id='type-id-64'/>
    <reference-type-def kind='lvalue' type-id='type-id-12' size-in-bits='64' id='type-id-65'/>
    <reference-type-def kind='lvalue' type-id='type-id-13' size-in-bits='64' id='type-id-66'/>
    <qualified-type-def type-id='type-id-33' const='yes' id='type-id-67'/>
    <pointer-type-def type-id='type-id-67' size-in-bits='64' id='type-id-68'/>
    <qualified-type-def type-id='type-id-16' const='yes' id='type-id-69'/>
    <reference-type-def kind='lvalue' type-id='type-id-69' size-in-bits='64' id='type-id-70'/>
    <qualified-type-def type-id='type-id-37' const='yes' id='type-id-71'/>
    <pointer-type-def type-id='type-id-71' size-in-bits='64' id='type-id-72'/>
    <qualified-type-def type-id='type-id-73' const='yes' id='type-id-74'/>
    <pointer-type-def type-id='type-id-74' size-in-bits='64' id='type-id-75'/>
    <qualified-type-def type-id='type-id-76' const='yes' id='type-id-77'/>
    <pointer-type-def type-id='type-id-77' size-in-bits='64' id='type-id-78'/>
    <qualified-type-def type-id='type-id-48' const='yes' id='type-id-79'/>
    <pointer-type-def type-id='type-id-79' size-in-bits='64' id='type-id-80'/>
    <qualified-type-def type-id='type-id-50' const='yes' id='type-id-81'/>
    <pointer-type-def type-id='type-id-81' size-in-bits='64' id='type-id-82'/>
    <qualified-type-def type-id='type-id-82' restrict='yes' id='type-id-83'/>
    <pointer-type-def type-id='type-id-82' size-in-bits='64' id='type-id-84'/>
    <qualified-type-def type-id='type-id-84' restrict='yes' id='type-id-85'/>
    <pointer-type-def type-id='type-id-25' size-in-bits='64' id='type-id-86'/>
    <pointer-type-def type-id='type-id-14' size-in-bits='64' id='type-id-87'/>
    <pointer-type-def type-id='type-id-33' size-in-bits='64' id='type-id-88'/>
    <qualified-type-def type-id='type-id-88' restrict='yes' id='type-id-89'/>
    <pointer-type-def type-id='type-id-90' size-in-bits='64' id='type-id-28'/>
    <pointer-type-def type-id='type-id-16' size-in-bits='64' id='type-id-91'/>
    <pointer-type-def type-id='type-id-24' size-in-bits='64' id='type-id-92'/>
    <pointer-type-def type-id='type-id-37' size-in-bits='64' id='type-id-93'/>
    <qualified-type-def type-id='type-id-93' restrict='yes' id='type-id-94'/>
    <reference-type-def kind='lvalue' type-id='type-id-95' size-in-bits='64' id='type-id-96'/>
    <pointer-type-def type-id='type-id-73' size-in-bits='64' id='type-id-97'/>
    <pointer-type-def type-id='type-id-76' size-in-bits='64' id='type-id-98'/>
    <pointer-type-def type-id='type-id-99' size-in-bits='64' id='type-id-100'/>
    <pointer-type-def type-id='type-id-101' size-in-bits='64' id='type-id-102'/>
    <pointer-type-def type-id='type-id-103' size-in-bits='64' id='type-id-104'/>
    <pointer-type-def type-id='type-id-105' size-in-bits='64' id='type-id-106'/>
    <pointer-type-def type-id='type-id-48' size-in-bits='64' id='type-id-107'/>
    <pointer-type-def type-id='type-id-108' size-in-bits='64' id='type-id-109'/>
    <pointer-type-def type-id='type-id-50' size-in-bits='64' id='type-id-110'/>
    <qualified-type-def type-id='type-id-110' restrict='yes' id='type-id-111'/>
    <pointer-type-def type-id='type-id-110' size-in-bits='64' id='type-id-112'/>
    <qualified-type-def type-id='type-id-112' restrict='yes' id='type-id-113'/>
    <reference-type-def kind='lvalue' type-id='type-id-114' size-in-bits='64' id='type-id-115'/>
    <reference-type-def kind='rvalue' type-id='type-id-114' size-in-bits='64' id='type-id-116'/>
    <pointer-type-def type-id='type-id-117' size-in-bits='64' id='type-id-118'/>
    <pointer-type-def type-id='type-id-119' size-in-bits='64' id='type-id-120'/>
    <pointer-type-def type-id='type-id-114' size-in-bits='64' id='type-id-121'/>
    <pointer-type-def type-id='type-id-122' size-in-bits='64' id='type-id-123'/>
    <pointer-type-def type-id='type-id-124' size-in-bits='64' id='type-id-125'/>
    <pointer-type-def type-id='type-id-126' size-in-bits='64' id='type-id-127'/>
    <pointer-type-def type-id='type-id-128' size-in-bits='64' id='type-id-129'/>
    <pointer-type-def type-id='type-id-130' size-in-bits='64' id='type-id-131'/>
    <pointer-type-def type-id='type-id-132' size-in-bits='64' id='type-id-133'/>
    <pointer-type-def type-id='type-id-134' size-in-bits='64' id='type-id-135'/>
    <pointer-type-def type-id='type-id-136' size-in-bits='64' id='type-id-137'/>
    <pointer-type-def type-id='type-id-138' size-in-bits='64' id='type-id-139'/>
    <pointer-type-def type-id='type-id-140' size-in-bits='64' id='type-id-141'/>
    <pointer-type-def type-id='type-id-142' size-in-bits='64' id='type-id-143'/>
    <pointer-type-def type-id='type-id-144' size-in-bits='64' id='type-id-145'/>
    <pointer-type-def type-id='type-id-146' size-in-bits='64' id='type-id-147'/>
    <pointer-type-def type-id='type-id-132' size-in-bits='64' id='type-id-148'/>
    <pointer-type-def type-id='type-id-149' size-in-bits='64' id='type-id-150'/>
    <pointer-type-def type-id='type-id-151' size-in-bits='64' id='type-id-152'/>
    <pointer-type-def type-id='type-id-153' size-in-bits='64' id='type-id-154'/>
    <qualified-type-def type-id='type-id-140' const='yes' id='type-id-155'/>
    <qualified-type-def type-id='type-id-119' const='yes' id='type-id-156'/>
    <qualified-type-def type-id='type-id-114' const='yes' id='type-id-157'/>
    <qualified-type-def type-id='type-id-122' const='yes' id='type-id-158'/>
    <qualified-type-def type-id='type-id-124' const='yes' id='type-id-159'/>
    <qualified-type-def type-id='type-id-149' const='yes' id='type-id-160'/>
    <qualified-type-def type-id='type-id-134' const='yes' id='type-id-161'/>
    <qualified-type-def type-id='type-id-130' const='yes' id='type-id-162'/>
    <qualified-type-def type-id='type-id-132' const='yes' id='type-id-163'/>
    <reference-type-def kind='lvalue' type-id='type-id-161' size-in-bits='64' id='type-id-164'/>
    <pointer-type-def type-id='type-id-155' size-in-bits='64' id='type-id-165'/>
    <pointer-type-def type-id='type-id-156' size-in-bits='64' id='type-id-166'/>
    <pointer-type-def type-id='type-id-157' size-in-bits='64' id='type-id-167'/>
    <pointer-type-def type-id='type-id-158' size-in-bits='64' id='type-id-168'/>
    <pointer-type-def type-id='type-id-159' size-in-bits='64' id='type-id-169'/>
    <pointer-type-def type-id='type-id-160' size-in-bits='64' id='type-id-170'/>
    <pointer-type-def type-id='type-id-162' size-in-bits='64' id='type-id-171'/>
    <pointer-type-def type-id='type-id-163' size-in-bits='64' id='type-id-172'/>
    <qualified-type-def type-id='type-id-173' const='yes' id='type-id-174'/>
    <pointer-type-def type-id='type-id-174' size-in-bits='64' id='type-id-175'/>
    <qualified-type-def type-id='type-id-176' const='yes' id='type-id-177'/>
    <pointer-type-def type-id='type-id-177' size-in-bits='64' id='type-id-178'/>
    <qualified-type-def type-id='type-id-178' restrict='yes' id='type-id-179'/>
    <reference-type-def kind='lvalue' type-id='type-id-180' size-in-bits='64' id='type-id-181'/>
    <class-decl name='div_t' size-in-bits='64' is-struct='yes' naming-typedef-id='type-id-32' visibility='default' id='type-id-25'/>
    <class-decl name='tm' is-struct='yes' visibility='default' is-declaration-only='yes' id='type-id-176'/>
    <pointer-type-def type-id='type-id-173' size-in-bits='64' id='type-id-182'/>
    <pointer-type-def type-id='type-id-183' size-in-bits='64' id='type-id-184'/>
    <pointer-type-def type-id='type-id-185' size-in-bits='64' id='type-id-186'/>
    <qualified-type-def type-id='type-id-187' restrict='yes' id='type-id-188'/>
    <qualified-type-def type-id='type-id-187' restrict='yes' id='type-id-189'/>
    <namespace-decl name='std'>
      <class-decl name='allocator&lt;char&gt;' size-in-bits='8' visibility='default' id='type-id-190'/>
      <class-decl name='basic_ios&lt;char, std::char_traits&lt;char&gt; &gt;' size-in-bits='2112' visibility='default' id='type-id-99'>
        <member-function access='public'>
          <function-decl name='rdstate' mangled-name='_ZNKSt9basic_iosIcSt11char_traitsIcEE7rdstateEv' filepath='/usr/bin/../lib/gcc/x86_64-linux-gnu/5.4.0/../../../../include/c++/5.4.0/bits/basic_ios.h' line='137' column='1' visibility='default' binding='global' size-in-bits='64'>
            <parameter type-id='type-id-191' is-artificial='yes'/>
            <return type-id='type-id-192'/>
          </function-decl>
        </member-function>
        <member-function access='public'>
          <function-decl name='setstate' mangled-name='_ZNSt9basic_iosIcSt11char_traitsIcEE8setstateESt12_Ios_Iostate' filepath='/usr/bin/../lib/gcc/x86_64-linux-gnu/5.4.0/../../../../include/c++/5.4.0/bits/basic_ios.h' line='157' column='1' visibility='default' binding='global' size-in-bits='64'>
            <parameter type-id='type-id-100' is-artificial='yes'/>
            <parameter type-id='type-id-192'/>
            <return type-id='type-id-193'/>
          </function-decl>
        </member-function>
        <member-function access='public'>
          <function-decl name='eof' mangled-name='_ZNKSt9basic_iosIcSt11char_traitsIcEE3eofEv' filepath='/usr/bin/../lib/gcc/x86_64-linux-gnu/5.4.0/../../../../include/c++/5.4.0/bits/basic_ios.h' line='190' column='1' visibility='default' binding='global' size-in-bits='64'>
            <parameter type-id='type-id-191' is-artificial='yes'/>
            <return type-id='type-id-1'/>
          </function-decl>
        </member-function>
        <member-function access='public'>
          <function-decl name='fail' mangled-name='_ZNKSt9basic_iosIcSt11char_traitsIcEE4failEv' filepath='/usr/bin/../lib/gcc/x86_64-linux-gnu/5.4.0/../../../../include/c++/5.4.0/bits/basic_ios.h' line='201' column='1' visibility='default' binding='global' size-in-bits='64'>
            <parameter type-id='type-id-191' is-artificial='yes'/>
            <return type-id='type-id-1'/>
          </function-decl>
        </member-function>
        <member-function access='public' destructor='yes' vtable-offset='0'>
          <function-decl name='~basic_ios' filepath='/usr/bin/../lib/gcc/x86_64-linux-gnu/5.4.0/../../../../include/c++/5.4.0/bits/basic_ios.h' line='282' column='1' visibility='default' binding='global' size-in-bits='64'>
            <parameter type-id='type-id-100' is-artificial='yes'/>
            <return type-id='type-id-193'/>
          </function-decl>
        </member-function>
        <member-function access='public' destructor='yes' vtable-offset='0'>
          <function-decl name='~basic_ios' filepath='/usr/bin/../lib/gcc/x86_64-linux-gnu/5.4.0/../../../../include/c++/5.4.0/bits/basic_ios.h' line='282' column='1' visibility='default' binding='global' size-in-bits='64'>
            <parameter type-id='type-id-100' is-artificial='yes'/>
            <return type-id='type-id-193'/>
          </function-decl>
        </member-function>
        <member-function access='public' destructor='yes' vtable-offset='0'>
          <function-decl name='~basic_ios' filepath='/usr/bin/../lib/gcc/x86_64-linux-gnu/5.4.0/../../../../include/c++/5.4.0/bits/basic_ios.h' line='282' column='1' visibility='default' binding='global' size-in-bits='64'>
            <parameter type-id='type-id-100' is-artificial='yes'/>
            <return type-id='type-id-193'/>
          </function-decl>
        </member-function>
        <member-function access='public' destructor='yes' vtable-offset='0'>
          <function-decl name='~basic_ios' filepath='/usr/bin/../lib/gcc/x86_64-linux-gnu/5.4.0/../../../../include/c++/5.4.0/bits/basic_ios.h' line='282' column='1' visibility='default' binding='global' size-in-bits='64'>
            <parameter type-id='type-id-100' is-artificial='yes'/>
            <return type-id='type-id-193'/>
          </function-decl>
        </member-function>
        <member-function access='public' destructor='yes' vtable-offset='0'>
          <function-decl name='~basic_ios' filepath='/usr/bin/../lib/gcc/x86_64-linux-gnu/5.4.0/../../../../include/c++/5.4.0/bits/basic_ios.h' line='282' column='1' visibility='default' binding='global' size-in-bits='64'>
            <parameter type-id='type-id-100' is-artificial='yes'/>
            <return type-id='type-id-193'/>
          </function-decl>
        </member-function>
        <member-function access='public' destructor='yes' vtable-offset='0'>
          <function-decl name='~basic_ios' filepath='/usr/bin/../lib/gcc/x86_64-linux-gnu/5.4.0/../../../../include/c++/5.4.0/bits/basic_ios.h' line='282' column='1' visibility='default' binding='global' size-in-bits='64'>
            <parameter type-id='type-id-100' is-artificial='yes'/>
            <return type-id='type-id-193'/>
          </function-decl>
        </member-function>
        <member-function access='public' destructor='yes' vtable-offset='0'>
          <function-decl name='~basic_ios' filepath='/usr/bin/../lib/gcc/x86_64-linux-gnu/5.4.0/../../../../include/c++/5.4.0/bits/basic_ios.h' line='282' column='1' visibility='default' binding='global' size-in-bits='64'>
            <parameter type-id='type-id-100' is-artificial='yes'/>
            <return type-id='type-id-193'/>
          </function-decl>
        </member-function>
        <member-function access='public' destructor='yes' vtable-offset='0'>
          <function-decl name='~basic_ios' mangled-name='_ZNSt9basic_iosIcSt11char_traitsIcEED2Ev' filepath='/usr/bin/../lib/gcc/x86_64-linux-gnu/5.4.0/../../../../include/c++/5.4.0/bits/basic_ios.h' line='282' column='1' visibility='default' binding='global' size-in-bits='64'>
            <parameter type-id='type-id-100' is-artificial='yes'/>
            <return type-id='type-id-193'/>
          </function-decl>
        </member-function>
      </class-decl>
      <class-decl name='basic_iostream&lt;char, std::char_traits&lt;char&gt; &gt;' size-in-bits='2304' visibility='default' id='type-id-101'>
        <member-function access='public' destructor='yes' vtable-offset='0'>
          <function-decl name='~basic_iostream' filepath='/usr/bin/../lib/gcc/x86_64-linux-gnu/5.4.0/../../../../include/c++/5.4.0/istream' line='856' column='1' visibility='default' binding='global' size-in-bits='64'>
            <parameter type-id='type-id-102' is-artificial='yes'/>
            <return type-id='type-id-193'/>
          </function-decl>
        </member-function>
        <member-function access='public' destructor='yes' vtable-offset='0'>
          <function-decl name='~basic_iostream' filepath='/usr/bin/../lib/gcc/x86_64-linux-gnu/5.4.0/../../../../include/c++/5.4.0/istream' line='856' column='1' visibility='default' binding='global' size-in-bits='64'>
            <parameter type-id='type-id-102' is-artificial='yes'/>
            <return type-id='type-id-193'/>
          </function-decl>
        </member-function>
        <member-function access='public' destructor='yes' vtable-offset='0'>
          <function-decl name='~basic_iostream' filepath='/usr/bin/../lib/gcc/x86_64-linux-gnu/5.4.0/../../../../include/c++/5.4.0/istream' line='856' column='1' visibility='default' binding='global' size-in-bits='64'>
            <parameter type-id='type-id-102' is-artificial='yes'/>
            <return type-id='type-id-193'/>
          </function-decl>
        </member-function>
        <member-function access='public' destructor='yes' vtable-offset='0'>
          <function-decl name='~basic_iostream' filepath='/usr/bin/../lib/gcc/x86_64-linux-gnu/5.4.0/../../../../include/c++/5.4.0/istream' line='856' column='1' visibility='default' binding='global' size-in-bits='64'>
            <parameter type-id='type-id-102' is-artificial='yes'/>
            <return type-id='type-id-193'/>
          </function-decl>
        </member-function>
        <member-function access='public' destructor='yes' vtable-offset='0'>
          <function-decl name='~basic_iostream' filepath='/usr/bin/../lib/gcc/x86_64-linux-gnu/5.4.0/../../../../include/c++/5.4.0/istream' line='856' column='1' visibility='default' binding='global' size-in-bits='64'>
            <parameter type-id='type-id-102' is-artificial='yes'/>
            <return type-id='type-id-193'/>
          </function-decl>
        </member-function>
        <member-function access='public' destructor='yes' vtable-offset='0'>
          <function-decl name='~basic_iostream' filepath='/usr/bin/../lib/gcc/x86_64-linux-gnu/5.4.0/../../../../include/c++/5.4.0/istream' line='856' column='1' visibility='default' binding='global' size-in-bits='64'>
            <parameter type-id='type-id-102' is-artificial='yes'/>
            <return type-id='type-id-193'/>
          </function-decl>
        </member-function>
        <member-function access='public' destructor='yes' vtable-offset='0'>
          <function-decl name='~basic_iostream' filepath='/usr/bin/../lib/gcc/x86_64-linux-gnu/5.4.0/../../../../include/c++/5.4.0/istream' line='856' column='1' visibility='default' binding='global' size-in-bits='64'>
            <parameter type-id='type-id-102' is-artificial='yes'/>
            <return type-id='type-id-193'/>
          </function-decl>
        </member-function>
        <member-function access='public' destructor='yes' vtable-offset='0'>
          <function-decl name='~basic_iostream' mangled-name='_ZNSdD2Ev' filepath='/usr/bin/../lib/gcc/x86_64-linux-gnu/5.4.0/../../../../include/c++/5.4.0/istream' line='856' column='1' visibility='default' binding='global' size-in-bits='64'>
            <parameter type-id='type-id-102' is-artificial='yes'/>
            <return type-id='type-id-193'/>
          </function-decl>
        </member-function>
      </class-decl>
      <class-decl name='basic_istream&lt;char, std::char_traits&lt;char&gt; &gt;' size-in-bits='2240' visibility='default' id='type-id-103'>
        <member-function access='public'>
          <function-decl name='gcount' mangled-name='_ZNKSi6gcountEv' filepath='/usr/bin/../lib/gcc/x86_64-linux-gnu/5.4.0/../../../../include/c++/5.4.0/istream' line='269' column='1' visibility='default' binding='global' size-in-bits='64'>
            <parameter type-id='type-id-194' is-artificial='yes'/>
            <return type-id='type-id-195'/>
          </function-decl>
        </member-function>
        <member-function access='public' destructor='yes' vtable-offset='0'>
          <function-decl name='~basic_istream' filepath='/usr/bin/../lib/gcc/x86_64-linux-gnu/5.4.0/../../../../include/c++/5.4.0/istream' line='103' column='1' visibility='default' binding='global' size-in-bits='64'>
            <parameter type-id='type-id-104' is-artificial='yes'/>
            <return type-id='type-id-193'/>
          </function-decl>
        </member-function>
        <member-function access='public' destructor='yes' vtable-offset='0'>
          <function-decl name='~basic_istream' filepath='/usr/bin/../lib/gcc/x86_64-linux-gnu/5.4.0/../../../../include/c++/5.4.0/istream' line='103' column='1' visibility='default' binding='global' size-in-bits='64'>
            <parameter type-id='type-id-104' is-artificial='yes'/>
            <return type-id='type-id-193'/>
          </function-decl>
        </member-function>
        <member-function access='public' destructor='yes' vtable-offset='0'>
          <function-decl name='~basic_istream' filepath='/usr/bin/../lib/gcc/x86_64-linux-gnu/5.4.0/../../../../include/c++/5.4.0/istream' line='103' column='1' visibility='default' binding='global' size-in-bits='64'>
            <parameter type-id='type-id-104' is-artificial='yes'/>
            <return type-id='type-id-193'/>
          </function-decl>
        </member-function>
        <member-function access='public' destructor='yes' vtable-offset='0'>
          <function-decl name='~basic_istream' filepath='/usr/bin/../lib/gcc/x86_64-linux-gnu/5.4.0/../../../../include/c++/5.4.0/istream' line='103' column='1' visibility='default' binding='global' size-in-bits='64'>
            <parameter type-id='type-id-104' is-artificial='yes'/>
            <return type-id='type-id-193'/>
          </function-decl>
        </member-function>
        <member-function access='public' destructor='yes' vtable-offset='0'>
          <function-decl name='~basic_istream' filepath='/usr/bin/../lib/gcc/x86_64-linux-gnu/5.4.0/../../../../include/c++/5.4.0/istream' line='103' column='1' visibility='default' binding='global' size-in-bits='64'>
            <parameter type-id='type-id-104' is-artificial='yes'/>
            <return type-id='type-id-193'/>
          </function-decl>
        </member-function>
        <member-function access='public' destructor='yes' vtable-offset='0'>
          <function-decl name='~basic_istream' filepath='/usr/bin/../lib/gcc/x86_64-linux-gnu/5.4.0/../../../../include/c++/5.4.0/istream' line='103' column='1' visibility='default' binding='global' size-in-bits='64'>
            <parameter type-id='type-id-104' is-artificial='yes'/>
            <return type-id='type-id-193'/>
          </function-decl>
        </member-function>
        <member-function access='public' destructor='yes' vtable-offset='0'>
          <function-decl name='~basic_istream' filepath='/usr/bin/../lib/gcc/x86_64-linux-gnu/5.4.0/../../../../include/c++/5.4.0/istream' line='103' column='1' visibility='default' binding='global' size-in-bits='64'>
            <parameter type-id='type-id-104' is-artificial='yes'/>
            <return type-id='type-id-193'/>
          </function-decl>
        </member-function>
        <member-function access='public' destructor='yes' vtable-offset='0'>
          <function-decl name='~basic_istream' mangled-name='_ZNSiD2Ev' filepath='/usr/bin/../lib/gcc/x86_64-linux-gnu/5.4.0/../../../../include/c++/5.4.0/istream' line='103' column='1' visibility='default' binding='global' size-in-bits='64'>
            <parameter type-id='type-id-104' is-artificial='yes'/>
            <return type-id='type-id-193'/>
          </function-decl>
        </member-function>
      </class-decl>
      <class-decl name='basic_streambuf&lt;char, std::char_traits&lt;char&gt; &gt;' size-in-bits='512' visibility='default' id='type-id-105'>
        <member-function access='public' destructor='yes' vtable-offset='0'>
          <function-decl name='~basic_streambuf' filepath='/usr/bin/../lib/gcc/x86_64-linux-gnu/5.4.0/../../../../include/c++/5.4.0/streambuf' line='197' column='1' visibility='default' binding='global' size-in-bits='64'>
            <parameter type-id='type-id-106' is-artificial='yes'/>
            <return type-id='type-id-193'/>
          </function-decl>
        </member-function>
        <member-function access='public' destructor='yes' vtable-offset='0'>
          <function-decl name='~basic_streambuf' filepath='/usr/bin/../lib/gcc/x86_64-linux-gnu/5.4.0/../../../../include/c++/5.4.0/streambuf' line='197' column='1' visibility='default' binding='global' size-in-bits='64'>
            <parameter type-id='type-id-106' is-artificial='yes'/>
            <return type-id='type-id-193'/>
          </function-decl>
        </member-function>
        <member-function access='public' destructor='yes' vtable-offset='0'>
          <function-decl name='~basic_streambuf' filepath='/usr/bin/../lib/gcc/x86_64-linux-gnu/5.4.0/../../../../include/c++/5.4.0/streambuf' line='197' column='1' visibility='default' binding='global' size-in-bits='64'>
            <parameter type-id='type-id-106' is-artificial='yes'/>
            <return type-id='type-id-193'/>
          </function-decl>
        </member-function>
        <member-function access='public' destructor='yes' vtable-offset='0'>
          <function-decl name='~basic_streambuf' filepath='/usr/bin/../lib/gcc/x86_64-linux-gnu/5.4.0/../../../../include/c++/5.4.0/streambuf' line='197' column='1' visibility='default' binding='global' size-in-bits='64'>
            <parameter type-id='type-id-106' is-artificial='yes'/>
            <return type-id='type-id-193'/>
          </function-decl>
        </member-function>
        <member-function access='public' destructor='yes' vtable-offset='0'>
          <function-decl name='~basic_streambuf' filepath='/usr/bin/../lib/gcc/x86_64-linux-gnu/5.4.0/../../../../include/c++/5.4.0/streambuf' line='197' column='1' visibility='default' binding='global' size-in-bits='64'>
            <parameter type-id='type-id-106' is-artificial='yes'/>
            <return type-id='type-id-193'/>
          </function-decl>
        </member-function>
        <member-function access='public' destructor='yes' vtable-offset='0'>
          <function-decl name='~basic_streambuf' filepath='/usr/bin/../lib/gcc/x86_64-linux-gnu/5.4.0/../../../../include/c++/5.4.0/streambuf' line='197' column='1' visibility='default' binding='global' size-in-bits='64'>
            <parameter type-id='type-id-106' is-artificial='yes'/>
            <return type-id='type-id-193'/>
          </function-decl>
        </member-function>
        <member-function access='public' destructor='yes' vtable-offset='0'>
          <function-decl name='~basic_streambuf' filepath='/usr/bin/../lib/gcc/x86_64-linux-gnu/5.4.0/../../../../include/c++/5.4.0/streambuf' line='197' column='1' visibility='default' binding='global' size-in-bits='64'>
            <parameter type-id='type-id-106' is-artificial='yes'/>
            <return type-id='type-id-193'/>
          </function-decl>
        </member-function>
        <member-function access='public' destructor='yes' vtable-offset='0'>
          <function-decl name='~basic_streambuf' mangled-name='_ZNSt15basic_streambufIcSt11char_traitsIcEED2Ev' filepath='/usr/bin/../lib/gcc/x86_64-linux-gnu/5.4.0/../../../../include/c++/5.4.0/streambuf' line='197' column='1' visibility='default' binding='global' size-in-bits='64'>
            <parameter type-id='type-id-106' is-artificial='yes'/>
            <return type-id='type-id-193'/>
          </function-decl>
        </member-function>
      </class-decl>
      <enum-decl name='memory_order' naming-typedef-id='type-id-196' is-declaration-only='yes' id='type-id-197'>
        <underlying-type type-id='type-id-47'/>
      </enum-decl>
      <typedef-decl name='memory_order' type-id='type-id-197' filepath='/usr/bin/../lib/gcc/x86_64-linux-gnu/5.4.0/../../../../include/c++/5.4.0/bits/atomic_base.h' line='63' column='1' id='type-id-196'/>
      <typedef-decl name='ptrdiff_t' type-id='type-id-18' filepath='/usr/bin/../lib/gcc/x86_64-linux-gnu/5.4.0/../../../../include/x86_64-linux-gnu/c++/5.4.0/bits/c++config.h' line='197' column='1' id='type-id-198'/>
      <class-decl name='allocator_type' naming-typedef-id='type-id-180' visibility='default' is-declaration-only='yes' id='type-id-199'/>
      <class-decl name='__anonymous_struct__' is-anonymous='yes' visibility='default' is-declaration-only='yes' id='type-id-119'>
        <member-type access='private'>
          <typedef-decl name='pointer' type-id='type-id-201' filepath='/usr/bin/../lib/gcc/x86_64-linux-gnu/5.4.0/../../../../include/c++/5.4.0/bits/stl_vector.h' line='227' column='1' id='type-id-200'/>
        </member-type>
        <member-function access='public'>
          <function-decl name='size' mangled-name='_ZNKSt6vectorIhSaIhEE4sizeEv' filepath='/usr/bin/../lib/gcc/x86_64-linux-gnu/5.4.0/../../../../include/c++/5.4.0/bits/stl_vector.h' line='654' column='1' visibility='default' binding='global' size-in-bits='64'>
            <parameter type-id='type-id-166' is-artificial='yes'/>
            <return type-id='type-id-40'/>
          </function-decl>
        </member-function>
        <member-function access='public'>
          <function-decl name='resize' mangled-name='_ZNSt6vectorIhSaIhEE6resizeEm' filepath='/usr/bin/../lib/gcc/x86_64-linux-gnu/5.4.0/../../../../include/c++/5.4.0/bits/stl_vector.h' line='673' column='1' visibility='default' binding='global' size-in-bits='64'>
            <parameter type-id='type-id-120' is-artificial='yes'/>
            <parameter type-id='type-id-40'/>
            <return type-id='type-id-193'/>
          </function-decl>
        </member-function>
        <member-function access='public'>
          <function-decl name='data' mangled-name='_ZNSt6vectorIhSaIhEE4dataEv' filepath='/usr/bin/../lib/gcc/x86_64-linux-gnu/5.4.0/../../../../include/c++/5.4.0/bits/stl_vector.h' line='890' column='1' visibility='default' binding='global' size-in-bits='64'>
            <parameter type-id='type-id-120' is-artificial='yes'/>
            <return type-id='type-id-107'/>
          </function-decl>
        </member-function>
        <member-function access='protected'>
          <function-decl name='_M_erase_at_end' mangled-name='_ZNSt6vectorIhSaIhEE15_M_erase_at_endEPh' filepath='/usr/bin/../lib/gcc/x86_64-linux-gnu/5.4.0/../../../../include/c++/5.4.0/bits/stl_vector.h' line='1436' column='1' visibility='default' binding='global' size-in-bits='64'>
            <parameter type-id='type-id-120' is-artificial='yes'/>
            <parameter type-id='type-id-200'/>
            <return type-id='type-id-193'/>
          </function-decl>
        </member-function>
        <member-function access='protected'>
          <function-decl name='_M_check_len' mangled-name='_ZNKSt6vectorIhSaIhEE12_M_check_lenEmPKc' filepath='/usr/bin/../lib/gcc/x86_64-linux-gnu/5.4.0/../../../../include/c++/5.4.0/bits/stl_vector.h' line='1422' column='1' visibility='default' binding='global' size-in-bits='64'>
            <parameter type-id='type-id-166' is-artificial='yes'/>
            <parameter type-id='type-id-40'/>
            <parameter type-id='type-id-60'/>
            <return type-id='type-id-40'/>
          </function-decl>
        </member-function>
        <member-function access='protected'>
          <function-decl name='_M_default_append' mangled-name='_ZNSt6vectorIhSaIhEE17_M_default_appendEm' filepath='/usr/bin/../lib/gcc/x86_64-linux-gnu/5.4.0/../../../../include/c++/5.4.0/bits/stl_vector.h' line='1400' column='1' visibility='default' binding='global' size-in-bits='64' elf-symbol-id='_ZNSt6vectorIhSaIhEE17_M_default_appendEm'>
            <parameter type-id='type-id-120' is-artificial='yes'/>
            <parameter type-id='type-id-40'/>
            <return type-id='type-id-193'/>
          </function-decl>
        </member-function>
      </class-decl>
      <class-decl name='__anonymous_struct__8' is-anonymous='yes' visibility='default' is-declaration-only='yes' id='type-id-202'/>
      <class-decl name='__anonymous_struct__1' is-struct='yes' is-anonymous='yes' visibility='default' is-declaration-only='yes' id='type-id-185'>
        <member-type access='public'>
          <typedef-decl name='pointer' type-id='type-id-203' filepath='/usr/bin/../lib/gcc/x86_64-linux-gnu/5.4.0/../../../../include/c++/5.4.0/bits/stl_vector.h' line='77' column='1' id='type-id-201'/>
        </member-type>
        <member-function access='public'>
          <function-decl name='_M_allocate' mangled-name='_ZNSt12_Vector_baseIhSaIhEE11_M_allocateEm' filepath='/usr/bin/../lib/gcc/x86_64-linux-gnu/5.4.0/../../../../include/c++/5.4.0/bits/stl_vector.h' line='167' column='1' visibility='default' binding='global' size-in-bits='64'>
            <parameter type-id='type-id-186' is-artificial='yes'/>
            <parameter type-id='type-id-39'/>
            <return type-id='type-id-201'/>
          </function-decl>
        </member-function>
        <member-function access='public'>
          <function-decl name='_M_deallocate' mangled-name='_ZNSt12_Vector_baseIhSaIhEE13_M_deallocateEPhm' filepath='/usr/bin/../lib/gcc/x86_64-linux-gnu/5.4.0/../../../../include/c++/5.4.0/bits/stl_vector.h' line='174' column='1' visibility='default' binding='global' size-in-bits='64'>
            <parameter type-id='type-id-186' is-artificial='yes'/>
            <parameter type-id='type-id-201'/>
            <parameter type-id='type-id-39'/>
            <return type-id='type-id-193'/>
          </function-decl>
        </member-function>
      </class-decl>
      <class-decl name='__anonymous_struct__2' is-struct='yes' is-anonymous='yes' visibility='default' is-declaration-only='yes' id='type-id-204'>
        <member-type access='public'>
          <typedef-decl name='pointer' type-id='type-id-107' filepath='/usr/bin/../lib/gcc/x86_64-linux-gnu/5.4.0/../../../../include/c++/5.4.0/bits/alloc_traits.h' line='450' column='1' id='type-id-205'/>
        </member-type>
        <member-type access='public'>
          <typedef-decl name='allocator_type' type-id='type-id-199' filepath='/usr/bin/../lib/gcc/x86_64-linux-gnu/5.4.0/../../../../include/c++/5.4.0/bits/alloc_traits.h' line='445' column='1' id='type-id-180'/>
        </member-type>
        <member-function access='public' static='yes'>
          <function-decl name='allocate' mangled-name='_ZNSt16allocator_traitsISaIhEE8allocateERS0_m' filepath='/usr/bin/../lib/gcc/x86_64-linux-gnu/5.4.0/../../../../include/c++/5.4.0/bits/alloc_traits.h' line='490' column='1' visibility='default' binding='global' size-in-bits='64'>
            <parameter type-id='type-id-181'/>
            <parameter type-id='type-id-40'/>
            <return type-id='type-id-205'/>
          </function-decl>
        </member-function>
        <member-function access='public' static='yes'>
          <function-decl name='deallocate' mangled-name='_ZNSt16allocator_traitsISaIhEE10deallocateERS0_Phm' filepath='/usr/bin/../lib/gcc/x86_64-linux-gnu/5.4.0/../../../../include/c++/5.4.0/bits/alloc_traits.h' line='516' column='1' visibility='default' binding='global' size-in-bits='64'>
            <parameter type-id='type-id-181'/>
            <parameter type-id='type-id-205'/>
            <parameter type-id='type-id-40'/>
            <return type-id='type-id-193'/>
          </function-decl>
        </member-function>
      </class-decl>
      <class-decl name='__anonymous_struct__3' is-struct='yes' is-anonymous='yes' visibility='default' is-declaration-only='yes' id='type-id-173'>
        <member-type access='public'>
          <typedef-decl name='__int_type' type-id='type-id-45' filepath='/usr/bin/../lib/gcc/x86_64-linux-gnu/5.4.0/../../../../include/c++/5.4.0/bits/atomic_base.h' line='241' column='1' id='type-id-206'/>
        </member-type>
        <member-function access='public'>
          <function-decl name='__atomic_base' mangled-name='_ZNSt13__atomic_baseIjEC2Ej' filepath='/usr/bin/../lib/gcc/x86_64-linux-gnu/5.4.0/../../../../include/c++/5.4.0/bits/atomic_base.h' line='256' column='1' visibility='default' binding='global' size-in-bits='64'>
            <parameter type-id='type-id-182' is-artificial='yes'/>
            <parameter type-id='type-id-206'/>
            <return type-id='type-id-193'/>
          </function-decl>
        </member-function>
        <member-function access='public'>
          <function-decl name='fetch_sub' mangled-name='_ZNSt13__atomic_baseIjE9fetch_subEjSt12memory_order' filepath='/usr/bin/../lib/gcc/x86_64-linux-gnu/5.4.0/../../../../include/c++/5.4.0/bits/atomic_base.h' line='522' column='1' visibility='default' binding='global' size-in-bits='64'>
            <parameter type-id='type-id-182' is-artificial='yes'/>
            <parameter type-id='type-id-206'/>
            <parameter type-id='type-id-196'/>
            <return type-id='type-id-206'/>
          </function-decl>
        </member-function>
        <member-function access='public'>
          <function-decl name='load' mangled-name='_ZNKSt13__atomic_baseIjE4loadESt12memory_order' filepath='/usr/bin/../lib/gcc/x86_64-linux-gnu/5.4.0/../../../../include/c++/5.4.0/bits/atomic_base.h' line='390' column='1' visibility='default' binding='global' size-in-bits='64'>
            <parameter type-id='type-id-175' is-artificial='yes'/>
            <parameter type-id='type-id-196'/>
            <return type-id='type-id-206'/>
          </function-decl>
        </member-function>
      </class-decl>
      <class-decl name='__anonymous_struct__4' is-struct='yes' is-anonymous='yes' visibility='default' is-declaration-only='yes' id='type-id-183'>
        <member-type access='public'>
          <typedef-decl name='__integral_type' type-id='type-id-45' filepath='/usr/bin/../lib/gcc/x86_64-linux-gnu/5.4.0/../../../../include/c++/5.4.0/atomic' line='626' column='1' id='type-id-207'/>
        </member-type>
        <member-function access='public'>
          <function-decl name='atomic' mangled-name='_ZNSt6atomicIjEC2Ej' filepath='/usr/bin/../lib/gcc/x86_64-linux-gnu/5.4.0/../../../../include/c++/5.4.0/atomic' line='635' column='1' visibility='default' binding='global' size-in-bits='64'>
            <parameter type-id='type-id-184' is-artificial='yes'/>
            <parameter type-id='type-id-207'/>
            <return type-id='type-id-193'/>
          </function-decl>
        </member-function>
      </class-decl>
      <class-decl name='__anonymous_struct__5' is-struct='yes' is-anonymous='yes' visibility='default' is-declaration-only='yes' id='type-id-208'>
        <member-function access='public' static='yes'>
          <function-decl name='__uninit_default_n&lt;unsigned char *, unsigned long&gt;' mangled-name='_ZNSt27__uninitialized_default_n_1ILb1EE18__uninit_default_nIPhmEET_S3_T0_' filepath='/usr/bin/../lib/gcc/x86_64-linux-gnu/5.4.0/../../../../include/c++/5.4.0/bits/stl_uninitialized.h' line='535' column='1' visibility='default' binding='global' size-in-bits='64'>
            <parameter type-id='type-id-107'/>
            <parameter type-id='type-id-38'/>
            <return type-id='type-id-107'/>
          </function-decl>
        </member-function>
      </class-decl>
      <class-decl name='__anonymous_struct__6' is-struct='yes' is-anonymous='yes' visibility='default' is-declaration-only='yes' id='type-id-209'>
        <member-function access='public' static='yes'>
          <function-decl name='__copy_m&lt;unsigned char&gt;' mangled-name='_ZNSt11__copy_moveILb1ELb1ESt26random_access_iterator_tagE8__copy_mIhEEPT_PKS3_S6_S4_' filepath='/usr/bin/../lib/gcc/x86_64-linux-gnu/5.4.0/../../../../include/c++/5.4.0/bits/stl_algobase.h' line='373' column='1' visibility='default' binding='global' size-in-bits='64'>
            <parameter type-id='type-id-80'/>
            <parameter type-id='type-id-80'/>
            <parameter type-id='type-id-107'/>
            <return type-id='type-id-107'/>
          </function-decl>
        </member-function>
      </class-decl>
      <class-decl name='__anonymous_struct__7' is-struct='yes' is-anonymous='yes' visibility='default' is-declaration-only='yes' id='type-id-210'>
        <member-function access='public' static='yes'>
          <function-decl name='__uninit_copy&lt;std::move_iterator&lt;unsigned char *&gt;, unsigned char *&gt;' mangled-name='_ZNSt20__uninitialized_copyILb1EE13__uninit_copyISt13move_iteratorIPhES3_EET0_T_S6_S5_' filepath='/usr/bin/../lib/gcc/x86_64-linux-gnu/5.4.0/../../../../include/c++/5.4.0/bits/stl_uninitialized.h' line='91' column='1' visibility='default' binding='global' size-in-bits='64'>
            <parameter type-id='type-id-202'/>
            <parameter type-id='type-id-202'/>
            <parameter type-id='type-id-107'/>
            <return type-id='type-id-107'/>
          </function-decl>
        </member-function>
      </class-decl>
      <class-decl name='__anonymous_struct__9' is-struct='yes' is-anonymous='yes' visibility='default' is-declaration-only='yes' id='type-id-211'>
        <member-type access='public'>
          <typedef-decl name='allocator_type' type-id='type-id-190' filepath='/usr/bin/../lib/gcc/x86_64-linux-gnu/5.4.0/../../../../include/c++/5.4.0/bits/alloc_traits.h' line='445' column='1' id='type-id-95'/>
        </member-type>
        <member-type access='public'>
          <typedef-decl name='const_pointer' type-id='type-id-60' filepath='/usr/bin/../lib/gcc/x86_64-linux-gnu/5.4.0/../../../../include/c++/5.4.0/bits/alloc_traits.h' line='453' column='1' id='type-id-212'/>
        </member-type>
        <member-type access='public'>
          <typedef-decl name='pointer' type-id='type-id-55' filepath='/usr/bin/../lib/gcc/x86_64-linux-gnu/5.4.0/../../../../include/c++/5.4.0/bits/alloc_traits.h' line='450' column='1' id='type-id-213'/>
        </member-type>
        <member-function access='public' static='yes'>
          <function-decl name='deallocate' mangled-name='_ZNSt16allocator_traitsISaIcEE10deallocateERS0_Pcm' filepath='/usr/bin/../lib/gcc/x86_64-linux-gnu/5.4.0/../../../../include/c++/5.4.0/bits/alloc_traits.h' line='516' column='1' visibility='default' binding='global' size-in-bits='64'>
            <parameter type-id='type-id-96'/>
            <parameter type-id='type-id-213'/>
            <parameter type-id='type-id-40'/>
            <return type-id='type-id-193'/>
          </function-decl>
        </member-function>
      </class-decl>
      <namespace-decl name='__cxx11'>
        <class-decl name='basic_string&lt;char, std::char_traits&lt;char&gt;, std::allocator&lt;char&gt; &gt;' size-in-bits='256' visibility='default' id='type-id-73'>
          <member-type access='private'>
            <typedef-decl name='const_pointer' type-id='type-id-215' filepath='/usr/bin/../lib/gcc/x86_64-linux-gnu/5.4.0/../../../../include/c++/5.4.0/bits/basic_string.h' line='87' column='1' id='type-id-214'/>
          </member-type>
          <member-type access='private'>
            <typedef-decl name='pointer' type-id='type-id-217' filepath='/usr/bin/../lib/gcc/x86_64-linux-gnu/5.4.0/../../../../include/c++/5.4.0/bits/basic_string.h' line='86' column='1' id='type-id-216'/>
          </member-type>
          <member-type access='private'>
            <typedef-decl name='size_type' type-id='type-id-219' filepath='/usr/bin/../lib/gcc/x86_64-linux-gnu/5.4.0/../../../../include/c++/5.4.0/bits/basic_string.h' line='82' column='1' id='type-id-218'/>
          </member-type>
          <member-type access='private'>
            <class-decl name='__anonymous_struct__' is-struct='yes' is-anonymous='yes' visibility='default' is-declaration-only='yes' id='type-id-220'>
              <member-function access='public'>
                <function-decl name='_Alloc_hider' mangled-name='_ZNSt7__cxx1112basic_stringIcSt11char_traitsIcESaIcEE12_Alloc_hiderC2EPcRKS3_' filepath='/usr/bin/../lib/gcc/x86_64-linux-gnu/5.4.0/../../../../include/c++/5.4.0/bits/basic_string.h' line='108' column='1' visibility='default' binding='global' size-in-bits='64'>
                  <parameter type-id='type-id-221' is-artificial='yes'/>
                  <parameter type-id='type-id-216'/>
                  <parameter type-id='type-id-222'/>
                  <return type-id='type-id-193'/>
                </function-decl>
              </member-function>
            </class-decl>
          </member-type>
          <member-type access='private'>
            <class-decl name='__anonymous_struct__1' is-struct='yes' is-anonymous='yes' visibility='default' is-declaration-only='yes' id='type-id-223'>
              <member-function access='public'>
                <function-decl name='_Alloc_hider' mangled-name='_ZNSt7__cxx1112basic_stringIcSt11char_traitsIcESaIcEE12_Alloc_hiderC2EPcRKS3_' filepath='/usr/bin/../lib/gcc/x86_64-linux-gnu/5.4.0/../../../../include/c++/5.4.0/bits/basic_string.h' line='108' column='1' visibility='default' binding='global' size-in-bits='64'>
                  <parameter type-id='type-id-224' is-artificial='yes'/>
                  <parameter type-id='type-id-216'/>
                  <parameter type-id='type-id-222'/>
                  <return type-id='type-id-193'/>
                </function-decl>
              </member-function>
            </class-decl>
          </member-type>
          <member-type access='private'>
            <class-decl name='__anonymous_struct__2' is-struct='yes' is-anonymous='yes' visibility='default' is-declaration-only='yes' id='type-id-225'>
              <member-function access='public'>
                <function-decl name='_Alloc_hider' mangled-name='_ZNSt7__cxx1112basic_stringIcSt11char_traitsIcESaIcEE12_Alloc_hiderC2EPcRKS3_' filepath='/usr/bin/../lib/gcc/x86_64-linux-gnu/5.4.0/../../../../include/c++/5.4.0/bits/basic_string.h' line='108' column='1' visibility='default' binding='global' size-in-bits='64'>
                  <parameter type-id='type-id-226' is-artificial='yes'/>
                  <parameter type-id='type-id-216'/>
                  <parameter type-id='type-id-222'/>
                  <return type-id='type-id-193'/>
                </function-decl>
              </member-function>
            </class-decl>
          </member-type>
          <member-type access='private'>
            <class-decl name='__anonymous_struct__3' is-struct='yes' is-anonymous='yes' visibility='default' is-declaration-only='yes' id='type-id-227'>
              <member-function access='public'>
                <function-decl name='_Alloc_hider' mangled-name='_ZNSt7__cxx1112basic_stringIcSt11char_traitsIcESaIcEE12_Alloc_hiderC2EPcRKS3_' filepath='/usr/bin/../lib/gcc/x86_64-linux-gnu/5.4.0/../../../../include/c++/5.4.0/bits/basic_string.h' line='108' column='1' visibility='default' binding='global' size-in-bits='64'>
                  <parameter type-id='type-id-228' is-artificial='yes'/>
                  <parameter type-id='type-id-216'/>
                  <parameter type-id='type-id-222'/>
                  <return type-id='type-id-193'/>
                </function-decl>
              </member-function>
            </class-decl>
          </member-type>
          <member-function access='public' destructor='yes'>
            <function-decl name='~basic_string' mangled-name='_ZNSt7__cxx1112basic_stringIcSt11char_traitsIcESaIcEED2Ev' filepath='/usr/bin/../lib/gcc/x86_64-linux-gnu/5.4.0/../../../../include/c++/5.4.0/bits/basic_string.h' line='542' column='1' visibility='default' binding='global' size-in-bits='64'>
              <parameter type-id='type-id-97' is-artificial='yes'/>
              <return type-id='type-id-193'/>
            </function-decl>
          </member-function>
          <member-function access='private'>
            <function-decl name='_M_data' mangled-name='_ZNKSt7__cxx1112basic_stringIcSt11char_traitsIcESaIcEE7_M_dataEv' filepath='/usr/bin/../lib/gcc/x86_64-linux-gnu/5.4.0/../../../../include/c++/5.4.0/bits/basic_string.h' line='134' column='1' visibility='default' binding='global' size-in-bits='64'>
              <parameter type-id='type-id-75' is-artificial='yes'/>
              <return type-id='type-id-216'/>
            </function-decl>
          </member-function>
          <member-function access='public'>
            <function-decl name='c_str' mangled-name='_ZNKSt7__cxx1112basic_stringIcSt11char_traitsIcESaIcEE5c_strEv' filepath='/usr/bin/../lib/gcc/x86_64-linux-gnu/5.4.0/../../../../include/c++/5.4.0/bits/basic_string.h' line='1887' column='1' visibility='default' binding='global' size-in-bits='64'>
              <parameter type-id='type-id-75' is-artificial='yes'/>
              <return type-id='type-id-60'/>
            </function-decl>
          </member-function>
          <member-function access='private'>
            <function-decl name='_M_is_local' mangled-name='_ZNKSt7__cxx1112basic_stringIcSt11char_traitsIcESaIcEE11_M_is_localEv' filepath='/usr/bin/../lib/gcc/x86_64-linux-gnu/5.4.0/../../../../include/c++/5.4.0/bits/basic_string.h' line='169' column='1' visibility='default' binding='global' size-in-bits='64'>
              <parameter type-id='type-id-75' is-artificial='yes'/>
              <return type-id='type-id-1'/>
            </function-decl>
          </member-function>
          <member-function access='private'>
            <function-decl name='_M_dispose' mangled-name='_ZNSt7__cxx1112basic_stringIcSt11char_traitsIcESaIcEE10_M_disposeEv' filepath='/usr/bin/../lib/gcc/x86_64-linux-gnu/5.4.0/../../../../include/c++/5.4.0/bits/basic_string.h' line='177' column='1' visibility='default' binding='global' size-in-bits='64'>
              <parameter type-id='type-id-97' is-artificial='yes'/>
              <return type-id='type-id-193'/>
            </function-decl>
          </member-function>
          <member-function access='private'>
            <function-decl name='_M_local_data' mangled-name='_ZNKSt7__cxx1112basic_stringIcSt11char_traitsIcESaIcEE13_M_local_dataEv' filepath='/usr/bin/../lib/gcc/x86_64-linux-gnu/5.4.0/../../../../include/c++/5.4.0/bits/basic_string.h' line='148' column='1' visibility='default' binding='global' size-in-bits='64'>
              <parameter type-id='type-id-75' is-artificial='yes'/>
              <return type-id='type-id-214'/>
            </function-decl>
          </member-function>
          <member-function access='private'>
            <function-decl name='_M_destroy' mangled-name='_ZNSt7__cxx1112basic_stringIcSt11char_traitsIcESaIcEE10_M_destroyEm' filepath='/usr/bin/../lib/gcc/x86_64-linux-gnu/5.4.0/../../../../include/c++/5.4.0/bits/basic_string.h' line='184' column='1' visibility='default' binding='global' size-in-bits='64'>
              <parameter type-id='type-id-97' is-artificial='yes'/>
              <parameter type-id='type-id-218'/>
              <return type-id='type-id-193'/>
            </function-decl>
          </member-function>
          <member-function access='public' destructor='yes'>
            <function-decl name='~basic_string' filepath='/usr/bin/../lib/gcc/x86_64-linux-gnu/5.4.0/../../../../include/c++/5.4.0/bits/basic_string.h' line='542' column='1' visibility='default' binding='global' size-in-bits='64'>
              <parameter type-id='type-id-97' is-artificial='yes'/>
              <return type-id='type-id-193'/>
            </function-decl>
          </member-function>
          <member-function access='public'>
            <function-decl name='data' mangled-name='_ZNKSt7__cxx1112basic_stringIcSt11char_traitsIcESaIcEE4dataEv' filepath='/usr/bin/../lib/gcc/x86_64-linux-gnu/5.4.0/../../../../include/c++/5.4.0/bits/basic_string.h' line='1897' column='1' visibility='default' binding='global' size-in-bits='64'>
              <parameter type-id='type-id-75' is-artificial='yes'/>
              <return type-id='type-id-60'/>
            </function-decl>
          </member-function>
          <member-function access='public'>
            <function-decl name='length' mangled-name='_ZNKSt7__cxx1112basic_stringIcSt11char_traitsIcESaIcEE6lengthEv' filepath='/usr/bin/../lib/gcc/x86_64-linux-gnu/5.4.0/../../../../include/c++/5.4.0/bits/basic_string.h' line='721' column='1' visibility='default' binding='global' size-in-bits='64'>
              <parameter type-id='type-id-75' is-artificial='yes'/>
              <return type-id='type-id-218'/>
            </function-decl>
          </member-function>
          <member-function access='public' destructor='yes'>
            <function-decl name='~basic_string' filepath='/usr/bin/../lib/gcc/x86_64-linux-gnu/5.4.0/../../../../include/c++/5.4.0/bits/basic_string.h' line='542' column='1' visibility='default' binding='global' size-in-bits='64'>
              <parameter type-id='type-id-97' is-artificial='yes'/>
              <return type-id='type-id-193'/>
            </function-decl>
          </member-function>
          <member-function access='public' destructor='yes'>
            <function-decl name='~basic_string' filepath='/usr/bin/../lib/gcc/x86_64-linux-gnu/5.4.0/../../../../include/c++/5.4.0/bits/basic_string.h' line='542' column='1' visibility='default' binding='global' size-in-bits='64'>
              <parameter type-id='type-id-97' is-artificial='yes'/>
              <return type-id='type-id-193'/>
            </function-decl>
          </member-function>
          <member-function access='public'>
            <function-decl name='empty' mangled-name='_ZNKSt7__cxx1112basic_stringIcSt11char_traitsIcESaIcEE5emptyEv' filepath='/usr/bin/../lib/gcc/x86_64-linux-gnu/5.4.0/../../../../include/c++/5.4.0/bits/basic_string.h' line='816' column='1' visibility='default' binding='global' size-in-bits='64'>
              <parameter type-id='type-id-75' is-artificial='yes'/>
              <return type-id='type-id-1'/>
            </function-decl>
          </member-function>
          <member-function access='public'>
            <function-decl name='assign' mangled-name='_ZNSt7__cxx1112basic_stringIcSt11char_traitsIcESaIcEE6assignERKS4_' filepath='/usr/bin/../lib/gcc/x86_64-linux-gnu/5.4.0/../../../../include/c++/5.4.0/bits/basic_string.h' line='1093' column='1' visibility='default' binding='global' size-in-bits='64'>
              <parameter type-id='type-id-97' is-artificial='yes'/>
              <parameter type-id='type-id-229'/>
              <return type-id='type-id-230'/>
            </function-decl>
          </member-function>
          <member-function access='public'>
            <function-decl name='operator=' mangled-name='_ZNSt7__cxx1112basic_stringIcSt11char_traitsIcESaIcEEaSERKS4_' filepath='/usr/bin/../lib/gcc/x86_64-linux-gnu/5.4.0/../../../../include/c++/5.4.0/bits/basic_string.h' line='550' column='1' visibility='default' binding='global' size-in-bits='64'>
              <parameter type-id='type-id-97' is-artificial='yes'/>
              <parameter type-id='type-id-229'/>
              <return type-id='type-id-230'/>
            </function-decl>
          </member-function>
          <member-function access='public'>
            <function-decl name='size' mangled-name='_ZNKSt7__cxx1112basic_stringIcSt11char_traitsIcESaIcEE4sizeEv' filepath='/usr/bin/../lib/gcc/x86_64-linux-gnu/5.4.0/../../../../include/c++/5.4.0/bits/basic_string.h' line='715' column='1' visibility='default' binding='global' size-in-bits='64'>
              <parameter type-id='type-id-75' is-artificial='yes'/>
              <return type-id='type-id-218'/>
            </function-decl>
          </member-function>
          <member-function access='public' destructor='yes'>
            <function-decl name='~basic_string' filepath='/usr/bin/../lib/gcc/x86_64-linux-gnu/5.4.0/../../../../include/c++/5.4.0/bits/basic_string.h' line='542' column='1' visibility='default' binding='global' size-in-bits='64'>
              <parameter type-id='type-id-97' is-artificial='yes'/>
              <return type-id='type-id-193'/>
            </function-decl>
          </member-function>
          <member-function access='public'>
            <function-decl name='basic_string' mangled-name='_ZNSt7__cxx1112basic_stringIcSt11char_traitsIcESaIcEEC2Ev' filepath='/usr/bin/../lib/gcc/x86_64-linux-gnu/5.4.0/../../../../include/c++/5.4.0/bits/basic_string.h' line='379' column='1' visibility='default' binding='global' size-in-bits='64'>
              <parameter type-id='type-id-97' is-artificial='yes'/>
              <return type-id='type-id-193'/>
            </function-decl>
          </member-function>
          <member-function access='public'>
            <function-decl name='basic_string' mangled-name='_ZNSt7__cxx1112basic_stringIcSt11char_traitsIcESaIcEEC2ERKS4_' filepath='/usr/bin/../lib/gcc/x86_64-linux-gnu/5.4.0/../../../../include/c++/5.4.0/bits/basic_string.h' line='398' column='1' visibility='default' binding='global' size-in-bits='64'>
              <parameter type-id='type-id-97' is-artificial='yes'/>
              <parameter type-id='type-id-229'/>
              <return type-id='type-id-193'/>
            </function-decl>
          </member-function>
          <member-function access='public' destructor='yes'>
            <function-decl name='~basic_string' filepath='/usr/bin/../lib/gcc/x86_64-linux-gnu/5.4.0/../../../../include/c++/5.4.0/bits/basic_string.h' line='542' column='1' visibility='default' binding='global' size-in-bits='64'>
              <parameter type-id='type-id-97' is-artificial='yes'/>
              <return type-id='type-id-193'/>
            </function-decl>
          </member-function>
          <member-function access='public'>
            <function-decl name='basic_string' mangled-name='_ZNSt7__cxx1112basic_stringIcSt11char_traitsIcESaIcEEC2EPKcRKS3_' filepath='/usr/bin/../lib/gcc/x86_64-linux-gnu/5.4.0/../../../../include/c++/5.4.0/bits/basic_string.h' line='454' column='1' visibility='default' binding='global' size-in-bits='64'>
              <parameter type-id='type-id-97' is-artificial='yes'/>
              <parameter type-id='type-id-60'/>
              <parameter type-id='type-id-222'/>
              <return type-id='type-id-193'/>
            </function-decl>
          </member-function>
          <member-function access='public'>
            <function-decl name='basic_string' mangled-name='_ZNSt7__cxx1112basic_stringIcSt11char_traitsIcESaIcEEC2EPKcmRKS3_' filepath='/usr/bin/../lib/gcc/x86_64-linux-gnu/5.4.0/../../../../include/c++/5.4.0/bits/basic_string.h' line='444' column='1' visibility='default' binding='global' size-in-bits='64'>
              <parameter type-id='type-id-97' is-artificial='yes'/>
              <parameter type-id='type-id-60'/>
              <parameter type-id='type-id-218'/>
              <parameter type-id='type-id-222'/>
              <return type-id='type-id-193'/>
            </function-decl>
          </member-function>
          <member-function access='public'>
            <function-decl name='basic_string' mangled-name='_ZNSt7__cxx1112basic_stringIcSt11char_traitsIcESaIcEEC2EOS4_' filepath='/usr/bin/../lib/gcc/x86_64-linux-gnu/5.4.0/../../../../include/c++/5.4.0/bits/basic_string.h' line='476' column='1' visibility='default' binding='global' size-in-bits='64'>
              <parameter type-id='type-id-97' is-artificial='yes'/>
              <parameter type-id='type-id-231'/>
              <return type-id='type-id-193'/>
            </function-decl>
          </member-function>
          <member-function access='private'>
            <function-decl name='_M_local_data' mangled-name='_ZNSt7__cxx1112basic_stringIcSt11char_traitsIcESaIcEE13_M_local_dataEv' filepath='/usr/bin/../lib/gcc/x86_64-linux-gnu/5.4.0/../../../../include/c++/5.4.0/bits/basic_string.h' line='138' column='1' visibility='default' binding='global' size-in-bits='64'>
              <parameter type-id='type-id-97' is-artificial='yes'/>
              <return type-id='type-id-216'/>
            </function-decl>
          </member-function>
          <member-function access='private'>
            <function-decl name='_M_length' mangled-name='_ZNSt7__cxx1112basic_stringIcSt11char_traitsIcESaIcEE9_M_lengthEm' filepath='/usr/bin/../lib/gcc/x86_64-linux-gnu/5.4.0/../../../../include/c++/5.4.0/bits/basic_string.h' line='130' column='1' visibility='default' binding='global' size-in-bits='64'>
              <parameter type-id='type-id-97' is-artificial='yes'/>
              <parameter type-id='type-id-218'/>
              <return type-id='type-id-193'/>
            </function-decl>
          </member-function>
          <member-function access='private'>
            <function-decl name='_M_set_length' mangled-name='_ZNSt7__cxx1112basic_stringIcSt11char_traitsIcESaIcEE13_M_set_lengthEm' filepath='/usr/bin/../lib/gcc/x86_64-linux-gnu/5.4.0/../../../../include/c++/5.4.0/bits/basic_string.h' line='162' column='1' visibility='default' binding='global' size-in-bits='64'>
              <parameter type-id='type-id-97' is-artificial='yes'/>
              <parameter type-id='type-id-218'/>
              <return type-id='type-id-193'/>
            </function-decl>
          </member-function>
          <member-function access='private'>
            <function-decl name='_M_construct&lt;char *&gt;' mangled-name='_ZNSt7__cxx1112basic_stringIcSt11char_traitsIcESaIcEE12_M_constructIPcEEvT_S7_St20forward_iterator_tag' filepath='/usr/bin/../lib/gcc/x86_64-linux-gnu/5.4.0/../../../../include/c++/5.4.0/bits/basic_string.h' line='227' column='1' visibility='default' binding='global' size-in-bits='64'>
              <parameter type-id='type-id-97' is-artificial='yes'/>
              <parameter type-id='type-id-55'/>
              <parameter type-id='type-id-55'/>
              <parameter type-id='type-id-232'/>
              <return type-id='type-id-193'/>
            </function-decl>
          </member-function>
          <member-function access='private'>
            <function-decl name='_M_construct_aux&lt;char *&gt;' mangled-name='_ZNSt7__cxx1112basic_stringIcSt11char_traitsIcESaIcEE16_M_construct_auxIPcEEvT_S7_St12__false_type' filepath='/usr/bin/../lib/gcc/x86_64-linux-gnu/5.4.0/../../../../include/c++/5.4.0/bits/basic_string.h' line='191' column='1' visibility='default' binding='global' size-in-bits='64'>
              <parameter type-id='type-id-97' is-artificial='yes'/>
              <parameter type-id='type-id-55'/>
              <parameter type-id='type-id-55'/>
              <parameter type-id='type-id-233'/>
              <return type-id='type-id-193'/>
            </function-decl>
          </member-function>
          <member-function access='private'>
            <function-decl name='_M_construct&lt;char *&gt;' mangled-name='_ZNSt7__cxx1112basic_stringIcSt11char_traitsIcESaIcEE12_M_constructIPcEEvT_S7_' filepath='/usr/bin/../lib/gcc/x86_64-linux-gnu/5.4.0/../../../../include/c++/5.4.0/bits/basic_string.h' line='211' column='1' visibility='default' binding='global' size-in-bits='64'>
              <parameter type-id='type-id-97' is-artificial='yes'/>
              <parameter type-id='type-id-55'/>
              <parameter type-id='type-id-55'/>
              <return type-id='type-id-193'/>
            </function-decl>
          </member-function>
          <member-function access='private'>
            <function-decl name='_M_data' mangled-name='_ZNSt7__cxx1112basic_stringIcSt11char_traitsIcESaIcEE7_M_dataEPc' filepath='/usr/bin/../lib/gcc/x86_64-linux-gnu/5.4.0/../../../../include/c++/5.4.0/bits/basic_string.h' line='126' column='1' visibility='default' binding='global' size-in-bits='64'>
              <parameter type-id='type-id-97' is-artificial='yes'/>
              <parameter type-id='type-id-216'/>
              <return type-id='type-id-193'/>
            </function-decl>
          </member-function>
          <member-function access='private'>
            <function-decl name='_M_capacity' mangled-name='_ZNSt7__cxx1112basic_stringIcSt11char_traitsIcESaIcEE11_M_capacityEm' filepath='/usr/bin/../lib/gcc/x86_64-linux-gnu/5.4.0/../../../../include/c++/5.4.0/bits/basic_string.h' line='158' column='1' visibility='default' binding='global' size-in-bits='64'>
              <parameter type-id='type-id-97' is-artificial='yes'/>
              <parameter type-id='type-id-218'/>
              <return type-id='type-id-193'/>
            </function-decl>
          </member-function>
          <member-function access='private' static='yes'>
            <function-decl name='_S_copy' mangled-name='_ZNSt7__cxx1112basic_stringIcSt11char_traitsIcESaIcEE7_S_copyEPcPKcm' filepath='/usr/bin/../lib/gcc/x86_64-linux-gnu/5.4.0/../../../../include/c++/5.4.0/bits/basic_string.h' line='294' column='1' visibility='default' binding='global' size-in-bits='64'>
              <parameter type-id='type-id-55'/>
              <parameter type-id='type-id-60'/>
              <parameter type-id='type-id-218'/>
              <return type-id='type-id-193'/>
            </function-decl>
          </member-function>
          <member-function access='private' static='yes'>
            <function-decl name='_S_copy_chars' mangled-name='_ZNSt7__cxx1112basic_stringIcSt11char_traitsIcESaIcEE13_S_copy_charsEPcS5_S5_' filepath='/usr/bin/../lib/gcc/x86_64-linux-gnu/5.4.0/../../../../include/c++/5.4.0/bits/basic_string.h' line='340' column='1' visibility='default' binding='global' size-in-bits='64'>
              <parameter type-id='type-id-55'/>
              <parameter type-id='type-id-55'/>
              <parameter type-id='type-id-55'/>
              <return type-id='type-id-193'/>
            </function-decl>
          </member-function>
          <member-function access='public'>
            <function-decl name='operator=' mangled-name='_ZNSt7__cxx1112basic_stringIcSt11char_traitsIcESaIcEEaSEOS4_' filepath='/usr/bin/../lib/gcc/x86_64-linux-gnu/5.4.0/../../../../include/c++/5.4.0/bits/basic_string.h' line='587' column='1' visibility='default' binding='global' size-in-bits='64'>
              <parameter type-id='type-id-97' is-artificial='yes'/>
              <parameter type-id='type-id-231'/>
              <return type-id='type-id-230'/>
            </function-decl>
          </member-function>
          <member-function access='private'>
            <function-decl name='_M_construct&lt;const char *&gt;' mangled-name='_ZNSt7__cxx1112basic_stringIcSt11char_traitsIcESaIcEE12_M_constructIPKcEEvT_S8_St20forward_iterator_tag' filepath='/usr/bin/../lib/gcc/x86_64-linux-gnu/5.4.0/../../../../include/c++/5.4.0/bits/basic_string.h' line='227' column='1' visibility='default' binding='global' size-in-bits='64'>
              <parameter type-id='type-id-97' is-artificial='yes'/>
              <parameter type-id='type-id-60'/>
              <parameter type-id='type-id-60'/>
              <parameter type-id='type-id-232'/>
              <return type-id='type-id-193'/>
            </function-decl>
          </member-function>
          <member-function access='private'>
            <function-decl name='_M_construct_aux&lt;const char *&gt;' mangled-name='_ZNSt7__cxx1112basic_stringIcSt11char_traitsIcESaIcEE16_M_construct_auxIPKcEEvT_S8_St12__false_type' filepath='/usr/bin/../lib/gcc/x86_64-linux-gnu/5.4.0/../../../../include/c++/5.4.0/bits/basic_string.h' line='191' column='1' visibility='default' binding='global' size-in-bits='64'>
              <parameter type-id='type-id-97' is-artificial='yes'/>
              <parameter type-id='type-id-60'/>
              <parameter type-id='type-id-60'/>
              <parameter type-id='type-id-233'/>
              <return type-id='type-id-193'/>
            </function-decl>
          </member-function>
          <member-function access='private'>
            <function-decl name='_M_construct&lt;const char *&gt;' mangled-name='_ZNSt7__cxx1112basic_stringIcSt11char_traitsIcESaIcEE12_M_constructIPKcEEvT_S8_' filepath='/usr/bin/../lib/gcc/x86_64-linux-gnu/5.4.0/../../../../include/c++/5.4.0/bits/basic_string.h' line='211' column='1' visibility='default' binding='global' size-in-bits='64'>
              <parameter type-id='type-id-97' is-artificial='yes'/>
              <parameter type-id='type-id-60'/>
              <parameter type-id='type-id-60'/>
              <return type-id='type-id-193'/>
            </function-decl>
          </member-function>
          <member-function access='private' static='yes'>
            <function-decl name='_S_copy_chars' mangled-name='_ZNSt7__cxx1112basic_stringIcSt11char_traitsIcESaIcEE13_S_copy_charsEPcPKcS7_' filepath='/usr/bin/../lib/gcc/x86_64-linux-gnu/5.4.0/../../../../include/c++/5.4.0/bits/basic_string.h' line='344' column='1' visibility='default' binding='global' size-in-bits='64'>
              <parameter type-id='type-id-55'/>
              <parameter type-id='type-id-60'/>
              <parameter type-id='type-id-60'/>
              <return type-id='type-id-193'/>
            </function-decl>
          </member-function>
          <member-function access='public'>
            <function-decl name='append' mangled-name='_ZNSt7__cxx1112basic_stringIcSt11char_traitsIcESaIcEE6appendERKS4_' filepath='/usr/bin/../lib/gcc/x86_64-linux-gnu/5.4.0/../../../../include/c++/5.4.0/bits/basic_string.h' line='982' column='1' visibility='default' binding='global' size-in-bits='64'>
              <parameter type-id='type-id-97' is-artificial='yes'/>
              <parameter type-id='type-id-229'/>
              <return type-id='type-id-230'/>
            </function-decl>
          </member-function>
          <member-function access='public'>
            <function-decl name='operator+=' mangled-name='_ZNSt7__cxx1112basic_stringIcSt11char_traitsIcESaIcEEpLERKS4_' filepath='/usr/bin/../lib/gcc/x86_64-linux-gnu/5.4.0/../../../../include/c++/5.4.0/bits/basic_string.h' line='941' column='1' visibility='default' binding='global' size-in-bits='64'>
              <parameter type-id='type-id-97' is-artificial='yes'/>
              <parameter type-id='type-id-229'/>
              <return type-id='type-id-230'/>
            </function-decl>
          </member-function>
          <member-function access='public'>
            <function-decl name='append' mangled-name='_ZNSt7__cxx1112basic_stringIcSt11char_traitsIcESaIcEE6appendEPKc' filepath='/usr/bin/../lib/gcc/x86_64-linux-gnu/5.4.0/../../../../include/c++/5.4.0/bits/basic_string.h' line='1024' column='1' visibility='default' binding='global' size-in-bits='64'>
              <parameter type-id='type-id-97' is-artificial='yes'/>
              <parameter type-id='type-id-60'/>
              <return type-id='type-id-230'/>
            </function-decl>
          </member-function>
          <member-function access='private'>
            <function-decl name='_M_check_length' mangled-name='_ZNKSt7__cxx1112basic_stringIcSt11char_traitsIcESaIcEE15_M_check_lengthEmmPKc' filepath='/usr/bin/../lib/gcc/x86_64-linux-gnu/5.4.0/../../../../include/c++/5.4.0/bits/basic_string.h' line='268' column='1' visibility='default' binding='global' size-in-bits='64'>
              <parameter type-id='type-id-75' is-artificial='yes'/>
              <parameter type-id='type-id-218'/>
              <parameter type-id='type-id-218'/>
              <parameter type-id='type-id-60'/>
              <return type-id='type-id-193'/>
            </function-decl>
          </member-function>
          <member-function access='public' destructor='yes'>
            <function-decl name='~basic_string' filepath='/usr/bin/../lib/gcc/x86_64-linux-gnu/5.4.0/../../../../include/c++/5.4.0/bits/basic_string.h' line='542' column='1' visibility='default' binding='global' size-in-bits='64'>
              <parameter type-id='type-id-97' is-artificial='yes'/>
              <return type-id='type-id-193'/>
            </function-decl>
          </member-function>
          <member-function access='public'>
            <function-decl name='basic_string' filepath='/usr/bin/../lib/gcc/x86_64-linux-gnu/5.4.0/../../../../include/c++/5.4.0/bits/basic_string.h' line='379' column='1' visibility='default' binding='global' size-in-bits='64'>
              <parameter type-id='type-id-97' is-artificial='yes'/>
              <return type-id='type-id-193'/>
            </function-decl>
          </member-function>
          <member-function access='public'>
            <function-decl name='append' mangled-name='_ZNSt7__cxx1112basic_stringIcSt11char_traitsIcESaIcEE6appendEPKcm' filepath='/usr/bin/../lib/gcc/x86_64-linux-gnu/5.4.0/../../../../include/c++/5.4.0/bits/basic_string.h' line='1011' column='1' visibility='default' binding='global' size-in-bits='64'>
              <parameter type-id='type-id-97' is-artificial='yes'/>
              <parameter type-id='type-id-60'/>
              <parameter type-id='type-id-218'/>
              <return type-id='type-id-230'/>
            </function-decl>
          </member-function>
          <member-function access='public' destructor='yes'>
            <function-decl name='~basic_string' filepath='/usr/bin/../lib/gcc/x86_64-linux-gnu/5.4.0/../../../../include/c++/5.4.0/bits/basic_string.h' line='542' column='1' visibility='default' binding='global' size-in-bits='64'>
              <parameter type-id='type-id-97' is-artificial='yes'/>
              <return type-id='type-id-193'/>
            </function-decl>
          </member-function>
          <member-function access='public'>
            <function-decl name='basic_string' filepath='/usr/bin/../lib/gcc/x86_64-linux-gnu/5.4.0/../../../../include/c++/5.4.0/bits/basic_string.h' line='379' column='1' visibility='default' binding='global' size-in-bits='64'>
              <parameter type-id='type-id-97' is-artificial='yes'/>
              <return type-id='type-id-193'/>
            </function-decl>
          </member-function>
          <member-function access='public'>
            <function-decl name='basic_string' filepath='/usr/bin/../lib/gcc/x86_64-linux-gnu/5.4.0/../../../../include/c++/5.4.0/bits/basic_string.h' line='454' column='1' visibility='default' binding='global' size-in-bits='64'>
              <parameter type-id='type-id-97' is-artificial='yes'/>
              <parameter type-id='type-id-60'/>
              <parameter type-id='type-id-222'/>
              <return type-id='type-id-193'/>
            </function-decl>
          </member-function>
          <member-function access='public'>
            <function-decl name='basic_string' filepath='/usr/bin/../lib/gcc/x86_64-linux-gnu/5.4.0/../../../../include/c++/5.4.0/bits/basic_string.h' line='379' column='1' visibility='default' binding='global' size-in-bits='64'>
              <parameter type-id='type-id-97' is-artificial='yes'/>
              <return type-id='type-id-193'/>
            </function-decl>
          </member-function>
          <member-function access='public' destructor='yes'>
            <function-decl name='~basic_string' filepath='/usr/bin/../lib/gcc/x86_64-linux-gnu/5.4.0/../../../../include/c++/5.4.0/bits/basic_string.h' line='542' column='1' visibility='default' binding='global' size-in-bits='64'>
              <parameter type-id='type-id-97' is-artificial='yes'/>
              <return type-id='type-id-193'/>
            </function-decl>
          </member-function>
          <member-function access='public'>
            <function-decl name='basic_string' filepath='/usr/bin/../lib/gcc/x86_64-linux-gnu/5.4.0/../../../../include/c++/5.4.0/bits/basic_string.h' line='398' column='1' visibility='default' binding='global' size-in-bits='64'>
              <parameter type-id='type-id-97' is-artificial='yes'/>
              <parameter type-id='type-id-229'/>
              <return type-id='type-id-193'/>
            </function-decl>
          </member-function>
          <member-function access='public'>
            <function-decl name='basic_string' filepath='/usr/bin/../lib/gcc/x86_64-linux-gnu/5.4.0/../../../../include/c++/5.4.0/bits/basic_string.h' line='444' column='1' visibility='default' binding='global' size-in-bits='64'>
              <parameter type-id='type-id-97' is-artificial='yes'/>
              <parameter type-id='type-id-60'/>
              <parameter type-id='type-id-218'/>
              <parameter type-id='type-id-222'/>
              <return type-id='type-id-193'/>
            </function-decl>
          </member-function>
          <member-function access='public'>
            <function-decl name='basic_string' filepath='/usr/bin/../lib/gcc/x86_64-linux-gnu/5.4.0/../../../../include/c++/5.4.0/bits/basic_string.h' line='476' column='1' visibility='default' binding='global' size-in-bits='64'>
              <parameter type-id='type-id-97' is-artificial='yes'/>
              <parameter type-id='type-id-231'/>
              <return type-id='type-id-193'/>
            </function-decl>
          </member-function>
          <member-function access='public'>
            <function-decl name='substr' mangled-name='_ZNKSt7__cxx1112basic_stringIcSt11char_traitsIcESaIcEE6substrEmm' filepath='/usr/bin/../lib/gcc/x86_64-linux-gnu/5.4.0/../../../../include/c++/5.4.0/bits/basic_string.h' line='2293' column='1' visibility='default' binding='global' size-in-bits='64'>
              <parameter type-id='type-id-75' is-artificial='yes'/>
              <parameter type-id='type-id-218'/>
              <parameter type-id='type-id-218'/>
              <return type-id='type-id-73'/>
            </function-decl>
          </member-function>
          <member-function access='public'>
            <function-decl name='replace' mangled-name='_ZNSt7__cxx1112basic_stringIcSt11char_traitsIcESaIcEE7replaceEmmPKcm' filepath='/usr/bin/../lib/gcc/x86_64-linux-gnu/5.4.0/../../../../include/c++/5.4.0/bits/basic_string.h' line='1578' column='1' visibility='default' binding='global' size-in-bits='64'>
              <parameter type-id='type-id-97' is-artificial='yes'/>
              <parameter type-id='type-id-218'/>
              <parameter type-id='type-id-218'/>
              <parameter type-id='type-id-60'/>
              <parameter type-id='type-id-218'/>
              <return type-id='type-id-230'/>
            </function-decl>
          </member-function>
          <member-function access='public'>
            <function-decl name='insert' mangled-name='_ZNSt7__cxx1112basic_stringIcSt11char_traitsIcESaIcEE6insertEmPKc' filepath='/usr/bin/../lib/gcc/x86_64-linux-gnu/5.4.0/../../../../include/c++/5.4.0/bits/basic_string.h' line='1392' column='1' visibility='default' binding='global' size-in-bits='64'>
              <parameter type-id='type-id-97' is-artificial='yes'/>
              <parameter type-id='type-id-218'/>
              <parameter type-id='type-id-60'/>
              <return type-id='type-id-230'/>
            </function-decl>
          </member-function>
        </class-decl>
        <class-decl name='basic_stringbuf&lt;char, std::char_traits&lt;char&gt;, std::allocator&lt;char&gt; &gt;' size-in-bits='832' visibility='default' id='type-id-234'/>
        <class-decl name='basic_stringstream&lt;char, std::char_traits&lt;char&gt;, std::allocator&lt;char&gt; &gt;' size-in-bits='3136' visibility='default' id='type-id-76'>
          <member-type access='private'>
            <typedef-decl name='__string_type' type-id='type-id-73' filepath='/usr/bin/../lib/gcc/x86_64-linux-gnu/5.4.0/../../../../include/c++/5.4.0/sstream' line='669' column='1' id='type-id-235'/>
          </member-type>
          <member-function access='public'>
            <function-decl name='str' mangled-name='_ZNKSt7__cxx1118basic_stringstreamIcSt11char_traitsIcESaIcEE3strEv' filepath='/usr/bin/../lib/gcc/x86_64-linux-gnu/5.4.0/../../../../include/c++/5.4.0/sstream' line='765' column='1' visibility='default' binding='global' size-in-bits='64'>
              <parameter type-id='type-id-78' is-artificial='yes'/>
              <return type-id='type-id-235'/>
            </function-decl>
          </member-function>
          <member-function access='public' destructor='yes' vtable-offset='0'>
            <function-decl name='~basic_stringstream' filepath='/usr/bin/../lib/gcc/x86_64-linux-gnu/5.4.0/../../../../include/c++/5.4.0/sstream' line='717' column='1' visibility='default' binding='global' size-in-bits='64'>
              <parameter type-id='type-id-98' is-artificial='yes'/>
              <return type-id='type-id-193'/>
            </function-decl>
          </member-function>
          <member-function access='public' destructor='yes' vtable-offset='0'>
            <function-decl name='~basic_stringstream' filepath='/usr/bin/../lib/gcc/x86_64-linux-gnu/5.4.0/../../../../include/c++/5.4.0/sstream' line='717' column='1' visibility='default' binding='global' size-in-bits='64'>
              <parameter type-id='type-id-98' is-artificial='yes'/>
              <return type-id='type-id-193'/>
            </function-decl>
          </member-function>
          <member-function access='public' destructor='yes' vtable-offset='0'>
            <function-decl name='~basic_stringstream' filepath='/usr/bin/../lib/gcc/x86_64-linux-gnu/5.4.0/../../../../include/c++/5.4.0/sstream' line='717' column='1' visibility='default' binding='global' size-in-bits='64'>
              <parameter type-id='type-id-98' is-artificial='yes'/>
              <return type-id='type-id-193'/>
            </function-decl>
          </member-function>
          <member-function access='public' destructor='yes' vtable-offset='0'>
            <function-decl name='~basic_stringstream' filepath='/usr/bin/../lib/gcc/x86_64-linux-gnu/5.4.0/../../../../include/c++/5.4.0/sstream' line='717' column='1' visibility='default' binding='global' size-in-bits='64'>
              <parameter type-id='type-id-98' is-artificial='yes'/>
              <return type-id='type-id-193'/>
            </function-decl>
          </member-function>
          <member-function access='public' destructor='yes' vtable-offset='0'>
            <function-decl name='~basic_stringstream' filepath='/usr/bin/../lib/gcc/x86_64-linux-gnu/5.4.0/../../../../include/c++/5.4.0/sstream' line='717' column='1' visibility='default' binding='global' size-in-bits='64'>
              <parameter type-id='type-id-98' is-artificial='yes'/>
              <return type-id='type-id-193'/>
            </function-decl>
          </member-function>
          <member-function access='public' destructor='yes' vtable-offset='0'>
            <function-decl name='~basic_stringstream' filepath='/usr/bin/../lib/gcc/x86_64-linux-gnu/5.4.0/../../../../include/c++/5.4.0/sstream' line='717' column='1' visibility='default' binding='global' size-in-bits='64'>
              <parameter type-id='type-id-98' is-artificial='yes'/>
              <return type-id='type-id-193'/>
            </function-decl>
          </member-function>
          <member-function access='public' destructor='yes' vtable-offset='0'>
            <function-decl name='~basic_stringstream' mangled-name='_ZNSt7__cxx1118basic_stringstreamIcSt11char_traitsIcESaIcEED1Ev' filepath='/usr/bin/../lib/gcc/x86_64-linux-gnu/5.4.0/../../../../include/c++/5.4.0/sstream' line='717' column='1' visibility='default' binding='global' size-in-bits='64'>
              <parameter type-id='type-id-98' is-artificial='yes'/>
              <return type-id='type-id-193'/>
            </function-decl>
          </member-function>
          <member-function access='public' destructor='yes' vtable-offset='0'>
            <function-decl name='~basic_stringstream' mangled-name='_ZNSt7__cxx1118basic_stringstreamIcSt11char_traitsIcESaIcEED2Ev' filepath='/usr/bin/../lib/gcc/x86_64-linux-gnu/5.4.0/../../../../include/c++/5.4.0/sstream' line='717' column='1' visibility='default' binding='global' size-in-bits='64'>
              <parameter type-id='type-id-98' is-artificial='yes'/>
              <return type-id='type-id-193'/>
            </function-decl>
          </member-function>
        </class-decl>
      </namespace-decl>
    </namespace-decl>
    <namespace-decl name='__gnu_cxx'>
      <class-decl name='__anonymous_struct__1' is-anonymous='yes' visibility='default' is-declaration-only='yes' id='type-id-146'>
        <member-function access='public'>
          <function-decl name='allocate' mangled-name='_ZN9__gnu_cxx13new_allocatorIhE8allocateEmPKv' filepath='/usr/bin/../lib/gcc/x86_64-linux-gnu/5.4.0/../../../../include/c++/5.4.0/ext/new_allocator.h' line='99' column='1' visibility='default' binding='global' size-in-bits='64'>
            <parameter type-id='type-id-147' is-artificial='yes'/>
            <parameter type-id='type-id-40'/>
            <parameter type-id='type-id-187'/>
            <return type-id='type-id-205'/>
          </function-decl>
        </member-function>
        <member-function access='public'>
          <function-decl name='deallocate' mangled-name='_ZN9__gnu_cxx13new_allocatorIhE10deallocateEPhm' filepath='/usr/bin/../lib/gcc/x86_64-linux-gnu/5.4.0/../../../../include/c++/5.4.0/ext/new_allocator.h' line='109' column='1' visibility='default' binding='global' size-in-bits='64'>
            <parameter type-id='type-id-147' is-artificial='yes'/>
            <parameter type-id='type-id-205'/>
            <parameter type-id='type-id-40'/>
            <return type-id='type-id-193'/>
          </function-decl>
        </member-function>
      </class-decl>
      <class-decl name='__anonymous_struct__3' is-anonymous='yes' visibility='default' is-declaration-only='yes' id='type-id-151'>
        <member-function access='public'>
          <function-decl name='deallocate' mangled-name='_ZN9__gnu_cxx13new_allocatorIcE10deallocateEPcm' filepath='/usr/bin/../lib/gcc/x86_64-linux-gnu/5.4.0/../../../../include/c++/5.4.0/ext/new_allocator.h' line='109' column='1' visibility='default' binding='global' size-in-bits='64'>
            <parameter type-id='type-id-152' is-artificial='yes'/>
            <parameter type-id='type-id-213'/>
            <parameter type-id='type-id-40'/>
            <return type-id='type-id-193'/>
          </function-decl>
        </member-function>
      </class-decl>
      <class-decl name='__anonymous_struct__' is-struct='yes' is-anonymous='yes' visibility='default' is-declaration-only='yes' id='type-id-236'>
        <member-type access='public'>
          <typedef-decl name='pointer' type-id='type-id-205' filepath='/usr/bin/../lib/gcc/x86_64-linux-gnu/5.4.0/../../../../include/c++/5.4.0/ext/alloc_traits.h' line='104' column='1' id='type-id-203'/>
        </member-type>
      </class-decl>
      <class-decl name='__anonymous_struct__2' is-struct='yes' is-anonymous='yes' visibility='default' is-declaration-only='yes' id='type-id-237'>
        <member-type access='public'>
          <typedef-decl name='const_pointer' type-id='type-id-212' filepath='/usr/bin/../lib/gcc/x86_64-linux-gnu/5.4.0/../../../../include/c++/5.4.0/ext/alloc_traits.h' line='105' column='1' id='type-id-215'/>
        </member-type>
        <member-type access='public'>
          <typedef-decl name='pointer' type-id='type-id-213' filepath='/usr/bin/../lib/gcc/x86_64-linux-gnu/5.4.0/../../../../include/c++/5.4.0/ext/alloc_traits.h' line='104' column='1' id='type-id-217'/>
        </member-type>
        <member-type access='public'>
          <typedef-decl name='size_type' type-id='type-id-40' filepath='/usr/bin/../lib/gcc/x86_64-linux-gnu/5.4.0/../../../../include/c++/5.4.0/ext/alloc_traits.h' line='106' column='1' id='type-id-219'/>
        </member-type>
      </class-decl>
    </namespace-decl>
    <function-decl name='isalnum' filepath='/usr/include/ctype.h' line='110' column='1' visibility='default' binding='global' size-in-bits='64'>
      <parameter type-id='type-id-16'/>
      <return type-id='type-id-16'/>
    </function-decl>
    <function-decl name='isalpha' filepath='/usr/include/ctype.h' line='111' column='1' visibility='default' binding='global' size-in-bits='64'>
      <parameter type-id='type-id-16'/>
      <return type-id='type-id-16'/>
    </function-decl>
    <function-decl name='iscntrl' filepath='/usr/include/ctype.h' line='112' column='1' visibility='default' binding='global' size-in-bits='64'>
      <parameter type-id='type-id-16'/>
      <return type-id='type-id-16'/>
    </function-decl>
    <function-decl name='isdigit' filepath='/usr/include/ctype.h' line='113' column='1' visibility='default' binding='global' size-in-bits='64'>
      <parameter type-id='type-id-16'/>
      <return type-id='type-id-16'/>
    </function-decl>
    <function-decl name='islower' filepath='/usr/include/ctype.h' line='114' column='1' visibility='default' binding='global' size-in-bits='64'>
      <parameter type-id='type-id-16'/>
      <return type-id='type-id-16'/>
    </function-decl>
    <function-decl name='isgraph' filepath='/usr/include/ctype.h' line='115' column='1' visibility='default' binding='global' size-in-bits='64'>
      <parameter type-id='type-id-16'/>
      <return type-id='type-id-16'/>
    </function-decl>
    <function-decl name='isprint' filepath='/usr/include/ctype.h' line='116' column='1' visibility='default' binding='global' size-in-bits='64'>
      <parameter type-id='type-id-16'/>
      <return type-id='type-id-16'/>
    </function-decl>
    <function-decl name='ispunct' filepath='/usr/include/ctype.h' line='117' column='1' visibility='default' binding='global' size-in-bits='64'>
      <parameter type-id='type-id-16'/>
      <return type-id='type-id-16'/>
    </function-decl>
    <function-decl name='isspace' filepath='/usr/include/ctype.h' line='118' column='1' visibility='default' binding='global' size-in-bits='64'>
      <parameter type-id='type-id-16'/>
      <return type-id='type-id-16'/>
    </function-decl>
    <function-decl name='isupper' filepath='/usr/include/ctype.h' line='119' column='1' visibility='default' binding='global' size-in-bits='64'>
      <parameter type-id='type-id-16'/>
      <return type-id='type-id-16'/>
    </function-decl>
    <function-decl name='isxdigit' filepath='/usr/include/ctype.h' line='120' column='1' visibility='default' binding='global' size-in-bits='64'>
      <parameter type-id='type-id-16'/>
      <return type-id='type-id-16'/>
    </function-decl>
    <function-decl name='tolower' filepath='/usr/include/ctype.h' line='124' column='1' visibility='default' binding='global' size-in-bits='64'>
      <parameter type-id='type-id-16'/>
      <return type-id='type-id-16'/>
    </function-decl>
    <function-decl name='toupper' filepath='/usr/include/ctype.h' line='127' column='1' visibility='default' binding='global' size-in-bits='64'>
      <parameter type-id='type-id-16'/>
      <return type-id='type-id-16'/>
    </function-decl>
    <function-decl name='isblank' filepath='/usr/include/ctype.h' line='136' column='1' visibility='default' binding='global' size-in-bits='64'>
      <parameter type-id='type-id-16'/>
      <return type-id='type-id-16'/>
    </function-decl>
    <function-decl name='imaxabs' filepath='/usr/include/inttypes.h' line='290' column='1' visibility='default' binding='global' size-in-bits='64'>
      <parameter type-id='type-id-34'/>
      <return type-id='type-id-34'/>
    </function-decl>
    <function-decl name='imaxdiv' filepath='/usr/include/inttypes.h' line='293' column='1' visibility='default' binding='global' size-in-bits='64'>
      <parameter type-id='type-id-34'/>
      <parameter type-id='type-id-34'/>
      <return type-id='type-id-22'/>
    </function-decl>
    <function-decl name='strtoimax' filepath='/usr/include/inttypes.h' line='324' column='1' visibility='default' binding='global' size-in-bits='64'>
      <parameter type-id='type-id-61'/>
      <parameter type-id='type-id-58'/>
      <parameter type-id='type-id-16'/>
      <return type-id='type-id-34'/>
    </function-decl>
    <function-decl name='strtoumax' filepath='/usr/include/inttypes.h' line='336' column='1' visibility='default' binding='global' size-in-bits='64'>
      <parameter type-id='type-id-61'/>
      <parameter type-id='type-id-58'/>
      <parameter type-id='type-id-16'/>
      <return type-id='type-id-41'/>
    </function-decl>
    <function-decl name='wcstoimax' filepath='/usr/include/inttypes.h' line='348' column='1' visibility='default' binding='global' size-in-bits='64'>
      <parameter type-id='type-id-83'/>
      <parameter type-id='type-id-113'/>
      <parameter type-id='type-id-16'/>
      <return type-id='type-id-34'/>
    </function-decl>
    <function-decl name='wcstoumax' filepath='/usr/include/inttypes.h' line='362' column='1' visibility='default' binding='global' size-in-bits='64'>
      <parameter type-id='type-id-83'/>
      <parameter type-id='type-id-113'/>
      <parameter type-id='type-id-16'/>
      <return type-id='type-id-41'/>
    </function-decl>
    <function-decl name='setlocale' filepath='/usr/include/locale.h' line='124' column='1' visibility='default' binding='global' size-in-bits='64'>
      <parameter type-id='type-id-16'/>
      <parameter type-id='type-id-60'/>
      <return type-id='type-id-55'/>
    </function-decl>
    <function-decl name='localeconv' filepath='/usr/include/locale.h' line='127' column='1' visibility='default' binding='global' size-in-bits='64'>
      <return type-id='type-id-92'/>
    </function-decl>
    <function-decl name='remove' filepath='/usr/include/stdio.h' line='178' column='1' visibility='default' binding='global' size-in-bits='64'>
      <parameter type-id='type-id-60'/>
      <return type-id='type-id-16'/>
    </function-decl>
    <function-decl name='rename' filepath='/usr/include/stdio.h' line='180' column='1' visibility='default' binding='global' size-in-bits='64'>
      <parameter type-id='type-id-60'/>
      <parameter type-id='type-id-60'/>
      <return type-id='type-id-16'/>
    </function-decl>
    <function-decl name='tmpfile' filepath='/usr/include/stdio.h' line='195' column='1' visibility='default' binding='global' size-in-bits='64'>
      <return type-id='type-id-51'/>
    </function-decl>
    <function-decl name='tmpnam' filepath='/usr/include/stdio.h' line='209' column='1' visibility='default' binding='global' size-in-bits='64'>
      <parameter type-id='type-id-55'/>
      <return type-id='type-id-55'/>
    </function-decl>
    <function-decl name='fclose' filepath='/usr/include/stdio.h' line='237' column='1' visibility='default' binding='global' size-in-bits='64'>
      <parameter type-id='type-id-51'/>
      <return type-id='type-id-16'/>
    </function-decl>
    <function-decl name='fflush' filepath='/usr/include/stdio.h' line='242' column='1' visibility='default' binding='global' size-in-bits='64'>
      <parameter type-id='type-id-51'/>
      <return type-id='type-id-16'/>
    </function-decl>
    <function-decl name='fopen' filepath='/usr/include/stdio.h' line='272' column='1' visibility='default' binding='global' size-in-bits='64'>
      <parameter type-id='type-id-61'/>
      <parameter type-id='type-id-61'/>
      <return type-id='type-id-51'/>
    </function-decl>
    <function-decl name='freopen' filepath='/usr/include/stdio.h' line='278' column='1' visibility='default' binding='global' size-in-bits='64'>
      <parameter type-id='type-id-61'/>
      <parameter type-id='type-id-61'/>
      <parameter type-id='type-id-52'/>
      <return type-id='type-id-51'/>
    </function-decl>
    <function-decl name='setbuf' filepath='/usr/include/stdio.h' line='332' column='1' visibility='default' binding='global' size-in-bits='64'>
      <parameter type-id='type-id-52'/>
      <parameter type-id='type-id-56'/>
      <return type-id='type-id-193'/>
    </function-decl>
    <function-decl name='setvbuf' filepath='/usr/include/stdio.h' line='336' column='1' visibility='default' binding='global' size-in-bits='64'>
      <parameter type-id='type-id-52'/>
      <parameter type-id='type-id-56'/>
      <parameter type-id='type-id-16'/>
      <parameter type-id='type-id-39'/>
      <return type-id='type-id-16'/>
    </function-decl>
    <function-decl name='fprintf' filepath='/usr/include/stdio.h' line='356' column='1' visibility='default' binding='global' size-in-bits='64'>
      <parameter type-id='type-id-52'/>
      <parameter type-id='type-id-61'/>
      <parameter is-variadic='yes'/>
      <return type-id='type-id-16'/>
    </function-decl>
    <function-decl name='printf' filepath='/usr/include/stdio.h' line='362' column='1' visibility='default' binding='global' size-in-bits='64'>
      <parameter type-id='type-id-61'/>
      <parameter is-variadic='yes'/>
      <return type-id='type-id-16'/>
    </function-decl>
    <function-decl name='sprintf' filepath='/usr/include/stdio.h' line='364' column='1' visibility='default' binding='global' size-in-bits='64'>
      <parameter type-id='type-id-56'/>
      <parameter type-id='type-id-61'/>
      <parameter is-variadic='yes'/>
      <return type-id='type-id-16'/>
    </function-decl>
    <function-decl name='vfprintf' filepath='/usr/include/stdio.h' line='371' column='1' visibility='default' binding='global' size-in-bits='64'>
      <parameter type-id='type-id-52'/>
      <parameter type-id='type-id-61'/>
      <parameter type-id='type-id-86'/>
      <return type-id='type-id-16'/>
    </function-decl>
    <function-decl name='vsprintf' filepath='/usr/include/stdio.h' line='379' column='1' visibility='default' binding='global' size-in-bits='64'>
      <parameter type-id='type-id-56'/>
      <parameter type-id='type-id-61'/>
      <parameter type-id='type-id-86'/>
      <return type-id='type-id-16'/>
    </function-decl>
    <function-decl name='snprintf' filepath='/usr/include/stdio.h' line='386' column='1' visibility='default' binding='global' size-in-bits='64'>
      <parameter type-id='type-id-56'/>
      <parameter type-id='type-id-39'/>
      <parameter type-id='type-id-61'/>
      <parameter is-variadic='yes'/>
      <return type-id='type-id-16'/>
    </function-decl>
    <function-decl name='vsnprintf' filepath='/usr/include/stdio.h' line='390' column='1' visibility='default' binding='global' size-in-bits='64'>
      <parameter type-id='type-id-56'/>
      <parameter type-id='type-id-39'/>
      <parameter type-id='type-id-61'/>
      <parameter type-id='type-id-86'/>
      <return type-id='type-id-16'/>
    </function-decl>
    <function-decl name='fscanf' filepath='/usr/include/stdio.h' line='425' column='1' visibility='default' binding='global' size-in-bits='64'>
      <parameter type-id='type-id-52'/>
      <parameter type-id='type-id-61'/>
      <parameter is-variadic='yes'/>
      <return type-id='type-id-16'/>
    </function-decl>
    <function-decl name='scanf' filepath='/usr/include/stdio.h' line='431' column='1' visibility='default' binding='global' size-in-bits='64'>
      <parameter type-id='type-id-61'/>
      <parameter is-variadic='yes'/>
      <return type-id='type-id-16'/>
    </function-decl>
    <function-decl name='sscanf' filepath='/usr/include/stdio.h' line='433' column='1' visibility='default' binding='global' size-in-bits='64'>
      <parameter type-id='type-id-61'/>
      <parameter type-id='type-id-61'/>
      <parameter is-variadic='yes'/>
      <return type-id='type-id-16'/>
    </function-decl>
    <function-decl name='vfscanf' filepath='/usr/include/stdio.h' line='471' column='1' visibility='default' binding='global' size-in-bits='64'>
      <parameter type-id='type-id-52'/>
      <parameter type-id='type-id-61'/>
      <parameter type-id='type-id-86'/>
      <return type-id='type-id-16'/>
    </function-decl>
    <function-decl name='vscanf' filepath='/usr/include/stdio.h' line='479' column='1' visibility='default' binding='global' size-in-bits='64'>
      <parameter type-id='type-id-61'/>
      <parameter type-id='type-id-86'/>
      <return type-id='type-id-16'/>
    </function-decl>
    <function-decl name='vsscanf' filepath='/usr/include/stdio.h' line='483' column='1' visibility='default' binding='global' size-in-bits='64'>
      <parameter type-id='type-id-61'/>
      <parameter type-id='type-id-61'/>
      <parameter type-id='type-id-86'/>
      <return type-id='type-id-16'/>
    </function-decl>
    <function-decl name='fgetc' filepath='/usr/include/stdio.h' line='531' column='1' visibility='default' binding='global' size-in-bits='64'>
      <parameter type-id='type-id-51'/>
      <return type-id='type-id-16'/>
    </function-decl>
    <function-decl name='getc' filepath='/usr/include/stdio.h' line='532' column='1' visibility='default' binding='global' size-in-bits='64'>
      <parameter type-id='type-id-51'/>
      <return type-id='type-id-16'/>
    </function-decl>
    <function-decl name='fputc' filepath='/usr/include/stdio.h' line='573' column='1' visibility='default' binding='global' size-in-bits='64'>
      <parameter type-id='type-id-16'/>
      <parameter type-id='type-id-51'/>
      <return type-id='type-id-16'/>
    </function-decl>
    <function-decl name='putc' filepath='/usr/include/stdio.h' line='574' column='1' visibility='default' binding='global' size-in-bits='64'>
      <parameter type-id='type-id-16'/>
      <parameter type-id='type-id-51'/>
      <return type-id='type-id-16'/>
    </function-decl>
    <function-decl name='fgets' filepath='/usr/include/stdio.h' line='622' column='1' visibility='default' binding='global' size-in-bits='64'>
      <parameter type-id='type-id-56'/>
      <parameter type-id='type-id-16'/>
      <parameter type-id='type-id-52'/>
      <return type-id='type-id-55'/>
    </function-decl>
    <function-decl name='fputs' filepath='/usr/include/stdio.h' line='689' column='1' visibility='default' binding='global' size-in-bits='64'>
      <parameter type-id='type-id-61'/>
      <parameter type-id='type-id-52'/>
      <return type-id='type-id-16'/>
    </function-decl>
    <function-decl name='puts' filepath='/usr/include/stdio.h' line='695' column='1' visibility='default' binding='global' size-in-bits='64'>
      <parameter type-id='type-id-60'/>
      <return type-id='type-id-16'/>
    </function-decl>
    <function-decl name='ungetc' filepath='/usr/include/stdio.h' line='702' column='1' visibility='default' binding='global' size-in-bits='64'>
      <parameter type-id='type-id-16'/>
      <parameter type-id='type-id-51'/>
      <return type-id='type-id-16'/>
    </function-decl>
    <function-decl name='fread' filepath='/usr/include/stdio.h' line='709' column='1' visibility='default' binding='global' size-in-bits='64'>
      <parameter type-id='type-id-188'/>
      <parameter type-id='type-id-39'/>
      <parameter type-id='type-id-39'/>
      <parameter type-id='type-id-52'/>
      <return type-id='type-id-39'/>
    </function-decl>
    <function-decl name='fwrite' filepath='/usr/include/stdio.h' line='715' column='1' visibility='default' binding='global' size-in-bits='64'>
      <parameter type-id='type-id-189'/>
      <parameter type-id='type-id-39'/>
      <parameter type-id='type-id-39'/>
      <parameter type-id='type-id-52'/>
      <return type-id='type-id-39'/>
    </function-decl>
    <function-decl name='fseek' filepath='/usr/include/stdio.h' line='749' column='1' visibility='default' binding='global' size-in-bits='64'>
      <parameter type-id='type-id-51'/>
      <parameter type-id='type-id-18'/>
      <parameter type-id='type-id-16'/>
      <return type-id='type-id-16'/>
    </function-decl>
    <function-decl name='ftell' filepath='/usr/include/stdio.h' line='754' column='1' visibility='default' binding='global' size-in-bits='64'>
      <parameter type-id='type-id-51'/>
      <return type-id='type-id-18'/>
    </function-decl>
    <function-decl name='rewind' filepath='/usr/include/stdio.h' line='759' column='1' visibility='default' binding='global' size-in-bits='64'>
      <parameter type-id='type-id-51'/>
      <return type-id='type-id-193'/>
    </function-decl>
    <function-decl name='fgetpos' filepath='/usr/include/stdio.h' line='798' column='1' visibility='default' binding='global' size-in-bits='64'>
      <parameter type-id='type-id-52'/>
      <parameter type-id='type-id-89'/>
      <return type-id='type-id-16'/>
    </function-decl>
    <function-decl name='fsetpos' filepath='/usr/include/stdio.h' line='803' column='1' visibility='default' binding='global' size-in-bits='64'>
      <parameter type-id='type-id-51'/>
      <parameter type-id='type-id-68'/>
      <return type-id='type-id-16'/>
    </function-decl>
    <function-decl name='clearerr' filepath='/usr/include/stdio.h' line='826' column='1' visibility='default' binding='global' size-in-bits='64'>
      <parameter type-id='type-id-51'/>
      <return type-id='type-id-193'/>
    </function-decl>
    <function-decl name='feof' filepath='/usr/include/stdio.h' line='828' column='1' visibility='default' binding='global' size-in-bits='64'>
      <parameter type-id='type-id-51'/>
      <return type-id='type-id-16'/>
    </function-decl>
    <function-decl name='ferror' filepath='/usr/include/stdio.h' line='830' column='1' visibility='default' binding='global' size-in-bits='64'>
      <parameter type-id='type-id-51'/>
      <return type-id='type-id-16'/>
    </function-decl>
    <function-decl name='perror' filepath='/usr/include/stdio.h' line='846' column='1' visibility='default' binding='global' size-in-bits='64'>
      <parameter type-id='type-id-60'/>
      <return type-id='type-id-193'/>
    </function-decl>
    <function-decl name='strtod' filepath='/usr/include/stdlib.h' line='164' column='1' visibility='default' binding='global' size-in-bits='64'>
      <parameter type-id='type-id-61'/>
      <parameter type-id='type-id-58'/>
      <return type-id='type-id-14'/>
    </function-decl>
    <function-decl name='strtof' filepath='/usr/include/stdlib.h' line='172' column='1' visibility='default' binding='global' size-in-bits='64'>
      <parameter type-id='type-id-61'/>
      <parameter type-id='type-id-58'/>
      <return type-id='type-id-15'/>
    </function-decl>
    <function-decl name='strtold' filepath='/usr/include/stdlib.h' line='175' column='1' visibility='default' binding='global' size-in-bits='64'>
      <parameter type-id='type-id-61'/>
      <parameter type-id='type-id-58'/>
      <return type-id='type-id-17'/>
    </function-decl>
    <function-decl name='strtol' filepath='/usr/include/stdlib.h' line='183' column='1' visibility='default' binding='global' size-in-bits='64'>
      <parameter type-id='type-id-61'/>
      <parameter type-id='type-id-58'/>
      <parameter type-id='type-id-16'/>
      <return type-id='type-id-18'/>
    </function-decl>
    <function-decl name='strtoul' filepath='/usr/include/stdlib.h' line='187' column='1' visibility='default' binding='global' size-in-bits='64'>
      <parameter type-id='type-id-61'/>
      <parameter type-id='type-id-58'/>
      <parameter type-id='type-id-16'/>
      <return type-id='type-id-38'/>
    </function-decl>
    <function-decl name='strtoll' filepath='/usr/include/stdlib.h' line='209' column='1' visibility='default' binding='global' size-in-bits='64'>
      <parameter type-id='type-id-61'/>
      <parameter type-id='type-id-58'/>
      <parameter type-id='type-id-16'/>
      <return type-id='type-id-19'/>
    </function-decl>
    <function-decl name='strtoull' filepath='/usr/include/stdlib.h' line='214' column='1' visibility='default' binding='global' size-in-bits='64'>
      <parameter type-id='type-id-61'/>
      <parameter type-id='type-id-58'/>
      <parameter type-id='type-id-16'/>
      <return type-id='type-id-49'/>
    </function-decl>
    <function-decl name='atoi' filepath='/usr/include/stdlib.h' line='278' column='1' visibility='default' binding='global' size-in-bits='64'>
      <parameter type-id='type-id-60'/>
      <return type-id='type-id-16'/>
    </function-decl>
    <function-decl name='atol' filepath='/usr/include/stdlib.h' line='283' column='1' visibility='default' binding='global' size-in-bits='64'>
      <parameter type-id='type-id-60'/>
      <return type-id='type-id-18'/>
    </function-decl>
    <function-decl name='atoll' filepath='/usr/include/stdlib.h' line='292' column='1' visibility='default' binding='global' size-in-bits='64'>
      <parameter type-id='type-id-60'/>
      <return type-id='type-id-19'/>
    </function-decl>
    <function-decl name='rand' filepath='/usr/include/stdlib.h' line='374' column='1' visibility='default' binding='global' size-in-bits='64'>
      <return type-id='type-id-16'/>
    </function-decl>
    <function-decl name='srand' filepath='/usr/include/stdlib.h' line='376' column='1' visibility='default' binding='global' size-in-bits='64'>
      <parameter type-id='type-id-45'/>
      <return type-id='type-id-193'/>
    </function-decl>
    <function-decl name='malloc' filepath='/usr/include/stdlib.h' line='466' column='1' visibility='default' binding='global' size-in-bits='64'>
      <parameter type-id='type-id-39'/>
      <return type-id='type-id-187'/>
    </function-decl>
    <function-decl name='calloc' filepath='/usr/include/stdlib.h' line='468' column='1' visibility='default' binding='global' size-in-bits='64'>
      <parameter type-id='type-id-39'/>
      <parameter type-id='type-id-39'/>
      <return type-id='type-id-187'/>
    </function-decl>
    <function-decl name='realloc' filepath='/usr/include/stdlib.h' line='480' column='1' visibility='default' binding='global' size-in-bits='64'>
      <parameter type-id='type-id-187'/>
      <parameter type-id='type-id-39'/>
      <return type-id='type-id-187'/>
    </function-decl>
    <function-decl name='free' filepath='/usr/include/stdlib.h' line='483' column='1' visibility='default' binding='global' size-in-bits='64'>
      <parameter type-id='type-id-187'/>
      <return type-id='type-id-193'/>
    </function-decl>
    <function-decl name='abort' filepath='/usr/include/stdlib.h' line='515' column='1' visibility='default' binding='global' size-in-bits='64'>
      <return type-id='type-id-193'/>
    </function-decl>
    <function-decl name='atexit' filepath='/usr/include/stdlib.h' line='519' column='1' visibility='default' binding='global' size-in-bits='64'>
      <parameter type-id='type-id-109'/>
      <return type-id='type-id-16'/>
    </function-decl>
    <function-decl name='at_quick_exit' filepath='/usr/include/stdlib.h' line='524' column='1' visibility='default' binding='global' size-in-bits='64'>
      <parameter type-id='type-id-109'/>
      <return type-id='type-id-16'/>
    </function-decl>
    <function-decl name='exit' filepath='/usr/include/stdlib.h' line='543' column='1' visibility='default' binding='global' size-in-bits='64'>
      <parameter type-id='type-id-16'/>
      <return type-id='type-id-193'/>
    </function-decl>
    <function-decl name='quick_exit' filepath='/usr/include/stdlib.h' line='549' column='1' visibility='default' binding='global' size-in-bits='64'>
      <parameter type-id='type-id-16'/>
      <return type-id='type-id-193'/>
    </function-decl>
    <function-decl name='_Exit' filepath='/usr/include/stdlib.h' line='557' column='1' visibility='default' binding='global' size-in-bits='64'>
      <parameter type-id='type-id-16'/>
      <return type-id='type-id-193'/>
    </function-decl>
    <function-decl name='getenv' filepath='/usr/include/stdlib.h' line='564' column='1' visibility='default' binding='global' size-in-bits='64'>
      <parameter type-id='type-id-60'/>
      <return type-id='type-id-55'/>
    </function-decl>
    <function-decl name='system' filepath='/usr/include/stdlib.h' line='716' column='1' visibility='default' binding='global' size-in-bits='64'>
      <parameter type-id='type-id-60'/>
      <return type-id='type-id-16'/>
    </function-decl>
    <function-decl name='qsort' filepath='/usr/include/stdlib.h' line='764' column='1' visibility='default' binding='global' size-in-bits='64'>
      <parameter type-id='type-id-187'/>
      <parameter type-id='type-id-39'/>
      <parameter type-id='type-id-39'/>
      <parameter type-id='type-id-29'/>
      <return type-id='type-id-193'/>
    </function-decl>
    <function-decl name='abs' filepath='/usr/include/stdlib.h' line='774' column='1' visibility='default' binding='global' size-in-bits='64'>
      <parameter type-id='type-id-16'/>
      <return type-id='type-id-16'/>
    </function-decl>
    <function-decl name='labs' filepath='/usr/include/stdlib.h' line='775' column='1' visibility='default' binding='global' size-in-bits='64'>
      <parameter type-id='type-id-18'/>
      <return type-id='type-id-18'/>
    </function-decl>
    <function-decl name='llabs' filepath='/usr/include/stdlib.h' line='779' column='1' visibility='default' binding='global' size-in-bits='64'>
      <parameter type-id='type-id-19'/>
      <return type-id='type-id-19'/>
    </function-decl>
    <function-decl name='div' filepath='/usr/include/stdlib.h' line='788' column='1' visibility='default' binding='global' size-in-bits='64'>
      <parameter type-id='type-id-16'/>
      <parameter type-id='type-id-16'/>
      <return type-id='type-id-32'/>
    </function-decl>
    <function-decl name='ldiv' filepath='/usr/include/stdlib.h' line='790' column='1' visibility='default' binding='global' size-in-bits='64'>
      <parameter type-id='type-id-18'/>
      <parameter type-id='type-id-18'/>
      <return type-id='type-id-35'/>
    </function-decl>
    <function-decl name='lldiv' filepath='/usr/include/stdlib.h' line='796' column='1' visibility='default' binding='global' size-in-bits='64'>
      <parameter type-id='type-id-19'/>
      <parameter type-id='type-id-19'/>
      <return type-id='type-id-36'/>
    </function-decl>
    <function-decl name='mblen' filepath='/usr/include/stdlib.h' line='862' column='1' visibility='default' binding='global' size-in-bits='64'>
      <parameter type-id='type-id-60'/>
      <parameter type-id='type-id-39'/>
      <return type-id='type-id-16'/>
    </function-decl>
    <function-decl name='mbtowc' filepath='/usr/include/stdlib.h' line='865' column='1' visibility='default' binding='global' size-in-bits='64'>
      <parameter type-id='type-id-111'/>
      <parameter type-id='type-id-61'/>
      <parameter type-id='type-id-39'/>
      <return type-id='type-id-16'/>
    </function-decl>
    <function-decl name='wctomb' filepath='/usr/include/stdlib.h' line='869' column='1' visibility='default' binding='global' size-in-bits='64'>
      <parameter type-id='type-id-55'/>
      <parameter type-id='type-id-50'/>
      <return type-id='type-id-16'/>
    </function-decl>
    <function-decl name='mbstowcs' filepath='/usr/include/stdlib.h' line='873' column='1' visibility='default' binding='global' size-in-bits='64'>
      <parameter type-id='type-id-111'/>
      <parameter type-id='type-id-61'/>
      <parameter type-id='type-id-39'/>
      <return type-id='type-id-39'/>
    </function-decl>
    <function-decl name='wcstombs' filepath='/usr/include/stdlib.h' line='876' column='1' visibility='default' binding='global' size-in-bits='64'>
      <parameter type-id='type-id-56'/>
      <parameter type-id='type-id-83'/>
      <parameter type-id='type-id-39'/>
      <return type-id='type-id-39'/>
    </function-decl>
    <function-decl name='memcpy' filepath='/usr/include/string.h' line='42' column='1' visibility='default' binding='global' size-in-bits='64'>
      <parameter type-id='type-id-188'/>
      <parameter type-id='type-id-189'/>
      <parameter type-id='type-id-39'/>
      <return type-id='type-id-187'/>
    </function-decl>
    <function-decl name='memmove' filepath='/usr/include/string.h' line='46' column='1' visibility='default' binding='global' size-in-bits='64'>
      <parameter type-id='type-id-187'/>
      <parameter type-id='type-id-187'/>
      <parameter type-id='type-id-39'/>
      <return type-id='type-id-187'/>
    </function-decl>
    <function-decl name='memset' filepath='/usr/include/string.h' line='62' column='1' visibility='default' binding='global' size-in-bits='64'>
      <parameter type-id='type-id-187'/>
      <parameter type-id='type-id-16'/>
      <parameter type-id='type-id-39'/>
      <return type-id='type-id-187'/>
    </function-decl>
    <function-decl name='memcmp' filepath='/usr/include/string.h' line='65' column='1' visibility='default' binding='global' size-in-bits='64'>
      <parameter type-id='type-id-187'/>
      <parameter type-id='type-id-187'/>
      <parameter type-id='type-id-39'/>
      <return type-id='type-id-16'/>
    </function-decl>
    <function-decl name='memchr' filepath='/usr/include/string.h' line='92' column='1' visibility='default' binding='global' size-in-bits='64'>
      <parameter type-id='type-id-187'/>
      <parameter type-id='type-id-16'/>
      <parameter type-id='type-id-39'/>
      <return type-id='type-id-187'/>
    </function-decl>
    <function-decl name='strcpy' filepath='/usr/include/string.h' line='125' column='1' visibility='default' binding='global' size-in-bits='64'>
      <parameter type-id='type-id-56'/>
      <parameter type-id='type-id-61'/>
      <return type-id='type-id-55'/>
    </function-decl>
    <function-decl name='strncpy' filepath='/usr/include/string.h' line='128' column='1' visibility='default' binding='global' size-in-bits='64'>
      <parameter type-id='type-id-56'/>
      <parameter type-id='type-id-61'/>
      <parameter type-id='type-id-39'/>
      <return type-id='type-id-55'/>
    </function-decl>
    <function-decl name='strcat' filepath='/usr/include/string.h' line='133' column='1' visibility='default' binding='global' size-in-bits='64'>
      <parameter type-id='type-id-56'/>
      <parameter type-id='type-id-61'/>
      <return type-id='type-id-55'/>
    </function-decl>
    <function-decl name='strncat' filepath='/usr/include/string.h' line='136' column='1' visibility='default' binding='global' size-in-bits='64'>
      <parameter type-id='type-id-56'/>
      <parameter type-id='type-id-61'/>
      <parameter type-id='type-id-39'/>
      <return type-id='type-id-55'/>
    </function-decl>
    <function-decl name='strcmp' filepath='/usr/include/string.h' line='140' column='1' visibility='default' binding='global' size-in-bits='64'>
      <parameter type-id='type-id-60'/>
      <parameter type-id='type-id-60'/>
      <return type-id='type-id-16'/>
    </function-decl>
    <function-decl name='strncmp' filepath='/usr/include/string.h' line='143' column='1' visibility='default' binding='global' size-in-bits='64'>
      <parameter type-id='type-id-60'/>
      <parameter type-id='type-id-60'/>
      <parameter type-id='type-id-39'/>
      <return type-id='type-id-16'/>
    </function-decl>
    <function-decl name='strcoll' filepath='/usr/include/string.h' line='147' column='1' visibility='default' binding='global' size-in-bits='64'>
      <parameter type-id='type-id-60'/>
      <parameter type-id='type-id-60'/>
      <return type-id='type-id-16'/>
    </function-decl>
    <function-decl name='strxfrm' filepath='/usr/include/string.h' line='150' column='1' visibility='default' binding='global' size-in-bits='64'>
      <parameter type-id='type-id-56'/>
      <parameter type-id='type-id-61'/>
      <parameter type-id='type-id-39'/>
      <return type-id='type-id-39'/>
    </function-decl>
    <function-decl name='strchr' filepath='/usr/include/string.h' line='231' column='1' visibility='default' binding='global' size-in-bits='64'>
      <parameter type-id='type-id-60'/>
      <parameter type-id='type-id-16'/>
      <return type-id='type-id-55'/>
    </function-decl>
    <function-decl name='strrchr' filepath='/usr/include/string.h' line='258' column='1' visibility='default' binding='global' size-in-bits='64'>
      <parameter type-id='type-id-60'/>
      <parameter type-id='type-id-16'/>
      <return type-id='type-id-55'/>
    </function-decl>
    <function-decl name='strcspn' filepath='/usr/include/string.h' line='280' column='1' visibility='default' binding='global' size-in-bits='64'>
      <parameter type-id='type-id-60'/>
      <parameter type-id='type-id-60'/>
      <return type-id='type-id-39'/>
    </function-decl>
    <function-decl name='strspn' filepath='/usr/include/string.h' line='284' column='1' visibility='default' binding='global' size-in-bits='64'>
      <parameter type-id='type-id-60'/>
      <parameter type-id='type-id-60'/>
      <return type-id='type-id-39'/>
    </function-decl>
    <function-decl name='strpbrk' filepath='/usr/include/string.h' line='310' column='1' visibility='default' binding='global' size-in-bits='64'>
      <parameter type-id='type-id-60'/>
      <parameter type-id='type-id-60'/>
      <return type-id='type-id-55'/>
    </function-decl>
    <function-decl name='strstr' filepath='/usr/include/string.h' line='337' column='1' visibility='default' binding='global' size-in-bits='64'>
      <parameter type-id='type-id-60'/>
      <parameter type-id='type-id-60'/>
      <return type-id='type-id-55'/>
    </function-decl>
    <function-decl name='strtok' filepath='/usr/include/string.h' line='343' column='1' visibility='default' binding='global' size-in-bits='64'>
      <parameter type-id='type-id-56'/>
      <parameter type-id='type-id-61'/>
      <return type-id='type-id-55'/>
    </function-decl>
    <function-decl name='strlen' filepath='/usr/include/string.h' line='394' column='1' visibility='default' binding='global' size-in-bits='64'>
      <parameter type-id='type-id-60'/>
      <return type-id='type-id-39'/>
    </function-decl>
    <function-decl name='strerror' filepath='/usr/include/string.h' line='408' column='1' visibility='default' binding='global' size-in-bits='64'>
      <parameter type-id='type-id-16'/>
      <return type-id='type-id-55'/>
    </function-decl>
    <function-decl name='wcscpy' filepath='/usr/include/wchar.h' line='147' column='1' visibility='default' binding='global' size-in-bits='64'>
      <parameter type-id='type-id-111'/>
      <parameter type-id='type-id-83'/>
      <return type-id='type-id-110'/>
    </function-decl>
    <function-decl name='wcsncpy' filepath='/usr/include/wchar.h' line='152' column='1' visibility='default' binding='global' size-in-bits='64'>
      <parameter type-id='type-id-111'/>
      <parameter type-id='type-id-83'/>
      <parameter type-id='type-id-39'/>
      <return type-id='type-id-110'/>
    </function-decl>
    <function-decl name='wcscat' filepath='/usr/include/wchar.h' line='157' column='1' visibility='default' binding='global' size-in-bits='64'>
      <parameter type-id='type-id-111'/>
      <parameter type-id='type-id-83'/>
      <return type-id='type-id-110'/>
    </function-decl>
    <function-decl name='wcsncat' filepath='/usr/include/wchar.h' line='161' column='1' visibility='default' binding='global' size-in-bits='64'>
      <parameter type-id='type-id-111'/>
      <parameter type-id='type-id-83'/>
      <parameter type-id='type-id-39'/>
      <return type-id='type-id-110'/>
    </function-decl>
    <function-decl name='wcscmp' filepath='/usr/include/wchar.h' line='166' column='1' visibility='default' binding='global' size-in-bits='64'>
      <parameter type-id='type-id-82'/>
      <parameter type-id='type-id-82'/>
      <return type-id='type-id-16'/>
    </function-decl>
    <function-decl name='wcsncmp' filepath='/usr/include/wchar.h' line='169' column='1' visibility='default' binding='global' size-in-bits='64'>
      <parameter type-id='type-id-82'/>
      <parameter type-id='type-id-82'/>
      <parameter type-id='type-id-39'/>
      <return type-id='type-id-16'/>
    </function-decl>
    <function-decl name='wcscoll' filepath='/usr/include/wchar.h' line='195' column='1' visibility='default' binding='global' size-in-bits='64'>
      <parameter type-id='type-id-82'/>
      <parameter type-id='type-id-82'/>
      <return type-id='type-id-16'/>
    </function-decl>
    <function-decl name='wcsxfrm' filepath='/usr/include/wchar.h' line='199' column='1' visibility='default' binding='global' size-in-bits='64'>
      <parameter type-id='type-id-111'/>
      <parameter type-id='type-id-83'/>
      <parameter type-id='type-id-39'/>
      <return type-id='type-id-39'/>
    </function-decl>
    <function-decl name='wcschr' filepath='/usr/include/wchar.h' line='230' column='1' visibility='default' binding='global' size-in-bits='64'>
      <parameter type-id='type-id-82'/>
      <parameter type-id='type-id-50'/>
      <return type-id='type-id-110'/>
    </function-decl>
    <function-decl name='wcsrchr' filepath='/usr/include/wchar.h' line='240' column='1' visibility='default' binding='global' size-in-bits='64'>
      <parameter type-id='type-id-82'/>
      <parameter type-id='type-id-50'/>
      <return type-id='type-id-110'/>
    </function-decl>
    <function-decl name='wcscspn' filepath='/usr/include/wchar.h' line='255' column='1' visibility='default' binding='global' size-in-bits='64'>
      <parameter type-id='type-id-82'/>
      <parameter type-id='type-id-82'/>
      <return type-id='type-id-39'/>
    </function-decl>
    <function-decl name='wcsspn' filepath='/usr/include/wchar.h' line='259' column='1' visibility='default' binding='global' size-in-bits='64'>
      <parameter type-id='type-id-82'/>
      <parameter type-id='type-id-82'/>
      <return type-id='type-id-39'/>
    </function-decl>
    <function-decl name='wcspbrk' filepath='/usr/include/wchar.h' line='269' column='1' visibility='default' binding='global' size-in-bits='64'>
      <parameter type-id='type-id-82'/>
      <parameter type-id='type-id-82'/>
      <return type-id='type-id-110'/>
    </function-decl>
    <function-decl name='wcsstr' filepath='/usr/include/wchar.h' line='280' column='1' visibility='default' binding='global' size-in-bits='64'>
      <parameter type-id='type-id-82'/>
      <parameter type-id='type-id-82'/>
      <return type-id='type-id-110'/>
    </function-decl>
    <function-decl name='wcstok' filepath='/usr/include/wchar.h' line='285' column='1' visibility='default' binding='global' size-in-bits='64'>
      <parameter type-id='type-id-111'/>
      <parameter type-id='type-id-83'/>
      <parameter type-id='type-id-113'/>
      <return type-id='type-id-110'/>
    </function-decl>
    <function-decl name='wcslen' filepath='/usr/include/wchar.h' line='290' column='1' visibility='default' binding='global' size-in-bits='64'>
      <parameter type-id='type-id-82'/>
      <return type-id='type-id-39'/>
    </function-decl>
    <function-decl name='wmemchr' filepath='/usr/include/wchar.h' line='323' column='1' visibility='default' binding='global' size-in-bits='64'>
      <parameter type-id='type-id-82'/>
      <parameter type-id='type-id-50'/>
      <parameter type-id='type-id-39'/>
      <return type-id='type-id-110'/>
    </function-decl>
    <function-decl name='wmemcmp' filepath='/usr/include/wchar.h' line='328' column='1' visibility='default' binding='global' size-in-bits='64'>
      <parameter type-id='type-id-82'/>
      <parameter type-id='type-id-82'/>
      <parameter type-id='type-id-39'/>
      <return type-id='type-id-16'/>
    </function-decl>
    <function-decl name='wmemcpy' filepath='/usr/include/wchar.h' line='332' column='1' visibility='default' binding='global' size-in-bits='64'>
      <parameter type-id='type-id-111'/>
      <parameter type-id='type-id-83'/>
      <parameter type-id='type-id-39'/>
      <return type-id='type-id-110'/>
    </function-decl>
    <function-decl name='wmemmove' filepath='/usr/include/wchar.h' line='337' column='1' visibility='default' binding='global' size-in-bits='64'>
      <parameter type-id='type-id-110'/>
      <parameter type-id='type-id-82'/>
      <parameter type-id='type-id-39'/>
      <return type-id='type-id-110'/>
    </function-decl>
    <function-decl name='wmemset' filepath='/usr/include/wchar.h' line='341' column='1' visibility='default' binding='global' size-in-bits='64'>
      <parameter type-id='type-id-110'/>
      <parameter type-id='type-id-50'/>
      <parameter type-id='type-id-39'/>
      <return type-id='type-id-110'/>
    </function-decl>
    <function-decl name='mbsinit' filepath='/usr/include/wchar.h' line='364' column='1' visibility='default' binding='global' size-in-bits='64'>
      <parameter type-id='type-id-72'/>
      <return type-id='type-id-16'/>
    </function-decl>
    <function-decl name='mbrtowc' filepath='/usr/include/wchar.h' line='368' column='1' visibility='default' binding='global' size-in-bits='64'>
      <parameter type-id='type-id-111'/>
      <parameter type-id='type-id-61'/>
      <parameter type-id='type-id-39'/>
      <parameter type-id='type-id-94'/>
      <return type-id='type-id-39'/>
    </function-decl>
    <function-decl name='wcrtomb' filepath='/usr/include/wchar.h' line='373' column='1' visibility='default' binding='global' size-in-bits='64'>
      <parameter type-id='type-id-56'/>
      <parameter type-id='type-id-50'/>
      <parameter type-id='type-id-94'/>
      <return type-id='type-id-39'/>
    </function-decl>
    <function-decl name='btowc' filepath='/usr/include/wchar.h' line='391' column='1' visibility='default' binding='global' size-in-bits='64'>
      <parameter type-id='type-id-16'/>
      <return type-id='type-id-46'/>
    </function-decl>
    <function-decl name='wctob' filepath='/usr/include/wchar.h' line='397' column='1' visibility='default' binding='global' size-in-bits='64'>
      <parameter type-id='type-id-46'/>
      <return type-id='type-id-16'/>
    </function-decl>
    <function-decl name='mbrlen' filepath='/usr/include/wchar.h' line='402' column='1' visibility='default' binding='global' size-in-bits='64'>
      <parameter type-id='type-id-61'/>
      <parameter type-id='type-id-39'/>
      <parameter type-id='type-id-94'/>
      <return type-id='type-id-39'/>
    </function-decl>
    <function-decl name='mbsrtowcs' filepath='/usr/include/wchar.h' line='411' column='1' visibility='default' binding='global' size-in-bits='64'>
      <parameter type-id='type-id-111'/>
      <parameter type-id='type-id-63'/>
      <parameter type-id='type-id-39'/>
      <parameter type-id='type-id-94'/>
      <return type-id='type-id-39'/>
    </function-decl>
    <function-decl name='wcsrtombs' filepath='/usr/include/wchar.h' line='417' column='1' visibility='default' binding='global' size-in-bits='64'>
      <parameter type-id='type-id-56'/>
      <parameter type-id='type-id-85'/>
      <parameter type-id='type-id-39'/>
      <parameter type-id='type-id-94'/>
      <return type-id='type-id-39'/>
    </function-decl>
    <function-decl name='wcstod' filepath='/usr/include/wchar.h' line='453' column='1' visibility='default' binding='global' size-in-bits='64'>
      <parameter type-id='type-id-83'/>
      <parameter type-id='type-id-113'/>
      <return type-id='type-id-14'/>
    </function-decl>
    <function-decl name='wcstof' filepath='/usr/include/wchar.h' line='460' column='1' visibility='default' binding='global' size-in-bits='64'>
      <parameter type-id='type-id-83'/>
      <parameter type-id='type-id-113'/>
      <return type-id='type-id-15'/>
    </function-decl>
    <function-decl name='wcstold' filepath='/usr/include/wchar.h' line='462' column='1' visibility='default' binding='global' size-in-bits='64'>
      <parameter type-id='type-id-83'/>
      <parameter type-id='type-id-113'/>
      <return type-id='type-id-17'/>
    </function-decl>
    <function-decl name='wcstol' filepath='/usr/include/wchar.h' line='471' column='1' visibility='default' binding='global' size-in-bits='64'>
      <parameter type-id='type-id-83'/>
      <parameter type-id='type-id-113'/>
      <parameter type-id='type-id-16'/>
      <return type-id='type-id-18'/>
    </function-decl>
    <function-decl name='wcstoul' filepath='/usr/include/wchar.h' line='476' column='1' visibility='default' binding='global' size-in-bits='64'>
      <parameter type-id='type-id-83'/>
      <parameter type-id='type-id-113'/>
      <parameter type-id='type-id-16'/>
      <return type-id='type-id-38'/>
    </function-decl>
    <function-decl name='wcstoll' filepath='/usr/include/wchar.h' line='486' column='1' visibility='default' binding='global' size-in-bits='64'>
      <parameter type-id='type-id-83'/>
      <parameter type-id='type-id-113'/>
      <parameter type-id='type-id-16'/>
      <return type-id='type-id-19'/>
    </function-decl>
    <function-decl name='wcstoull' filepath='/usr/include/wchar.h' line='493' column='1' visibility='default' binding='global' size-in-bits='64'>
      <parameter type-id='type-id-83'/>
      <parameter type-id='type-id-113'/>
      <parameter type-id='type-id-16'/>
      <return type-id='type-id-49'/>
    </function-decl>
    <function-decl name='fwide' filepath='/usr/include/wchar.h' line='590' column='1' visibility='default' binding='global' size-in-bits='64'>
      <parameter type-id='type-id-53'/>
      <parameter type-id='type-id-16'/>
      <return type-id='type-id-16'/>
    </function-decl>
    <function-decl name='fwprintf' filepath='/usr/include/wchar.h' line='597' column='1' visibility='default' binding='global' size-in-bits='64'>
      <parameter type-id='type-id-54'/>
      <parameter type-id='type-id-83'/>
      <parameter is-variadic='yes'/>
      <return type-id='type-id-16'/>
    </function-decl>
    <function-decl name='wprintf' filepath='/usr/include/wchar.h' line='604' column='1' visibility='default' binding='global' size-in-bits='64'>
      <parameter type-id='type-id-83'/>
      <parameter is-variadic='yes'/>
      <return type-id='type-id-16'/>
    </function-decl>
    <function-decl name='swprintf' filepath='/usr/include/wchar.h' line='607' column='1' visibility='default' binding='global' size-in-bits='64'>
      <parameter type-id='type-id-111'/>
      <parameter type-id='type-id-39'/>
      <parameter type-id='type-id-83'/>
      <parameter is-variadic='yes'/>
      <return type-id='type-id-16'/>
    </function-decl>
    <function-decl name='vfwprintf' filepath='/usr/include/wchar.h' line='615' column='1' visibility='default' binding='global' size-in-bits='64'>
      <parameter type-id='type-id-54'/>
      <parameter type-id='type-id-83'/>
      <parameter type-id='type-id-86'/>
      <return type-id='type-id-16'/>
    </function-decl>
    <function-decl name='vwprintf' filepath='/usr/include/wchar.h' line='623' column='1' visibility='default' binding='global' size-in-bits='64'>
      <parameter type-id='type-id-83'/>
      <parameter type-id='type-id-86'/>
      <return type-id='type-id-16'/>
    </function-decl>
    <function-decl name='vswprintf' filepath='/usr/include/wchar.h' line='628' column='1' visibility='default' binding='global' size-in-bits='64'>
      <parameter type-id='type-id-111'/>
      <parameter type-id='type-id-39'/>
      <parameter type-id='type-id-83'/>
      <parameter type-id='type-id-86'/>
      <return type-id='type-id-16'/>
    </function-decl>
    <function-decl name='fwscanf' filepath='/usr/include/wchar.h' line='638' column='1' visibility='default' binding='global' size-in-bits='64'>
      <parameter type-id='type-id-54'/>
      <parameter type-id='type-id-83'/>
      <parameter is-variadic='yes'/>
      <return type-id='type-id-16'/>
    </function-decl>
    <function-decl name='wscanf' filepath='/usr/include/wchar.h' line='645' column='1' visibility='default' binding='global' size-in-bits='64'>
      <parameter type-id='type-id-83'/>
      <parameter is-variadic='yes'/>
      <return type-id='type-id-16'/>
    </function-decl>
    <function-decl name='swscanf' filepath='/usr/include/wchar.h' line='648' column='1' visibility='default' binding='global' size-in-bits='64'>
      <parameter type-id='type-id-83'/>
      <parameter type-id='type-id-83'/>
      <parameter is-variadic='yes'/>
      <return type-id='type-id-16'/>
    </function-decl>
    <function-decl name='vfwscanf' filepath='/usr/include/wchar.h' line='692' column='1' visibility='default' binding='global' size-in-bits='64'>
      <parameter type-id='type-id-54'/>
      <parameter type-id='type-id-83'/>
      <parameter type-id='type-id-86'/>
      <return type-id='type-id-16'/>
    </function-decl>
    <function-decl name='vwscanf' filepath='/usr/include/wchar.h' line='700' column='1' visibility='default' binding='global' size-in-bits='64'>
      <parameter type-id='type-id-83'/>
      <parameter type-id='type-id-86'/>
      <return type-id='type-id-16'/>
    </function-decl>
    <function-decl name='vswscanf' filepath='/usr/include/wchar.h' line='704' column='1' visibility='default' binding='global' size-in-bits='64'>
      <parameter type-id='type-id-83'/>
      <parameter type-id='type-id-83'/>
      <parameter type-id='type-id-86'/>
      <return type-id='type-id-16'/>
    </function-decl>
    <function-decl name='fgetwc' filepath='/usr/include/wchar.h' line='748' column='1' visibility='default' binding='global' size-in-bits='64'>
      <parameter type-id='type-id-53'/>
      <return type-id='type-id-46'/>
    </function-decl>
    <function-decl name='getwc' filepath='/usr/include/wchar.h' line='749' column='1' visibility='default' binding='global' size-in-bits='64'>
      <parameter type-id='type-id-53'/>
      <return type-id='type-id-46'/>
    </function-decl>
    <function-decl name='getwchar' filepath='/usr/include/wchar.h' line='755' column='1' visibility='default' binding='global' size-in-bits='64'>
      <return type-id='type-id-46'/>
    </function-decl>
    <function-decl name='fputwc' filepath='/usr/include/wchar.h' line='762' column='1' visibility='default' binding='global' size-in-bits='64'>
      <parameter type-id='type-id-50'/>
      <parameter type-id='type-id-53'/>
      <return type-id='type-id-46'/>
    </function-decl>
    <function-decl name='putwc' filepath='/usr/include/wchar.h' line='763' column='1' visibility='default' binding='global' size-in-bits='64'>
      <parameter type-id='type-id-50'/>
      <parameter type-id='type-id-53'/>
      <return type-id='type-id-46'/>
    </function-decl>
    <function-decl name='putwchar' filepath='/usr/include/wchar.h' line='769' column='1' visibility='default' binding='global' size-in-bits='64'>
      <parameter type-id='type-id-50'/>
      <return type-id='type-id-46'/>
    </function-decl>
    <function-decl name='fgetws' filepath='/usr/include/wchar.h' line='777' column='1' visibility='default' binding='global' size-in-bits='64'>
      <parameter type-id='type-id-111'/>
      <parameter type-id='type-id-16'/>
      <parameter type-id='type-id-54'/>
      <return type-id='type-id-110'/>
    </function-decl>
    <function-decl name='fputws' filepath='/usr/include/wchar.h' line='784' column='1' visibility='default' binding='global' size-in-bits='64'>
      <parameter type-id='type-id-83'/>
      <parameter type-id='type-id-54'/>
      <return type-id='type-id-16'/>
    </function-decl>
    <function-decl name='ungetwc' filepath='/usr/include/wchar.h' line='792' column='1' visibility='default' binding='global' size-in-bits='64'>
      <parameter type-id='type-id-46'/>
      <parameter type-id='type-id-53'/>
      <return type-id='type-id-46'/>
    </function-decl>
    <function-decl name='wcsftime' filepath='/usr/include/wchar.h' line='858' column='1' visibility='default' binding='global' size-in-bits='64'>
      <parameter type-id='type-id-111'/>
      <parameter type-id='type-id-39'/>
      <parameter type-id='type-id-83'/>
      <parameter type-id='type-id-179'/>
      <return type-id='type-id-39'/>
    </function-decl>
    <function-decl name='iswalnum' filepath='/usr/include/wctype.h' line='111' column='1' visibility='default' binding='global' size-in-bits='64'>
      <parameter type-id='type-id-46'/>
      <return type-id='type-id-16'/>
    </function-decl>
    <function-decl name='iswalpha' filepath='/usr/include/wctype.h' line='117' column='1' visibility='default' binding='global' size-in-bits='64'>
      <parameter type-id='type-id-46'/>
      <return type-id='type-id-16'/>
    </function-decl>
    <function-decl name='iswcntrl' filepath='/usr/include/wctype.h' line='120' column='1' visibility='default' binding='global' size-in-bits='64'>
      <parameter type-id='type-id-46'/>
      <return type-id='type-id-16'/>
    </function-decl>
    <function-decl name='iswdigit' filepath='/usr/include/wctype.h' line='124' column='1' visibility='default' binding='global' size-in-bits='64'>
      <parameter type-id='type-id-46'/>
      <return type-id='type-id-16'/>
    </function-decl>
    <function-decl name='iswgraph' filepath='/usr/include/wctype.h' line='128' column='1' visibility='default' binding='global' size-in-bits='64'>
      <parameter type-id='type-id-46'/>
      <return type-id='type-id-16'/>
    </function-decl>
    <function-decl name='iswlower' filepath='/usr/include/wctype.h' line='133' column='1' visibility='default' binding='global' size-in-bits='64'>
      <parameter type-id='type-id-46'/>
      <return type-id='type-id-16'/>
    </function-decl>
    <function-decl name='iswprint' filepath='/usr/include/wctype.h' line='136' column='1' visibility='default' binding='global' size-in-bits='64'>
      <parameter type-id='type-id-46'/>
      <return type-id='type-id-16'/>
    </function-decl>
    <function-decl name='iswpunct' filepath='/usr/include/wctype.h' line='141' column='1' visibility='default' binding='global' size-in-bits='64'>
      <parameter type-id='type-id-46'/>
      <return type-id='type-id-16'/>
    </function-decl>
    <function-decl name='iswspace' filepath='/usr/include/wctype.h' line='146' column='1' visibility='default' binding='global' size-in-bits='64'>
      <parameter type-id='type-id-46'/>
      <return type-id='type-id-16'/>
    </function-decl>
    <function-decl name='iswupper' filepath='/usr/include/wctype.h' line='151' column='1' visibility='default' binding='global' size-in-bits='64'>
      <parameter type-id='type-id-46'/>
      <return type-id='type-id-16'/>
    </function-decl>
    <function-decl name='iswxdigit' filepath='/usr/include/wctype.h' line='156' column='1' visibility='default' binding='global' size-in-bits='64'>
      <parameter type-id='type-id-46'/>
      <return type-id='type-id-16'/>
    </function-decl>
    <function-decl name='iswblank' filepath='/usr/include/wctype.h' line='162' column='1' visibility='default' binding='global' size-in-bits='64'>
      <parameter type-id='type-id-46'/>
      <return type-id='type-id-16'/>
    </function-decl>
    <function-decl name='wctype' filepath='/usr/include/wctype.h' line='171' column='1' visibility='default' binding='global' size-in-bits='64'>
      <parameter type-id='type-id-60'/>
      <return type-id='type-id-44'/>
    </function-decl>
    <function-decl name='iswctype' filepath='/usr/include/wctype.h' line='175' column='1' visibility='default' binding='global' size-in-bits='64'>
      <parameter type-id='type-id-46'/>
      <parameter type-id='type-id-44'/>
      <return type-id='type-id-16'/>
    </function-decl>
    <function-decl name='towlower' filepath='/usr/include/wctype.h' line='194' column='1' visibility='default' binding='global' size-in-bits='64'>
      <parameter type-id='type-id-46'/>
      <return type-id='type-id-46'/>
    </function-decl>
    <function-decl name='towupper' filepath='/usr/include/wctype.h' line='197' column='1' visibility='default' binding='global' size-in-bits='64'>
      <parameter type-id='type-id-46'/>
      <return type-id='type-id-46'/>
    </function-decl>
    <function-decl name='wctrans' filepath='/usr/include/wctype.h' line='218' column='1' visibility='default' binding='global' size-in-bits='64'>
      <parameter type-id='type-id-60'/>
      <return type-id='type-id-43'/>
    </function-decl>
    <function-decl name='towctrans' filepath='/usr/include/wctype.h' line='221' column='1' visibility='default' binding='global' size-in-bits='64'>
      <parameter type-id='type-id-46'/>
      <parameter type-id='type-id-43'/>
      <return type-id='type-id-46'/>
    </function-decl>
    <function-decl name='acos' filepath='/usr/include/x86_64-linux-gnu/bits/mathcalls.h' line='54' column='1' visibility='default' binding='global' size-in-bits='64'>
      <parameter type-id='type-id-14'/>
      <return type-id='type-id-14'/>
    </function-decl>
    <function-decl name='asin' filepath='/usr/include/x86_64-linux-gnu/bits/mathcalls.h' line='56' column='1' visibility='default' binding='global' size-in-bits='64'>
      <parameter type-id='type-id-14'/>
      <return type-id='type-id-14'/>
    </function-decl>
    <function-decl name='atan' filepath='/usr/include/x86_64-linux-gnu/bits/mathcalls.h' line='58' column='1' visibility='default' binding='global' size-in-bits='64'>
      <parameter type-id='type-id-14'/>
      <return type-id='type-id-14'/>
    </function-decl>
    <function-decl name='atan2' filepath='/usr/include/x86_64-linux-gnu/bits/mathcalls.h' line='60' column='1' visibility='default' binding='global' size-in-bits='64'>
      <parameter type-id='type-id-14'/>
      <parameter type-id='type-id-14'/>
      <return type-id='type-id-14'/>
    </function-decl>
    <function-decl name='cos' filepath='/usr/include/x86_64-linux-gnu/bits/mathcalls.h' line='63' column='1' visibility='default' binding='global' size-in-bits='64'>
      <parameter type-id='type-id-14'/>
      <return type-id='type-id-14'/>
    </function-decl>
    <function-decl name='sin' filepath='/usr/include/x86_64-linux-gnu/bits/mathcalls.h' line='65' column='1' visibility='default' binding='global' size-in-bits='64'>
      <parameter type-id='type-id-14'/>
      <return type-id='type-id-14'/>
    </function-decl>
    <function-decl name='tan' filepath='/usr/include/x86_64-linux-gnu/bits/mathcalls.h' line='67' column='1' visibility='default' binding='global' size-in-bits='64'>
      <parameter type-id='type-id-14'/>
      <return type-id='type-id-14'/>
    </function-decl>
    <function-decl name='cosh' filepath='/usr/include/x86_64-linux-gnu/bits/mathcalls.h' line='72' column='1' visibility='default' binding='global' size-in-bits='64'>
      <parameter type-id='type-id-14'/>
      <return type-id='type-id-14'/>
    </function-decl>
    <function-decl name='sinh' filepath='/usr/include/x86_64-linux-gnu/bits/mathcalls.h' line='74' column='1' visibility='default' binding='global' size-in-bits='64'>
      <parameter type-id='type-id-14'/>
      <return type-id='type-id-14'/>
    </function-decl>
    <function-decl name='tanh' filepath='/usr/include/x86_64-linux-gnu/bits/mathcalls.h' line='76' column='1' visibility='default' binding='global' size-in-bits='64'>
      <parameter type-id='type-id-14'/>
      <return type-id='type-id-14'/>
    </function-decl>
    <function-decl name='acosh' filepath='/usr/include/x86_64-linux-gnu/bits/mathcalls.h' line='88' column='1' visibility='default' binding='global' size-in-bits='64'>
      <parameter type-id='type-id-14'/>
      <return type-id='type-id-14'/>
    </function-decl>
    <function-decl name='acoshf' filepath='/usr/include/x86_64-linux-gnu/bits/mathcalls.h' line='88' column='1' visibility='default' binding='global' size-in-bits='64'>
      <parameter type-id='type-id-15'/>
      <return type-id='type-id-15'/>
    </function-decl>
    <function-decl name='acoshl' filepath='/usr/include/x86_64-linux-gnu/bits/mathcalls.h' line='88' column='1' visibility='default' binding='global' size-in-bits='64'>
      <parameter type-id='type-id-17'/>
      <return type-id='type-id-17'/>
    </function-decl>
    <function-decl name='asinh' filepath='/usr/include/x86_64-linux-gnu/bits/mathcalls.h' line='90' column='1' visibility='default' binding='global' size-in-bits='64'>
      <parameter type-id='type-id-14'/>
      <return type-id='type-id-14'/>
    </function-decl>
    <function-decl name='asinhf' filepath='/usr/include/x86_64-linux-gnu/bits/mathcalls.h' line='90' column='1' visibility='default' binding='global' size-in-bits='64'>
      <parameter type-id='type-id-15'/>
      <return type-id='type-id-15'/>
    </function-decl>
    <function-decl name='asinhl' filepath='/usr/include/x86_64-linux-gnu/bits/mathcalls.h' line='90' column='1' visibility='default' binding='global' size-in-bits='64'>
      <parameter type-id='type-id-17'/>
      <return type-id='type-id-17'/>
    </function-decl>
    <function-decl name='atanh' filepath='/usr/include/x86_64-linux-gnu/bits/mathcalls.h' line='92' column='1' visibility='default' binding='global' size-in-bits='64'>
      <parameter type-id='type-id-14'/>
      <return type-id='type-id-14'/>
    </function-decl>
    <function-decl name='atanhf' filepath='/usr/include/x86_64-linux-gnu/bits/mathcalls.h' line='92' column='1' visibility='default' binding='global' size-in-bits='64'>
      <parameter type-id='type-id-15'/>
      <return type-id='type-id-15'/>
    </function-decl>
    <function-decl name='atanhl' filepath='/usr/include/x86_64-linux-gnu/bits/mathcalls.h' line='92' column='1' visibility='default' binding='global' size-in-bits='64'>
      <parameter type-id='type-id-17'/>
      <return type-id='type-id-17'/>
    </function-decl>
    <function-decl name='exp' filepath='/usr/include/x86_64-linux-gnu/bits/mathcalls.h' line='100' column='1' visibility='default' binding='global' size-in-bits='64'>
      <parameter type-id='type-id-14'/>
      <return type-id='type-id-14'/>
    </function-decl>
    <function-decl name='frexp' filepath='/usr/include/x86_64-linux-gnu/bits/mathcalls.h' line='103' column='1' visibility='default' binding='global' size-in-bits='64'>
      <parameter type-id='type-id-14'/>
      <parameter type-id='type-id-91'/>
      <return type-id='type-id-14'/>
    </function-decl>
    <function-decl name='ldexp' filepath='/usr/include/x86_64-linux-gnu/bits/mathcalls.h' line='106' column='1' visibility='default' binding='global' size-in-bits='64'>
      <parameter type-id='type-id-14'/>
      <parameter type-id='type-id-16'/>
      <return type-id='type-id-14'/>
    </function-decl>
    <function-decl name='log' filepath='/usr/include/x86_64-linux-gnu/bits/mathcalls.h' line='109' column='1' visibility='default' binding='global' size-in-bits='64'>
      <parameter type-id='type-id-14'/>
      <return type-id='type-id-14'/>
    </function-decl>
    <function-decl name='log10' filepath='/usr/include/x86_64-linux-gnu/bits/mathcalls.h' line='112' column='1' visibility='default' binding='global' size-in-bits='64'>
      <parameter type-id='type-id-14'/>
      <return type-id='type-id-14'/>
    </function-decl>
    <function-decl name='modf' filepath='/usr/include/x86_64-linux-gnu/bits/mathcalls.h' line='115' column='1' visibility='default' binding='global' size-in-bits='64'>
      <parameter type-id='type-id-14'/>
      <parameter type-id='type-id-87'/>
      <return type-id='type-id-14'/>
    </function-decl>
    <function-decl name='expm1' filepath='/usr/include/x86_64-linux-gnu/bits/mathcalls.h' line='128' column='1' visibility='default' binding='global' size-in-bits='64'>
      <parameter type-id='type-id-14'/>
      <return type-id='type-id-14'/>
    </function-decl>
    <function-decl name='expm1f' filepath='/usr/include/x86_64-linux-gnu/bits/mathcalls.h' line='128' column='1' visibility='default' binding='global' size-in-bits='64'>
      <parameter type-id='type-id-15'/>
      <return type-id='type-id-15'/>
    </function-decl>
    <function-decl name='expm1l' filepath='/usr/include/x86_64-linux-gnu/bits/mathcalls.h' line='128' column='1' visibility='default' binding='global' size-in-bits='64'>
      <parameter type-id='type-id-17'/>
      <return type-id='type-id-17'/>
    </function-decl>
    <function-decl name='log1p' filepath='/usr/include/x86_64-linux-gnu/bits/mathcalls.h' line='131' column='1' visibility='default' binding='global' size-in-bits='64'>
      <parameter type-id='type-id-14'/>
      <return type-id='type-id-14'/>
    </function-decl>
    <function-decl name='log1pf' filepath='/usr/include/x86_64-linux-gnu/bits/mathcalls.h' line='131' column='1' visibility='default' binding='global' size-in-bits='64'>
      <parameter type-id='type-id-15'/>
      <return type-id='type-id-15'/>
    </function-decl>
    <function-decl name='log1pl' filepath='/usr/include/x86_64-linux-gnu/bits/mathcalls.h' line='131' column='1' visibility='default' binding='global' size-in-bits='64'>
      <parameter type-id='type-id-17'/>
      <return type-id='type-id-17'/>
    </function-decl>
    <function-decl name='logb' filepath='/usr/include/x86_64-linux-gnu/bits/mathcalls.h' line='134' column='1' visibility='default' binding='global' size-in-bits='64'>
      <parameter type-id='type-id-14'/>
      <return type-id='type-id-14'/>
    </function-decl>
    <function-decl name='logbf' filepath='/usr/include/x86_64-linux-gnu/bits/mathcalls.h' line='134' column='1' visibility='default' binding='global' size-in-bits='64'>
      <parameter type-id='type-id-15'/>
      <return type-id='type-id-15'/>
    </function-decl>
    <function-decl name='logbl' filepath='/usr/include/x86_64-linux-gnu/bits/mathcalls.h' line='134' column='1' visibility='default' binding='global' size-in-bits='64'>
      <parameter type-id='type-id-17'/>
      <return type-id='type-id-17'/>
    </function-decl>
    <function-decl name='exp2' filepath='/usr/include/x86_64-linux-gnu/bits/mathcalls.h' line='141' column='1' visibility='default' binding='global' size-in-bits='64'>
      <parameter type-id='type-id-14'/>
      <return type-id='type-id-14'/>
    </function-decl>
    <function-decl name='exp2f' filepath='/usr/include/x86_64-linux-gnu/bits/mathcalls.h' line='141' column='1' visibility='default' binding='global' size-in-bits='64'>
      <parameter type-id='type-id-15'/>
      <return type-id='type-id-15'/>
    </function-decl>
    <function-decl name='exp2l' filepath='/usr/include/x86_64-linux-gnu/bits/mathcalls.h' line='141' column='1' visibility='default' binding='global' size-in-bits='64'>
      <parameter type-id='type-id-17'/>
      <return type-id='type-id-17'/>
    </function-decl>
    <function-decl name='log2' filepath='/usr/include/x86_64-linux-gnu/bits/mathcalls.h' line='144' column='1' visibility='default' binding='global' size-in-bits='64'>
      <parameter type-id='type-id-14'/>
      <return type-id='type-id-14'/>
    </function-decl>
    <function-decl name='log2f' filepath='/usr/include/x86_64-linux-gnu/bits/mathcalls.h' line='144' column='1' visibility='default' binding='global' size-in-bits='64'>
      <parameter type-id='type-id-15'/>
      <return type-id='type-id-15'/>
    </function-decl>
    <function-decl name='log2l' filepath='/usr/include/x86_64-linux-gnu/bits/mathcalls.h' line='144' column='1' visibility='default' binding='global' size-in-bits='64'>
      <parameter type-id='type-id-17'/>
      <return type-id='type-id-17'/>
    </function-decl>
    <function-decl name='pow' filepath='/usr/include/x86_64-linux-gnu/bits/mathcalls.h' line='153' column='1' visibility='default' binding='global' size-in-bits='64'>
      <parameter type-id='type-id-14'/>
      <parameter type-id='type-id-14'/>
      <return type-id='type-id-14'/>
    </function-decl>
    <function-decl name='sqrt' filepath='/usr/include/x86_64-linux-gnu/bits/mathcalls.h' line='156' column='1' visibility='default' binding='global' size-in-bits='64'>
      <parameter type-id='type-id-14'/>
      <return type-id='type-id-14'/>
    </function-decl>
    <function-decl name='hypot' filepath='/usr/include/x86_64-linux-gnu/bits/mathcalls.h' line='162' column='1' visibility='default' binding='global' size-in-bits='64'>
      <parameter type-id='type-id-14'/>
      <parameter type-id='type-id-14'/>
      <return type-id='type-id-14'/>
    </function-decl>
    <function-decl name='hypotf' filepath='/usr/include/x86_64-linux-gnu/bits/mathcalls.h' line='162' column='1' visibility='default' binding='global' size-in-bits='64'>
      <parameter type-id='type-id-15'/>
      <parameter type-id='type-id-15'/>
      <return type-id='type-id-15'/>
    </function-decl>
    <function-decl name='hypotl' filepath='/usr/include/x86_64-linux-gnu/bits/mathcalls.h' line='162' column='1' visibility='default' binding='global' size-in-bits='64'>
      <parameter type-id='type-id-17'/>
      <parameter type-id='type-id-17'/>
      <return type-id='type-id-17'/>
    </function-decl>
    <function-decl name='cbrt' filepath='/usr/include/x86_64-linux-gnu/bits/mathcalls.h' line='169' column='1' visibility='default' binding='global' size-in-bits='64'>
      <parameter type-id='type-id-14'/>
      <return type-id='type-id-14'/>
    </function-decl>
    <function-decl name='cbrtf' filepath='/usr/include/x86_64-linux-gnu/bits/mathcalls.h' line='169' column='1' visibility='default' binding='global' size-in-bits='64'>
      <parameter type-id='type-id-15'/>
      <return type-id='type-id-15'/>
    </function-decl>
    <function-decl name='cbrtl' filepath='/usr/include/x86_64-linux-gnu/bits/mathcalls.h' line='169' column='1' visibility='default' binding='global' size-in-bits='64'>
      <parameter type-id='type-id-17'/>
      <return type-id='type-id-17'/>
    </function-decl>
    <function-decl name='ceil' filepath='/usr/include/x86_64-linux-gnu/bits/mathcalls.h' line='178' column='1' visibility='default' binding='global' size-in-bits='64'>
      <parameter type-id='type-id-14'/>
      <return type-id='type-id-14'/>
    </function-decl>
    <function-decl name='fabs' filepath='/usr/include/x86_64-linux-gnu/bits/mathcalls.h' line='181' column='1' visibility='default' binding='global' size-in-bits='64'>
      <parameter type-id='type-id-14'/>
      <return type-id='type-id-14'/>
    </function-decl>
    <function-decl name='floor' filepath='/usr/include/x86_64-linux-gnu/bits/mathcalls.h' line='184' column='1' visibility='default' binding='global' size-in-bits='64'>
      <parameter type-id='type-id-14'/>
      <return type-id='type-id-14'/>
    </function-decl>
    <function-decl name='fmod' filepath='/usr/include/x86_64-linux-gnu/bits/mathcalls.h' line='187' column='1' visibility='default' binding='global' size-in-bits='64'>
      <parameter type-id='type-id-14'/>
      <parameter type-id='type-id-14'/>
      <return type-id='type-id-14'/>
    </function-decl>
    <function-decl name='copysign' filepath='/usr/include/x86_64-linux-gnu/bits/mathcalls.h' line='221' column='1' visibility='default' binding='global' size-in-bits='64'>
      <parameter type-id='type-id-14'/>
      <parameter type-id='type-id-14'/>
      <return type-id='type-id-14'/>
    </function-decl>
    <function-decl name='copysignf' filepath='/usr/include/x86_64-linux-gnu/bits/mathcalls.h' line='221' column='1' visibility='default' binding='global' size-in-bits='64'>
      <parameter type-id='type-id-15'/>
      <parameter type-id='type-id-15'/>
      <return type-id='type-id-15'/>
    </function-decl>
    <function-decl name='copysignl' filepath='/usr/include/x86_64-linux-gnu/bits/mathcalls.h' line='221' column='1' visibility='default' binding='global' size-in-bits='64'>
      <parameter type-id='type-id-17'/>
      <parameter type-id='type-id-17'/>
      <return type-id='type-id-17'/>
    </function-decl>
    <function-decl name='nan' filepath='/usr/include/x86_64-linux-gnu/bits/mathcalls.h' line='228' column='1' visibility='default' binding='global' size-in-bits='64'>
      <parameter type-id='type-id-60'/>
      <return type-id='type-id-14'/>
    </function-decl>
    <function-decl name='nanf' filepath='/usr/include/x86_64-linux-gnu/bits/mathcalls.h' line='228' column='1' visibility='default' binding='global' size-in-bits='64'>
      <parameter type-id='type-id-60'/>
      <return type-id='type-id-15'/>
    </function-decl>
    <function-decl name='nanl' filepath='/usr/include/x86_64-linux-gnu/bits/mathcalls.h' line='228' column='1' visibility='default' binding='global' size-in-bits='64'>
      <parameter type-id='type-id-60'/>
      <return type-id='type-id-17'/>
    </function-decl>
    <function-decl name='erf' filepath='/usr/include/x86_64-linux-gnu/bits/mathcalls.h' line='259' column='1' visibility='default' binding='global' size-in-bits='64'>
      <parameter type-id='type-id-14'/>
      <return type-id='type-id-14'/>
    </function-decl>
    <function-decl name='erff' filepath='/usr/include/x86_64-linux-gnu/bits/mathcalls.h' line='259' column='1' visibility='default' binding='global' size-in-bits='64'>
      <parameter type-id='type-id-15'/>
      <return type-id='type-id-15'/>
    </function-decl>
    <function-decl name='erfl' filepath='/usr/include/x86_64-linux-gnu/bits/mathcalls.h' line='259' column='1' visibility='default' binding='global' size-in-bits='64'>
      <parameter type-id='type-id-17'/>
      <return type-id='type-id-17'/>
    </function-decl>
    <function-decl name='erfc' filepath='/usr/include/x86_64-linux-gnu/bits/mathcalls.h' line='260' column='1' visibility='default' binding='global' size-in-bits='64'>
      <parameter type-id='type-id-14'/>
      <return type-id='type-id-14'/>
    </function-decl>
    <function-decl name='erfcf' filepath='/usr/include/x86_64-linux-gnu/bits/mathcalls.h' line='260' column='1' visibility='default' binding='global' size-in-bits='64'>
      <parameter type-id='type-id-15'/>
      <return type-id='type-id-15'/>
    </function-decl>
    <function-decl name='erfcl' filepath='/usr/include/x86_64-linux-gnu/bits/mathcalls.h' line='260' column='1' visibility='default' binding='global' size-in-bits='64'>
      <parameter type-id='type-id-17'/>
      <return type-id='type-id-17'/>
    </function-decl>
    <function-decl name='lgamma' filepath='/usr/include/x86_64-linux-gnu/bits/mathcalls.h' line='261' column='1' visibility='default' binding='global' size-in-bits='64'>
      <parameter type-id='type-id-14'/>
      <return type-id='type-id-14'/>
    </function-decl>
    <function-decl name='lgammaf' filepath='/usr/include/x86_64-linux-gnu/bits/mathcalls.h' line='261' column='1' visibility='default' binding='global' size-in-bits='64'>
      <parameter type-id='type-id-15'/>
      <return type-id='type-id-15'/>
    </function-decl>
    <function-decl name='lgammal' filepath='/usr/include/x86_64-linux-gnu/bits/mathcalls.h' line='261' column='1' visibility='default' binding='global' size-in-bits='64'>
      <parameter type-id='type-id-17'/>
      <return type-id='type-id-17'/>
    </function-decl>
    <function-decl name='tgamma' filepath='/usr/include/x86_64-linux-gnu/bits/mathcalls.h' line='268' column='1' visibility='default' binding='global' size-in-bits='64'>
      <parameter type-id='type-id-14'/>
      <return type-id='type-id-14'/>
    </function-decl>
    <function-decl name='tgammaf' filepath='/usr/include/x86_64-linux-gnu/bits/mathcalls.h' line='268' column='1' visibility='default' binding='global' size-in-bits='64'>
      <parameter type-id='type-id-15'/>
      <return type-id='type-id-15'/>
    </function-decl>
    <function-decl name='tgammal' filepath='/usr/include/x86_64-linux-gnu/bits/mathcalls.h' line='268' column='1' visibility='default' binding='global' size-in-bits='64'>
      <parameter type-id='type-id-17'/>
      <return type-id='type-id-17'/>
    </function-decl>
    <function-decl name='rint' filepath='/usr/include/x86_64-linux-gnu/bits/mathcalls.h' line='289' column='1' visibility='default' binding='global' size-in-bits='64'>
      <parameter type-id='type-id-14'/>
      <return type-id='type-id-14'/>
    </function-decl>
    <function-decl name='rintf' filepath='/usr/include/x86_64-linux-gnu/bits/mathcalls.h' line='289' column='1' visibility='default' binding='global' size-in-bits='64'>
      <parameter type-id='type-id-15'/>
      <return type-id='type-id-15'/>
    </function-decl>
    <function-decl name='rintl' filepath='/usr/include/x86_64-linux-gnu/bits/mathcalls.h' line='289' column='1' visibility='default' binding='global' size-in-bits='64'>
      <parameter type-id='type-id-17'/>
      <return type-id='type-id-17'/>
    </function-decl>
    <function-decl name='nextafter' filepath='/usr/include/x86_64-linux-gnu/bits/mathcalls.h' line='292' column='1' visibility='default' binding='global' size-in-bits='64'>
      <parameter type-id='type-id-14'/>
      <parameter type-id='type-id-14'/>
      <return type-id='type-id-14'/>
    </function-decl>
    <function-decl name='nextafterf' filepath='/usr/include/x86_64-linux-gnu/bits/mathcalls.h' line='292' column='1' visibility='default' binding='global' size-in-bits='64'>
      <parameter type-id='type-id-15'/>
      <parameter type-id='type-id-15'/>
      <return type-id='type-id-15'/>
    </function-decl>
    <function-decl name='nextafterl' filepath='/usr/include/x86_64-linux-gnu/bits/mathcalls.h' line='292' column='1' visibility='default' binding='global' size-in-bits='64'>
      <parameter type-id='type-id-17'/>
      <parameter type-id='type-id-17'/>
      <return type-id='type-id-17'/>
    </function-decl>
    <function-decl name='nexttoward' filepath='/usr/include/x86_64-linux-gnu/bits/mathcalls.h' line='294' column='1' visibility='default' binding='global' size-in-bits='64'>
      <parameter type-id='type-id-14'/>
      <parameter type-id='type-id-17'/>
      <return type-id='type-id-14'/>
    </function-decl>
    <function-decl name='nexttowardf' filepath='/usr/include/x86_64-linux-gnu/bits/mathcalls.h' line='294' column='1' visibility='default' binding='global' size-in-bits='64'>
      <parameter type-id='type-id-15'/>
      <parameter type-id='type-id-17'/>
      <return type-id='type-id-15'/>
    </function-decl>
    <function-decl name='nexttowardl' filepath='/usr/include/x86_64-linux-gnu/bits/mathcalls.h' line='294' column='1' visibility='default' binding='global' size-in-bits='64'>
      <parameter type-id='type-id-17'/>
      <parameter type-id='type-id-17'/>
      <return type-id='type-id-17'/>
    </function-decl>
    <function-decl name='remainder' filepath='/usr/include/x86_64-linux-gnu/bits/mathcalls.h' line='298' column='1' visibility='default' binding='global' size-in-bits='64'>
      <parameter type-id='type-id-14'/>
      <parameter type-id='type-id-14'/>
      <return type-id='type-id-14'/>
    </function-decl>
    <function-decl name='remainderf' filepath='/usr/include/x86_64-linux-gnu/bits/mathcalls.h' line='298' column='1' visibility='default' binding='global' size-in-bits='64'>
      <parameter type-id='type-id-15'/>
      <parameter type-id='type-id-15'/>
      <return type-id='type-id-15'/>
    </function-decl>
    <function-decl name='remainderl' filepath='/usr/include/x86_64-linux-gnu/bits/mathcalls.h' line='298' column='1' visibility='default' binding='global' size-in-bits='64'>
      <parameter type-id='type-id-17'/>
      <parameter type-id='type-id-17'/>
      <return type-id='type-id-17'/>
    </function-decl>
    <function-decl name='scalbn' filepath='/usr/include/x86_64-linux-gnu/bits/mathcalls.h' line='302' column='1' visibility='default' binding='global' size-in-bits='64'>
      <parameter type-id='type-id-14'/>
      <parameter type-id='type-id-16'/>
      <return type-id='type-id-14'/>
    </function-decl>
    <function-decl name='scalbnf' filepath='/usr/include/x86_64-linux-gnu/bits/mathcalls.h' line='302' column='1' visibility='default' binding='global' size-in-bits='64'>
      <parameter type-id='type-id-15'/>
      <parameter type-id='type-id-16'/>
      <return type-id='type-id-15'/>
    </function-decl>
    <function-decl name='scalbnl' filepath='/usr/include/x86_64-linux-gnu/bits/mathcalls.h' line='302' column='1' visibility='default' binding='global' size-in-bits='64'>
      <parameter type-id='type-id-17'/>
      <parameter type-id='type-id-16'/>
      <return type-id='type-id-17'/>
    </function-decl>
    <function-decl name='ilogb' filepath='/usr/include/x86_64-linux-gnu/bits/mathcalls.h' line='306' column='1' visibility='default' binding='global' size-in-bits='64'>
      <parameter type-id='type-id-14'/>
      <return type-id='type-id-16'/>
    </function-decl>
    <function-decl name='ilogbf' filepath='/usr/include/x86_64-linux-gnu/bits/mathcalls.h' line='306' column='1' visibility='default' binding='global' size-in-bits='64'>
      <parameter type-id='type-id-15'/>
      <return type-id='type-id-16'/>
    </function-decl>
    <function-decl name='ilogbl' filepath='/usr/include/x86_64-linux-gnu/bits/mathcalls.h' line='306' column='1' visibility='default' binding='global' size-in-bits='64'>
      <parameter type-id='type-id-17'/>
      <return type-id='type-id-16'/>
    </function-decl>
    <function-decl name='scalbln' filepath='/usr/include/x86_64-linux-gnu/bits/mathcalls.h' line='311' column='1' visibility='default' binding='global' size-in-bits='64'>
      <parameter type-id='type-id-14'/>
      <parameter type-id='type-id-18'/>
      <return type-id='type-id-14'/>
    </function-decl>
    <function-decl name='scalblnf' filepath='/usr/include/x86_64-linux-gnu/bits/mathcalls.h' line='311' column='1' visibility='default' binding='global' size-in-bits='64'>
      <parameter type-id='type-id-15'/>
      <parameter type-id='type-id-18'/>
      <return type-id='type-id-15'/>
    </function-decl>
    <function-decl name='scalblnl' filepath='/usr/include/x86_64-linux-gnu/bits/mathcalls.h' line='311' column='1' visibility='default' binding='global' size-in-bits='64'>
      <parameter type-id='type-id-17'/>
      <parameter type-id='type-id-18'/>
      <return type-id='type-id-17'/>
    </function-decl>
    <function-decl name='nearbyint' filepath='/usr/include/x86_64-linux-gnu/bits/mathcalls.h' line='315' column='1' visibility='default' binding='global' size-in-bits='64'>
      <parameter type-id='type-id-14'/>
      <return type-id='type-id-14'/>
    </function-decl>
    <function-decl name='nearbyintf' filepath='/usr/include/x86_64-linux-gnu/bits/mathcalls.h' line='315' column='1' visibility='default' binding='global' size-in-bits='64'>
      <parameter type-id='type-id-15'/>
      <return type-id='type-id-15'/>
    </function-decl>
    <function-decl name='nearbyintl' filepath='/usr/include/x86_64-linux-gnu/bits/mathcalls.h' line='315' column='1' visibility='default' binding='global' size-in-bits='64'>
      <parameter type-id='type-id-17'/>
      <return type-id='type-id-17'/>
    </function-decl>
    <function-decl name='round' filepath='/usr/include/x86_64-linux-gnu/bits/mathcalls.h' line='319' column='1' visibility='default' binding='global' size-in-bits='64'>
      <parameter type-id='type-id-14'/>
      <return type-id='type-id-14'/>
    </function-decl>
    <function-decl name='roundf' filepath='/usr/include/x86_64-linux-gnu/bits/mathcalls.h' line='319' column='1' visibility='default' binding='global' size-in-bits='64'>
      <parameter type-id='type-id-15'/>
      <return type-id='type-id-15'/>
    </function-decl>
    <function-decl name='roundl' filepath='/usr/include/x86_64-linux-gnu/bits/mathcalls.h' line='319' column='1' visibility='default' binding='global' size-in-bits='64'>
      <parameter type-id='type-id-17'/>
      <return type-id='type-id-17'/>
    </function-decl>
    <function-decl name='trunc' filepath='/usr/include/x86_64-linux-gnu/bits/mathcalls.h' line='323' column='1' visibility='default' binding='global' size-in-bits='64'>
      <parameter type-id='type-id-14'/>
      <return type-id='type-id-14'/>
    </function-decl>
    <function-decl name='truncf' filepath='/usr/include/x86_64-linux-gnu/bits/mathcalls.h' line='323' column='1' visibility='default' binding='global' size-in-bits='64'>
      <parameter type-id='type-id-15'/>
      <return type-id='type-id-15'/>
    </function-decl>
    <function-decl name='truncl' filepath='/usr/include/x86_64-linux-gnu/bits/mathcalls.h' line='323' column='1' visibility='default' binding='global' size-in-bits='64'>
      <parameter type-id='type-id-17'/>
      <return type-id='type-id-17'/>
    </function-decl>
    <function-decl name='remquo' filepath='/usr/include/x86_64-linux-gnu/bits/mathcalls.h' line='328' column='1' visibility='default' binding='global' size-in-bits='64'>
      <parameter type-id='type-id-14'/>
      <parameter type-id='type-id-14'/>
      <parameter type-id='type-id-91'/>
      <return type-id='type-id-14'/>
    </function-decl>
    <function-decl name='remquof' filepath='/usr/include/x86_64-linux-gnu/bits/mathcalls.h' line='328' column='1' visibility='default' binding='global' size-in-bits='64'>
      <parameter type-id='type-id-15'/>
      <parameter type-id='type-id-15'/>
      <parameter type-id='type-id-91'/>
      <return type-id='type-id-15'/>
    </function-decl>
    <function-decl name='remquol' filepath='/usr/include/x86_64-linux-gnu/bits/mathcalls.h' line='328' column='1' visibility='default' binding='global' size-in-bits='64'>
      <parameter type-id='type-id-17'/>
      <parameter type-id='type-id-17'/>
      <parameter type-id='type-id-91'/>
      <return type-id='type-id-17'/>
    </function-decl>
    <function-decl name='lrint' filepath='/usr/include/x86_64-linux-gnu/bits/mathcalls.h' line='335' column='1' visibility='default' binding='global' size-in-bits='64'>
      <parameter type-id='type-id-14'/>
      <return type-id='type-id-18'/>
    </function-decl>
    <function-decl name='lrintf' filepath='/usr/include/x86_64-linux-gnu/bits/mathcalls.h' line='335' column='1' visibility='default' binding='global' size-in-bits='64'>
      <parameter type-id='type-id-15'/>
      <return type-id='type-id-18'/>
    </function-decl>
    <function-decl name='lrintl' filepath='/usr/include/x86_64-linux-gnu/bits/mathcalls.h' line='335' column='1' visibility='default' binding='global' size-in-bits='64'>
      <parameter type-id='type-id-17'/>
      <return type-id='type-id-18'/>
    </function-decl>
    <function-decl name='llrint' filepath='/usr/include/x86_64-linux-gnu/bits/mathcalls.h' line='337' column='1' visibility='default' binding='global' size-in-bits='64'>
      <parameter type-id='type-id-14'/>
      <return type-id='type-id-19'/>
    </function-decl>
    <function-decl name='llrintf' filepath='/usr/include/x86_64-linux-gnu/bits/mathcalls.h' line='337' column='1' visibility='default' binding='global' size-in-bits='64'>
      <parameter type-id='type-id-15'/>
      <return type-id='type-id-19'/>
    </function-decl>
    <function-decl name='llrintl' filepath='/usr/include/x86_64-linux-gnu/bits/mathcalls.h' line='337' column='1' visibility='default' binding='global' size-in-bits='64'>
      <parameter type-id='type-id-17'/>
      <return type-id='type-id-19'/>
    </function-decl>
    <function-decl name='lround' filepath='/usr/include/x86_64-linux-gnu/bits/mathcalls.h' line='341' column='1' visibility='default' binding='global' size-in-bits='64'>
      <parameter type-id='type-id-14'/>
      <return type-id='type-id-18'/>
    </function-decl>
    <function-decl name='lroundf' filepath='/usr/include/x86_64-linux-gnu/bits/mathcalls.h' line='341' column='1' visibility='default' binding='global' size-in-bits='64'>
      <parameter type-id='type-id-15'/>
      <return type-id='type-id-18'/>
    </function-decl>
    <function-decl name='lroundl' filepath='/usr/include/x86_64-linux-gnu/bits/mathcalls.h' line='341' column='1' visibility='default' binding='global' size-in-bits='64'>
      <parameter type-id='type-id-17'/>
      <return type-id='type-id-18'/>
    </function-decl>
    <function-decl name='llround' filepath='/usr/include/x86_64-linux-gnu/bits/mathcalls.h' line='343' column='1' visibility='default' binding='global' size-in-bits='64'>
      <parameter type-id='type-id-14'/>
      <return type-id='type-id-19'/>
    </function-decl>
    <function-decl name='llroundf' filepath='/usr/include/x86_64-linux-gnu/bits/mathcalls.h' line='343' column='1' visibility='default' binding='global' size-in-bits='64'>
      <parameter type-id='type-id-15'/>
      <return type-id='type-id-19'/>
    </function-decl>
    <function-decl name='llroundl' filepath='/usr/include/x86_64-linux-gnu/bits/mathcalls.h' line='343' column='1' visibility='default' binding='global' size-in-bits='64'>
      <parameter type-id='type-id-17'/>
      <return type-id='type-id-19'/>
    </function-decl>
    <function-decl name='fdim' filepath='/usr/include/x86_64-linux-gnu/bits/mathcalls.h' line='347' column='1' visibility='default' binding='global' size-in-bits='64'>
      <parameter type-id='type-id-14'/>
      <parameter type-id='type-id-14'/>
      <return type-id='type-id-14'/>
    </function-decl>
    <function-decl name='fdimf' filepath='/usr/include/x86_64-linux-gnu/bits/mathcalls.h' line='347' column='1' visibility='default' binding='global' size-in-bits='64'>
      <parameter type-id='type-id-15'/>
      <parameter type-id='type-id-15'/>
      <return type-id='type-id-15'/>
    </function-decl>
    <function-decl name='fdiml' filepath='/usr/include/x86_64-linux-gnu/bits/mathcalls.h' line='347' column='1' visibility='default' binding='global' size-in-bits='64'>
      <parameter type-id='type-id-17'/>
      <parameter type-id='type-id-17'/>
      <return type-id='type-id-17'/>
    </function-decl>
    <function-decl name='fmax' filepath='/usr/include/x86_64-linux-gnu/bits/mathcalls.h' line='350' column='1' visibility='default' binding='global' size-in-bits='64'>
      <parameter type-id='type-id-14'/>
      <parameter type-id='type-id-14'/>
      <return type-id='type-id-14'/>
    </function-decl>
    <function-decl name='fmaxf' filepath='/usr/include/x86_64-linux-gnu/bits/mathcalls.h' line='350' column='1' visibility='default' binding='global' size-in-bits='64'>
      <parameter type-id='type-id-15'/>
      <parameter type-id='type-id-15'/>
      <return type-id='type-id-15'/>
    </function-decl>
    <function-decl name='fmaxl' filepath='/usr/include/x86_64-linux-gnu/bits/mathcalls.h' line='350' column='1' visibility='default' binding='global' size-in-bits='64'>
      <parameter type-id='type-id-17'/>
      <parameter type-id='type-id-17'/>
      <return type-id='type-id-17'/>
    </function-decl>
    <function-decl name='fmin' filepath='/usr/include/x86_64-linux-gnu/bits/mathcalls.h' line='353' column='1' visibility='default' binding='global' size-in-bits='64'>
      <parameter type-id='type-id-14'/>
      <parameter type-id='type-id-14'/>
      <return type-id='type-id-14'/>
    </function-decl>
    <function-decl name='fminf' filepath='/usr/include/x86_64-linux-gnu/bits/mathcalls.h' line='353' column='1' visibility='default' binding='global' size-in-bits='64'>
      <parameter type-id='type-id-15'/>
      <parameter type-id='type-id-15'/>
      <return type-id='type-id-15'/>
    </function-decl>
    <function-decl name='fminl' filepath='/usr/include/x86_64-linux-gnu/bits/mathcalls.h' line='353' column='1' visibility='default' binding='global' size-in-bits='64'>
      <parameter type-id='type-id-17'/>
      <parameter type-id='type-id-17'/>
      <return type-id='type-id-17'/>
    </function-decl>
    <function-decl name='fma' filepath='/usr/include/x86_64-linux-gnu/bits/mathcalls.h' line='366' column='1' visibility='default' binding='global' size-in-bits='64'>
      <parameter type-id='type-id-14'/>
      <parameter type-id='type-id-14'/>
      <parameter type-id='type-id-14'/>
      <return type-id='type-id-14'/>
    </function-decl>
    <function-decl name='fmaf' filepath='/usr/include/x86_64-linux-gnu/bits/mathcalls.h' line='366' column='1' visibility='default' binding='global' size-in-bits='64'>
      <parameter type-id='type-id-15'/>
      <parameter type-id='type-id-15'/>
      <parameter type-id='type-id-15'/>
      <return type-id='type-id-15'/>
    </function-decl>
    <function-decl name='fmal' filepath='/usr/include/x86_64-linux-gnu/bits/mathcalls.h' line='366' column='1' visibility='default' binding='global' size-in-bits='64'>
      <parameter type-id='type-id-17'/>
      <parameter type-id='type-id-17'/>
      <parameter type-id='type-id-17'/>
      <return type-id='type-id-17'/>
    </function-decl>
    <function-decl name='vprintf' filepath='/usr/include/x86_64-linux-gnu/bits/stdio.h' line='36' column='1' visibility='default' binding='global' size-in-bits='64'>
      <parameter type-id='type-id-61'/>
      <parameter type-id='type-id-86'/>
      <return type-id='type-id-16'/>
    </function-decl>
    <function-decl name='getchar' filepath='/usr/include/x86_64-linux-gnu/bits/stdio.h' line='44' column='1' visibility='default' binding='global' size-in-bits='64'>
      <return type-id='type-id-16'/>
    </function-decl>
    <function-decl name='putchar' filepath='/usr/include/x86_64-linux-gnu/bits/stdio.h' line='79' column='1' visibility='default' binding='global' size-in-bits='64'>
      <parameter type-id='type-id-16'/>
      <return type-id='type-id-16'/>
    </function-decl>
    <function-decl name='bsearch' filepath='/usr/include/x86_64-linux-gnu/bits/stdlib-bsearch.h' line='20' column='1' visibility='default' binding='global' size-in-bits='64'>
      <parameter type-id='type-id-187'/>
      <parameter type-id='type-id-187'/>
      <parameter type-id='type-id-39'/>
      <parameter type-id='type-id-39'/>
      <parameter type-id='type-id-29'/>
      <return type-id='type-id-187'/>
    </function-decl>
    <function-decl name='atof' filepath='/usr/include/x86_64-linux-gnu/bits/stdlib-float.h' line='26' column='1' visibility='default' binding='global' size-in-bits='64'>
      <parameter type-id='type-id-60'/>
      <return type-id='type-id-14'/>
    </function-decl>
    <namespace-decl name='mongoutils'>
      <namespace-decl name='str'>
        <class-decl name='__anonymous_struct__' is-anonymous='yes' visibility='default' is-declaration-only='yes' id='type-id-134'>
          <member-function access='public'>
            <function-decl name='operator&lt;&lt;&lt;char [25]&gt;' mangled-name='_ZN10mongoutils3str6streamlsIA25_cEERS1_RKT_' filepath='src/mongo/util/mongoutils/str.h' line='61' column='1' visibility='default' binding='global' size-in-bits='64'>
              <parameter type-id='type-id-135' is-artificial='yes'/>
              <parameter type-id='type-id-66'/>
              <return type-id='type-id-115'/>
            </function-decl>
          </member-function>
          <member-function access='public'>
            <function-decl name='operator&lt;&lt;&lt;int&gt;' mangled-name='_ZN10mongoutils3str6streamlsIiEERS1_RKT_' filepath='src/mongo/util/mongoutils/str.h' line='61' column='1' visibility='default' binding='global' size-in-bits='64'>
              <parameter type-id='type-id-135' is-artificial='yes'/>
              <parameter type-id='type-id-70'/>
              <return type-id='type-id-115'/>
            </function-decl>
          </member-function>
          <member-function access='public'>
            <function-decl name='operator&lt;&lt;&lt;char [21]&gt;' mangled-name='_ZN10mongoutils3str6streamlsIA21_cEERS1_RKT_' filepath='src/mongo/util/mongoutils/str.h' line='61' column='1' visibility='default' binding='global' size-in-bits='64'>
              <parameter type-id='type-id-135' is-artificial='yes'/>
              <parameter type-id='type-id-64'/>
              <return type-id='type-id-115'/>
            </function-decl>
          </member-function>
          <member-function access='public'>
            <function-decl name='operator&lt;&lt;&lt;char [24]&gt;' mangled-name='_ZN10mongoutils3str6streamlsIA24_cEERS1_RKT_' filepath='src/mongo/util/mongoutils/str.h' line='61' column='1' visibility='default' binding='global' size-in-bits='64'>
              <parameter type-id='type-id-135' is-artificial='yes'/>
              <parameter type-id='type-id-65'/>
              <return type-id='type-id-115'/>
            </function-decl>
          </member-function>
        </class-decl>
      </namespace-decl>
    </namespace-decl>
    <namespace-decl name='mongo'>
      <class-decl name='__anonymous_struct__' is-anonymous='yes' visibility='default' is-declaration-only='yes' id='type-id-117'>
        <member-function access='public'>
          <function-decl name='StatusWith' mangled-name='_ZN5mongo10StatusWithINS_14ConstDataRangeEEC2ES1_' filepath='src/mongo/base/status_with.h' line='92' column='1' visibility='default' binding='global' size-in-bits='64'>
            <parameter type-id='type-id-118' is-artificial='yes'/>
            <parameter type-id='type-id-140'/>
            <return type-id='type-id-193'/>
          </function-decl>
        </member-function>
        <member-function access='public'>
          <function-decl name='StatusWith' mangled-name='_ZN5mongo10StatusWithINS_14ConstDataRangeEEC2ENS_10ErrorCodes5ErrorERKN10mongoutils3str6streamE' filepath='src/mongo/base/status_with.h' line='78' column='1' visibility='default' binding='global' size-in-bits='64'>
            <parameter type-id='type-id-118' is-artificial='yes'/>
            <parameter type-id='type-id-238'/>
            <parameter type-id='type-id-164'/>
            <return type-id='type-id-193'/>
          </function-decl>
        </member-function>
      </class-decl>
      <class-decl name='__anonymous_struct__1' is-anonymous='yes' visibility='default' is-declaration-only='yes' id='type-id-140'>
        <member-function access='public'>
          <function-decl name='data' mangled-name='_ZNK5mongo14ConstDataRange4dataEv' filepath='src/mongo/base/data_range.h' line='60' column='1' visibility='default' binding='global' size-in-bits='64'>
            <parameter type-id='type-id-165' is-artificial='yes'/>
            <return type-id='type-id-60'/>
          </function-decl>
        </member-function>
        <member-function access='public'>
          <function-decl name='length' mangled-name='_ZNK5mongo14ConstDataRange6lengthEv' filepath='src/mongo/base/data_range.h' line='64' column='1' visibility='default' binding='global' size-in-bits='64'>
            <parameter type-id='type-id-165' is-artificial='yes'/>
            <return type-id='type-id-39'/>
          </function-decl>
        </member-function>
        <member-function access='public'>
          <function-decl name='ConstDataRange' mangled-name='_ZN5mongo14ConstDataRangeC2EPKcS2_l' filepath='src/mongo/base/data_range.h' line='52' column='1' visibility='default' binding='global' size-in-bits='64'>
            <parameter type-id='type-id-141' is-artificial='yes'/>
            <parameter type-id='type-id-60'/>
            <parameter type-id='type-id-60'/>
            <parameter type-id='type-id-198'/>
            <return type-id='type-id-193'/>
          </function-decl>
        </member-function>
        <member-function access='public'>
          <function-decl name='ConstDataRange' mangled-name='_ZN5mongo14ConstDataRangeC2EPKcml' filepath='src/mongo/base/data_range.h' line='57' column='1' visibility='default' binding='global' size-in-bits='64'>
            <parameter type-id='type-id-141' is-artificial='yes'/>
            <parameter type-id='type-id-60'/>
            <parameter type-id='type-id-39'/>
            <parameter type-id='type-id-198'/>
            <return type-id='type-id-193'/>
          </function-decl>
        </member-function>
      </class-decl>
      <class-decl name='__anonymous_struct__10' is-anonymous='yes' visibility='default' is-declaration-only='yes' id='type-id-144'>
        <member-function access='public'>
          <function-decl name='compress' mangled-name='_ZN5mongo15BlockCompressor8compressENS_14ConstDataRangeE' filepath='src/mongo/db/ftdc/block_compressor.h' line='55' column='1' visibility='default' binding='global' size-in-bits='64' elf-symbol-id='_ZN5mongo15BlockCompressor8compressENS_14ConstDataRangeE'>
            <parameter type-id='type-id-145' is-artificial='yes'/>
            <parameter type-id='type-id-140'/>
            <return type-id='type-id-117'/>
          </function-decl>
        </member-function>
        <member-function access='public'>
          <function-decl name='uncompress' mangled-name='_ZN5mongo15BlockCompressor10uncompressENS_14ConstDataRangeEm' filepath='src/mongo/db/ftdc/block_compressor.h' line='66' column='1' visibility='default' binding='global' size-in-bits='64' elf-symbol-id='_ZN5mongo15BlockCompressor10uncompressENS_14ConstDataRangeEm'>
            <parameter type-id='type-id-145' is-artificial='yes'/>
            <parameter type-id='type-id-140'/>
            <parameter type-id='type-id-39'/>
            <return type-id='type-id-117'/>
          </function-decl>
        </member-function>
      </class-decl>
      <class-decl name='__anonymous_struct__11' is-anonymous='yes' visibility='default' is-declaration-only='yes' id='type-id-153'>
        <member-function access='public'>
          <function-decl name='operator StringData' mangled-name='_ZN5mongo4ItoAcvNS_10StringDataEEv' filepath='src/mongo/util/itoa.h' line='53' column='1' visibility='default' binding='global' size-in-bits='64'>
            <parameter type-id='type-id-154' is-artificial='yes'/>
            <return type-id='type-id-149'/>
          </function-decl>
        </member-function>
      </class-decl>
      <class-decl name='__anonymous_struct__2' is-anonymous='yes' visibility='default' is-declaration-only='yes' id='type-id-122'>
        <member-type access='private'>
          <class-decl name='__anonymous_struct__' is-anonymous='yes' visibility='default' is-declaration-only='yes' id='type-id-132'>
            <member-function access='public'>
              <function-decl name='Holder' mangled-name='_ZN5mongo12SharedBuffer6HolderC2Ejm' filepath='src/mongo/util/shared_buffer.h' line='102' column='1' visibility='default' binding='global' size-in-bits='64'>
                <parameter type-id='type-id-133' is-artificial='yes'/>
                <parameter type-id='type-id-239'/>
                <parameter type-id='type-id-39'/>
                <return type-id='type-id-193'/>
              </function-decl>
            </member-function>
            <member-function access='public'>
              <function-decl name='data' mangled-name='_ZN5mongo12SharedBuffer6Holder4dataEv' filepath='src/mongo/util/shared_buffer.h' line='121' column='1' visibility='default' binding='global' size-in-bits='64'>
                <parameter type-id='type-id-133' is-artificial='yes'/>
                <return type-id='type-id-55'/>
              </function-decl>
            </member-function>
            <member-function access='public'>
              <function-decl name='isShared' mangled-name='_ZNK5mongo12SharedBuffer6Holder8isSharedEv' filepath='src/mongo/util/shared_buffer.h' line='129' column='1' visibility='default' binding='global' size-in-bits='64'>
                <parameter type-id='type-id-172' is-artificial='yes'/>
                <return type-id='type-id-1'/>
              </function-decl>
            </member-function>
          </class-decl>
        </member-type>
        <member-function access='public'>
          <function-decl name='SharedBuffer' mangled-name='_ZN5mongo12SharedBufferC2Ev' filepath='src/mongo/util/shared_buffer.h' line='44' column='1' visibility='default' binding='global' size-in-bits='64'>
            <parameter type-id='type-id-123' is-artificial='yes'/>
            <return type-id='type-id-193'/>
          </function-decl>
        </member-function>
        <member-function access='public' static='yes'>
          <function-decl name='allocate' mangled-name='_ZN5mongo12SharedBuffer8allocateEm' filepath='src/mongo/util/shared_buffer.h' line='50' column='1' visibility='default' binding='global' size-in-bits='64'>
            <parameter type-id='type-id-39'/>
            <return type-id='type-id-122'/>
          </function-decl>
        </member-function>
        <member-function access='private' static='yes'>
          <function-decl name='takeOwnership' mangled-name='_ZN5mongo12SharedBuffer13takeOwnershipEPvm' filepath='src/mongo/util/shared_buffer.h' line='149' column='1' visibility='default' binding='global' size-in-bits='64'>
            <parameter type-id='type-id-187'/>
            <parameter type-id='type-id-39'/>
            <return type-id='type-id-122'/>
          </function-decl>
        </member-function>
        <member-function access='public'>
          <function-decl name='get' mangled-name='_ZNK5mongo12SharedBuffer3getEv' filepath='src/mongo/util/shared_buffer.h' line='75' column='1' visibility='default' binding='global' size-in-bits='64'>
            <parameter type-id='type-id-168' is-artificial='yes'/>
            <return type-id='type-id-55'/>
          </function-decl>
        </member-function>
        <member-function access='public'>
          <function-decl name='realloc' mangled-name='_ZN5mongo12SharedBuffer7reallocEm' filepath='src/mongo/util/shared_buffer.h' line='62' column='1' visibility='default' binding='global' size-in-bits='64'>
            <parameter type-id='type-id-123' is-artificial='yes'/>
            <parameter type-id='type-id-39'/>
            <return type-id='type-id-193'/>
          </function-decl>
        </member-function>
      </class-decl>
      <class-decl name='__anonymous_struct__3' is-anonymous='yes' visibility='default' is-declaration-only='yes' id='type-id-124'>
        <member-function access='public'>
          <function-decl name='SharedBufferAllocator' mangled-name='_ZN5mongo21SharedBufferAllocatorC2Ev' filepath='src/mongo/bson/util/builder.h' line='82' column='1' visibility='default' binding='global' size-in-bits='64'>
            <parameter type-id='type-id-125' is-artificial='yes'/>
            <return type-id='type-id-193'/>
          </function-decl>
        </member-function>
        <member-function access='public'>
          <function-decl name='malloc' mangled-name='_ZN5mongo21SharedBufferAllocator6mallocEm' filepath='src/mongo/bson/util/builder.h' line='92' column='1' visibility='default' binding='global' size-in-bits='64'>
            <parameter type-id='type-id-125' is-artificial='yes'/>
            <parameter type-id='type-id-39'/>
            <return type-id='type-id-193'/>
          </function-decl>
        </member-function>
        <member-function access='public'>
          <function-decl name='get' mangled-name='_ZNK5mongo21SharedBufferAllocator3getEv' filepath='src/mongo/bson/util/builder.h' line='105' column='1' visibility='default' binding='global' size-in-bits='64'>
            <parameter type-id='type-id-169' is-artificial='yes'/>
            <return type-id='type-id-55'/>
          </function-decl>
        </member-function>
        <member-function access='public'>
          <function-decl name='realloc' mangled-name='_ZN5mongo21SharedBufferAllocator7reallocEm' filepath='src/mongo/bson/util/builder.h' line='95' column='1' visibility='default' binding='global' size-in-bits='64'>
            <parameter type-id='type-id-125' is-artificial='yes'/>
            <parameter type-id='type-id-39'/>
            <return type-id='type-id-193'/>
          </function-decl>
        </member-function>
      </class-decl>
      <class-decl name='__anonymous_struct__4' is-anonymous='yes' visibility='default' is-declaration-only='yes' id='type-id-126'>
        <member-function access='public'>
          <function-decl name='_BufBuilder' mangled-name='_ZN5mongo11_BufBuilderINS_21SharedBufferAllocatorEEC2Ei' filepath='src/mongo/bson/util/builder.h' line='158' column='1' visibility='default' binding='global' size-in-bits='64'>
            <parameter type-id='type-id-127' is-artificial='yes'/>
            <parameter type-id='type-id-16'/>
            <return type-id='type-id-193'/>
          </function-decl>
        </member-function>
        <member-function access='public'>
          <function-decl name='grow' mangled-name='_ZN5mongo11_BufBuilderINS_21SharedBufferAllocatorEE4growEi' filepath='src/mongo/bson/util/builder.h' line='287' column='1' visibility='default' binding='global' size-in-bits='64'>
            <parameter type-id='type-id-127' is-artificial='yes'/>
            <parameter type-id='type-id-16'/>
            <return type-id='type-id-55'/>
          </function-decl>
        </member-function>
        <member-function access='private'>
          <function-decl name='grow_reallocate' mangled-name='_ZN5mongo11_BufBuilderINS_21SharedBufferAllocatorEE15grow_reallocateEi' filepath='src/mongo/bson/util/builder.h' line='342' column='1' visibility='default' binding='global' size-in-bits='64' elf-symbol-id='_ZN5mongo11_BufBuilderINS_21SharedBufferAllocatorEE15grow_reallocateEi'>
            <parameter type-id='type-id-127' is-artificial='yes'/>
            <parameter type-id='type-id-16'/>
            <return type-id='type-id-193'/>
          </function-decl>
        </member-function>
      </class-decl>
      <class-decl name='__anonymous_struct__5' is-anonymous='yes' visibility='default' is-declaration-only='yes' id='type-id-128'>
        <member-function access='public'>
          <function-decl name='StringBuilderImpl' mangled-name='_ZN5mongo17StringBuilderImplINS_21SharedBufferAllocatorEEC2Ev' filepath='src/mongo/bson/util/builder.h' line='395' column='1' visibility='default' binding='global' size-in-bits='64'>
            <parameter type-id='type-id-129' is-artificial='yes'/>
            <return type-id='type-id-193'/>
          </function-decl>
        </member-function>
        <member-function access='public'>
          <function-decl name='append' mangled-name='_ZN5mongo17StringBuilderImplINS_21SharedBufferAllocatorEE6appendENS_10StringDataE' filepath='src/mongo/bson/util/builder.h' line='469' column='1' visibility='default' binding='global' size-in-bits='64'>
            <parameter type-id='type-id-129' is-artificial='yes'/>
            <parameter type-id='type-id-149'/>
            <return type-id='type-id-193'/>
          </function-decl>
        </member-function>
        <member-function access='public'>
          <function-decl name='operator&lt;&lt;' mangled-name='_ZN5mongo17StringBuilderImplINS_21SharedBufferAllocatorEElsENS_10StringDataE' filepath='src/mongo/bson/util/builder.h' line='439' column='1' visibility='default' binding='global' size-in-bits='64'>
            <parameter type-id='type-id-129' is-artificial='yes'/>
            <parameter type-id='type-id-149'/>
            <return type-id='type-id-115'/>
          </function-decl>
        </member-function>
        <member-function access='public'>
          <function-decl name='operator&lt;&lt;' mangled-name='_ZN5mongo17StringBuilderImplINS_21SharedBufferAllocatorEElsEPKc' filepath='src/mongo/bson/util/builder.h' line='436' column='1' visibility='default' binding='global' size-in-bits='64'>
            <parameter type-id='type-id-129' is-artificial='yes'/>
            <parameter type-id='type-id-60'/>
            <return type-id='type-id-115'/>
          </function-decl>
        </member-function>
        <member-function access='public'>
          <function-decl name='operator&lt;&lt;' mangled-name='_ZN5mongo17StringBuilderImplINS_21SharedBufferAllocatorEElsEi' filepath='src/mongo/bson/util/builder.h' line='400' column='1' visibility='default' binding='global' size-in-bits='64'>
            <parameter type-id='type-id-129' is-artificial='yes'/>
            <parameter type-id='type-id-16'/>
            <return type-id='type-id-115'/>
          </function-decl>
        </member-function>
        <member-function access='public'>
          <function-decl name='operator&lt;&lt;' mangled-name='_ZN5mongo17StringBuilderImplINS_21SharedBufferAllocatorEElsEc' filepath='src/mongo/bson/util/builder.h' line='432' column='1' visibility='default' binding='global' size-in-bits='64'>
            <parameter type-id='type-id-129' is-artificial='yes'/>
            <parameter type-id='type-id-2'/>
            <return type-id='type-id-115'/>
          </function-decl>
        </member-function>
        <member-function access='private'>
          <function-decl name='appendIntegral&lt;int&gt;' mangled-name='_ZN5mongo17StringBuilderImplINS_21SharedBufferAllocatorEE14appendIntegralIiEERS2_T_i' filepath='src/mongo/bson/util/builder.h' line='498' column='1' visibility='default' binding='global' size-in-bits='64' elf-symbol-id='_ZN5mongo17StringBuilderImplINS_21SharedBufferAllocatorEE14appendIntegralIiEERS2_T_i'>
            <parameter type-id='type-id-129' is-artificial='yes'/>
            <parameter type-id='type-id-16'/>
            <parameter type-id='type-id-16'/>
            <return type-id='type-id-115'/>
          </function-decl>
        </member-function>
      </class-decl>
      <class-decl name='__anonymous_struct__6' is-anonymous='yes' visibility='default' is-declaration-only='yes' id='type-id-130'>
        <member-type access='private'>
          <typedef-decl name='WordType' type-id='type-id-45' filepath='src/mongo/platform/atomic_word.h' line='54' column='1' id='type-id-239'/>
        </member-type>
        <member-function access='public'>
          <function-decl name='AtomicWord' mangled-name='_ZN5mongo10AtomicWordIjvEC2Ej' filepath='src/mongo/platform/atomic_word.h' line='59' column='1' visibility='default' binding='global' size-in-bits='64'>
            <parameter type-id='type-id-131' is-artificial='yes'/>
            <parameter type-id='type-id-239'/>
            <return type-id='type-id-193'/>
          </function-decl>
        </member-function>
        <member-function access='public'>
          <function-decl name='fetchAndSubtract' mangled-name='_ZN5mongo10AtomicWordIjvE16fetchAndSubtractEj' filepath='src/mongo/platform/atomic_word.h' line='131' column='1' visibility='default' binding='global' size-in-bits='64'>
            <parameter type-id='type-id-131' is-artificial='yes'/>
            <parameter type-id='type-id-239'/>
            <return type-id='type-id-239'/>
          </function-decl>
        </member-function>
        <member-function access='public'>
          <function-decl name='subtractAndFetch' mangled-name='_ZN5mongo10AtomicWordIjvE16subtractAndFetchEj' filepath='src/mongo/platform/atomic_word.h' line='153' column='1' visibility='default' binding='global' size-in-bits='64'>
            <parameter type-id='type-id-131' is-artificial='yes'/>
            <parameter type-id='type-id-239'/>
            <return type-id='type-id-239'/>
          </function-decl>
        </member-function>
        <member-function access='public'>
          <function-decl name='load' mangled-name='_ZNK5mongo10AtomicWordIjvE4loadEv' filepath='src/mongo/platform/atomic_word.h' line='66' column='1' visibility='default' binding='global' size-in-bits='64'>
            <parameter type-id='type-id-171' is-artificial='yes'/>
            <return type-id='type-id-239'/>
          </function-decl>
        </member-function>
      </class-decl>
      <class-decl name='__anonymous_struct__7' is-anonymous='yes' visibility='default' is-declaration-only='yes' id='type-id-149'>
        <member-function access='public'>
          <function-decl name='copyTo' mangled-name='_ZNK5mongo10StringData6copyToEPcb' filepath='src/mongo/base/string_data.h' line='134' column='1' visibility='default' binding='global' size-in-bits='64'>
            <parameter type-id='type-id-170' is-artificial='yes'/>
            <parameter type-id='type-id-55'/>
            <parameter type-id='type-id-1'/>
            <return type-id='type-id-193'/>
          </function-decl>
        </member-function>
        <member-function access='public'>
          <function-decl name='StringData' mangled-name='_ZN5mongo10StringDataC2EPKc' filepath='src/mongo/base/string_data.h' line='78' column='1' visibility='default' binding='global' size-in-bits='64'>
            <parameter type-id='type-id-150' is-artificial='yes'/>
            <parameter type-id='type-id-60'/>
            <return type-id='type-id-193'/>
          </function-decl>
        </member-function>
        <member-function access='public'>
          <function-decl name='StringData' mangled-name='_ZN5mongo10StringDataC2EPKcm' filepath='src/mongo/base/string_data.h' line='94' column='1' visibility='default' binding='global' size-in-bits='64'>
            <parameter type-id='type-id-150' is-artificial='yes'/>
            <parameter type-id='type-id-60'/>
            <parameter type-id='type-id-39'/>
            <return type-id='type-id-193'/>
          </function-decl>
        </member-function>
      </class-decl>
      <class-decl name='__anonymous_struct__8' is-anonymous='yes' visibility='default' is-declaration-only='yes' id='type-id-240'>
        <member-type access='private'>
          <enum-decl name='__anonymous_enum__' is-anonymous='yes' is-declaration-only='yes' id='type-id-238'>
            <underlying-type type-id='type-id-47'/>
          </enum-decl>
        </member-type>
      </class-decl>
      <class-decl name='__anonymous_struct__9' is-anonymous='yes' visibility='default' is-declaration-only='yes' id='type-id-142'>
        <member-function access='private'>
          <function-decl name='Status' mangled-name='_ZN5mongo6StatusC2Ev' filepath='src/mongo/base/status.h' line='161' column='1' visibility='default' binding='global' size-in-bits='64'>
            <parameter type-id='type-id-143' is-artificial='yes'/>
            <return type-id='type-id-193'/>
          </function-decl>
        </member-function>
        <member-function access='public' static='yes'>
          <function-decl name='OK' mangled-name='_ZN5mongo6Status2OKEv' filepath='src/mongo/base/status.h' line='66' column='1' visibility='default' binding='global' size-in-bits='64'>
            <return type-id='type-id-142'/>
          </function-decl>
        </member-function>
      </class-decl>
    </namespace-decl>
    <namespace-decl name='boost'>
      <class-decl name='__anonymous_struct__' is-anonymous='yes' visibility='default' is-declaration-only='yes' id='type-id-114'>
        <member-function access='public'>
          <function-decl name='intrusive_ptr' mangled-name='_ZN5boost13intrusive_ptrIN5mongo12SharedBuffer6HolderEEC2Ev' filepath='src/third_party/boost-1.60.0/boost/smart_ptr/intrusive_ptr.hpp' line='62' column='1' visibility='default' binding='global' size-in-bits='64'>
            <parameter type-id='type-id-121' is-artificial='yes'/>
            <return type-id='type-id-193'/>
          </function-decl>
        </member-function>
        <member-function access='public'>
          <function-decl name='swap' mangled-name='_ZN5boost13intrusive_ptrIN5mongo12SharedBuffer6HolderEE4swapERS4_' filepath='src/third_party/boost-1.60.0/boost/smart_ptr/intrusive_ptr.hpp' line='181' column='1' visibility='default' binding='global' size-in-bits='64'>
            <parameter type-id='type-id-121' is-artificial='yes'/>
            <parameter type-id='type-id-115'/>
            <return type-id='type-id-193'/>
          </function-decl>
        </member-function>
        <member-function access='public'>
          <function-decl name='operator=' mangled-name='_ZN5boost13intrusive_ptrIN5mongo12SharedBuffer6HolderEEaSEOS4_' filepath='src/third_party/boost-1.60.0/boost/smart_ptr/intrusive_ptr.hpp' line='119' column='1' visibility='default' binding='global' size-in-bits='64'>
            <parameter type-id='type-id-121' is-artificial='yes'/>
            <parameter type-id='type-id-116'/>
            <return type-id='type-id-115'/>
          </function-decl>
        </member-function>
        <member-function access='public' destructor='yes'>
          <function-decl name='~intrusive_ptr' mangled-name='_ZN5boost13intrusive_ptrIN5mongo12SharedBuffer6HolderEED2Ev' filepath='src/third_party/boost-1.60.0/boost/smart_ptr/intrusive_ptr.hpp' line='95' column='1' visibility='default' binding='global' size-in-bits='64'>
            <parameter type-id='type-id-121' is-artificial='yes'/>
            <return type-id='type-id-193'/>
          </function-decl>
        </member-function>
        <member-function access='public'>
          <function-decl name='operator bool' mangled-name='_ZNK5boost13intrusive_ptrIN5mongo12SharedBuffer6HolderEEcvbEv' filepath='src/third_party/boost-1.60.0/boost/smart_ptr/detail/operator_bool.hpp' line='12' column='1' visibility='default' binding='global' size-in-bits='64'>
            <parameter type-id='type-id-167' is-artificial='yes'/>
            <return type-id='type-id-1'/>
          </function-decl>
        </member-function>
        <member-function access='public'>
          <function-decl name='operator!' mangled-name='_ZNK5boost13intrusive_ptrIN5mongo12SharedBuffer6HolderEEntEv' filepath='src/third_party/boost-1.60.0/boost/smart_ptr/detail/operator_bool.hpp' line='61' column='1' visibility='default' binding='global' size-in-bits='64'>
            <parameter type-id='type-id-167' is-artificial='yes'/>
            <return type-id='type-id-1'/>
          </function-decl>
        </member-function>
        <member-function access='public'>
          <function-decl name='get' mangled-name='_ZNK5boost13intrusive_ptrIN5mongo12SharedBuffer6HolderEE3getEv' filepath='src/third_party/boost-1.60.0/boost/smart_ptr/intrusive_ptr.hpp' line='154' column='1' visibility='default' binding='global' size-in-bits='64'>
            <parameter type-id='type-id-167' is-artificial='yes'/>
            <return type-id='type-id-148'/>
          </function-decl>
        </member-function>
      </class-decl>
      <class-decl name='__anonymous_struct__1' is-anonymous='yes' visibility='default' is-declaration-only='yes' id='type-id-138'>
        <member-type access='private'>
          <typedef-decl name='rval_reference_type' type-id='type-id-242' filepath='src/third_party/boost-1.60.0/boost/optional/optional.hpp' line='777' column='1' id='type-id-241'/>
        </member-type>
        <member-function access='public'>
          <function-decl name='optional' mangled-name='_ZN5boost8optionalIN5mongo14ConstDataRangeEEC2Ev' filepath='src/third_party/boost-1.60.0/boost/optional/optional.hpp' line='786' column='1' visibility='default' binding='global' size-in-bits='64'>
            <parameter type-id='type-id-139' is-artificial='yes'/>
            <return type-id='type-id-193'/>
          </function-decl>
        </member-function>
        <member-function access='public'>
          <function-decl name='optional' mangled-name='_ZN5boost8optionalIN5mongo14ConstDataRangeEEC2EOS2_' filepath='src/third_party/boost-1.60.0/boost/optional/optional.hpp' line='799' column='1' visibility='default' binding='global' size-in-bits='64'>
            <parameter type-id='type-id-139' is-artificial='yes'/>
            <parameter type-id='type-id-241'/>
            <return type-id='type-id-193'/>
          </function-decl>
        </member-function>
      </class-decl>
      <namespace-decl name='optional_detail'>
        <class-decl name='__anonymous_struct__' is-anonymous='yes' visibility='default' is-declaration-only='yes' id='type-id-136'>
          <member-type access='private'>
            <typedef-decl name='rval_reference_type' type-id='type-id-243' filepath='src/third_party/boost-1.60.0/boost/optional/optional.hpp' line='230' column='1' id='type-id-242'/>
          </member-type>
          <member-function access='protected'>
            <function-decl name='optional_base' mangled-name='_ZN5boost15optional_detail13optional_baseIN5mongo14ConstDataRangeEEC2Ev' filepath='src/third_party/boost-1.60.0/boost/optional/optional.hpp' line='239' column='1' visibility='default' binding='global' size-in-bits='64'>
              <parameter type-id='type-id-137' is-artificial='yes'/>
              <return type-id='type-id-193'/>
            </function-decl>
          </member-function>
          <member-function access='protected'>
            <function-decl name='construct' mangled-name='_ZN5boost15optional_detail13optional_baseIN5mongo14ConstDataRangeEE9constructEOS3_' filepath='src/third_party/boost-1.60.0/boost/optional/optional.hpp' line='479' column='1' visibility='default' binding='global' size-in-bits='64'>
              <parameter type-id='type-id-137' is-artificial='yes'/>
              <parameter type-id='type-id-242'/>
              <return type-id='type-id-193'/>
            </function-decl>
          </member-function>
          <member-function access='protected'>
            <function-decl name='optional_base' mangled-name='_ZN5boost15optional_detail13optional_baseIN5mongo14ConstDataRangeEEC2EOS3_' filepath='src/third_party/boost-1.60.0/boost/optional/optional.hpp' line='261' column='1' visibility='default' binding='global' size-in-bits='64'>
              <parameter type-id='type-id-137' is-artificial='yes'/>
              <parameter type-id='type-id-242'/>
              <return type-id='type-id-193'/>
            </function-decl>
          </member-function>
        </class-decl>
        <class-decl name='__anonymous_struct__1' is-struct='yes' is-anonymous='yes' visibility='default' is-declaration-only='yes' id='type-id-244'>
          <member-type access='public'>
            <typedef-decl name='rval_reference_type' type-id='type-id-116' filepath='src/third_party/boost-1.60.0/boost/optional/optional.hpp' line='152' column='1' id='type-id-243'/>
          </member-type>
        </class-decl>
      </namespace-decl>
    </namespace-decl>
    <type-decl name='variadic parameter type' id='type-id-245'/>
    <type-decl name='void' id='type-id-193'/>
    <pointer-type-def type-id='type-id-193' id='type-id-187'/>
    <function-type size-in-bits='64' id='type-id-90'>
      <parameter type-id='type-id-187'/>
      <parameter type-id='type-id-187'/>
      <return type-id='type-id-16'/>
    </function-type>
    <function-type size-in-bits='64' id='type-id-108'>
      <return type-id='type-id-193'/>
    </function-type>
  </abi-instr>
  <abi-instr address-size='64' path='src/mongo/db/ftdc/collector.cpp' comp-dir-path='/home/andrew/Documents/10gen/dev/src/mongodb' language='LANG_C_plus_plus'>
    <typedef-decl name='__clock_t' type-id='type-id-18' filepath='/usr/include/x86_64-linux-gnu/bits/types.h' line='135' column='1' id='type-id-246'/>
    <typedef-decl name='__time_t' type-id='type-id-18' filepath='/usr/include/x86_64-linux-gnu/bits/types.h' line='139' column='1' id='type-id-247'/>
    <typedef-decl name='clock_t' type-id='type-id-246' filepath='/usr/include/time.h' line='59' column='1' id='type-id-248'/>
    <typedef-decl name='time_t' type-id='type-id-247' filepath='/usr/include/time.h' line='75' column='1' id='type-id-249'/>
    <reference-type-def kind='lvalue' type-id='type-id-10' size-in-bits='64' id='type-id-250'/>
    <qualified-type-def type-id='type-id-251' const='yes' id='type-id-252'/>
    <pointer-type-def type-id='type-id-252' size-in-bits='64' id='type-id-253'/>
    <qualified-type-def type-id='type-id-254' const='yes' id='type-id-255'/>
    <reference-type-def kind='lvalue' type-id='type-id-255' size-in-bits='64' id='type-id-256'/>
    <qualified-type-def type-id='type-id-249' const='yes' id='type-id-257'/>
    <pointer-type-def type-id='type-id-257' size-in-bits='64' id='type-id-258'/>
    <pointer-type-def type-id='type-id-259' size-in-bits='64' id='type-id-260'/>
    <reference-type-def kind='rvalue' type-id='type-id-260' size-in-bits='64' id='type-id-261'/>
    <pointer-type-def type-id='type-id-262' size-in-bits='64' id='type-id-263'/>
    <pointer-type-def type-id='type-id-251' size-in-bits='64' id='type-id-264'/>
    <pointer-type-def type-id='type-id-265' size-in-bits='64' id='type-id-266'/>
    <pointer-type-def type-id='type-id-39' size-in-bits='64' id='type-id-267'/>
    <pointer-type-def type-id='type-id-249' size-in-bits='64' id='type-id-268'/>
    <reference-type-def kind='lvalue' type-id='type-id-269' size-in-bits='64' id='type-id-270'/>
    <pointer-type-def type-id='type-id-269' size-in-bits='64' id='type-id-271'/>
    <pointer-type-def type-id='type-id-272' size-in-bits='64' id='type-id-273'/>
    <pointer-type-def type-id='type-id-274' size-in-bits='64' id='type-id-275'/>
    <pointer-type-def type-id='type-id-276' size-in-bits='64' id='type-id-277'/>
    <pointer-type-def type-id='type-id-274' size-in-bits='64' id='type-id-278'/>
    <pointer-type-def type-id='type-id-279' size-in-bits='64' id='type-id-280'/>
    <pointer-type-def type-id='type-id-281' size-in-bits='64' id='type-id-282'/>
    <pointer-type-def type-id='type-id-283' size-in-bits='64' id='type-id-284'/>
    <pointer-type-def type-id='type-id-285' size-in-bits='64' id='type-id-286'/>
    <pointer-type-def type-id='type-id-287' size-in-bits='64' id='type-id-288'/>
    <pointer-type-def type-id='type-id-289' size-in-bits='64' id='type-id-290'/>
    <pointer-type-def type-id='type-id-291' size-in-bits='64' id='type-id-292'/>
    <pointer-type-def type-id='type-id-293' size-in-bits='64' id='type-id-294'/>
    <pointer-type-def type-id='type-id-295' size-in-bits='64' id='type-id-296'/>
    <pointer-type-def type-id='type-id-297' size-in-bits='64' id='type-id-298'/>
    <pointer-type-def type-id='type-id-299' size-in-bits='64' id='type-id-300'/>
    <pointer-type-def type-id='type-id-301' size-in-bits='64' id='type-id-302'/>
    <pointer-type-def type-id='type-id-303' size-in-bits='64' id='type-id-304'/>
    <pointer-type-def type-id='type-id-305' size-in-bits='64' id='type-id-306'/>
    <pointer-type-def type-id='type-id-307' size-in-bits='64' id='type-id-308'/>
    <pointer-type-def type-id='type-id-307' size-in-bits='64' id='type-id-309'/>
    <pointer-type-def type-id='type-id-310' size-in-bits='64' id='type-id-311'/>
    <pointer-type-def type-id='type-id-312' size-in-bits='64' id='type-id-313'/>
    <pointer-type-def type-id='type-id-303' size-in-bits='64' id='type-id-314'/>
    <pointer-type-def type-id='type-id-315' size-in-bits='64' id='type-id-316'/>
    <pointer-type-def type-id='type-id-317' size-in-bits='64' id='type-id-318'/>
    <qualified-type-def type-id='type-id-278' const='yes' id='type-id-319'/>
    <reference-type-def kind='lvalue' type-id='type-id-319' size-in-bits='64' id='type-id-320'/>
    <qualified-type-def type-id='type-id-274' const='yes' id='type-id-321'/>
    <qualified-type-def type-id='type-id-272' const='yes' id='type-id-322'/>
    <qualified-type-def type-id='type-id-295' const='yes' id='type-id-323'/>
    <qualified-type-def type-id='type-id-291' const='yes' id='type-id-324'/>
    <qualified-type-def type-id='type-id-325' const='yes' id='type-id-326'/>
    <qualified-type-def type-id='type-id-293' const='yes' id='type-id-327'/>
    <qualified-type-def type-id='type-id-297' const='yes' id='type-id-328'/>
    <qualified-type-def type-id='type-id-299' const='yes' id='type-id-329'/>
    <qualified-type-def type-id='type-id-283' const='yes' id='type-id-330'/>
    <qualified-type-def type-id='type-id-307' const='yes' id='type-id-331'/>
    <qualified-type-def type-id='type-id-332' const='yes' id='type-id-333'/>
    <qualified-type-def type-id='type-id-289' const='yes' id='type-id-334'/>
    <qualified-type-def type-id='type-id-301' const='yes' id='type-id-335'/>
    <qualified-type-def type-id='type-id-303' const='yes' id='type-id-336'/>
    <pointer-type-def type-id='type-id-321' size-in-bits='64' id='type-id-337'/>
    <pointer-type-def type-id='type-id-322' size-in-bits='64' id='type-id-338'/>
    <pointer-type-def type-id='type-id-323' size-in-bits='64' id='type-id-339'/>
    <pointer-type-def type-id='type-id-324' size-in-bits='64' id='type-id-340'/>
    <pointer-type-def type-id='type-id-326' size-in-bits='64' id='type-id-341'/>
    <pointer-type-def type-id='type-id-327' size-in-bits='64' id='type-id-342'/>
    <pointer-type-def type-id='type-id-328' size-in-bits='64' id='type-id-343'/>
    <pointer-type-def type-id='type-id-329' size-in-bits='64' id='type-id-344'/>
    <pointer-type-def type-id='type-id-330' size-in-bits='64' id='type-id-345'/>
    <pointer-type-def type-id='type-id-331' size-in-bits='64' id='type-id-346'/>
    <pointer-type-def type-id='type-id-333' size-in-bits='64' id='type-id-347'/>
    <pointer-type-def type-id='type-id-334' size-in-bits='64' id='type-id-348'/>
    <pointer-type-def type-id='type-id-335' size-in-bits='64' id='type-id-349'/>
    <pointer-type-def type-id='type-id-336' size-in-bits='64' id='type-id-350'/>
    <qualified-type-def type-id='type-id-351' const='yes' id='type-id-352'/>
    <pointer-type-def type-id='type-id-352' size-in-bits='64' id='type-id-353'/>
    <qualified-type-def type-id='type-id-354' const='yes' id='type-id-355'/>
    <qualified-type-def type-id='type-id-356' const='yes' id='type-id-357'/>
    <qualified-type-def type-id='type-id-358' const='yes' id='type-id-359'/>
    <qualified-type-def type-id='type-id-360' const='yes' id='type-id-361'/>
    <qualified-type-def type-id='type-id-362' const='yes' id='type-id-363'/>
    <qualified-type-def type-id='type-id-364' const='yes' id='type-id-365'/>
    <reference-type-def kind='lvalue' type-id='type-id-359' size-in-bits='64' id='type-id-366'/>
    <pointer-type-def type-id='type-id-355' size-in-bits='64' id='type-id-367'/>
    <pointer-type-def type-id='type-id-357' size-in-bits='64' id='type-id-368'/>
    <pointer-type-def type-id='type-id-361' size-in-bits='64' id='type-id-369'/>
    <pointer-type-def type-id='type-id-365' size-in-bits='64' id='type-id-370'/>
    <qualified-type-def type-id='type-id-367' restrict='yes' id='type-id-371'/>
    <reference-type-def kind='lvalue' type-id='type-id-372' size-in-bits='64' id='type-id-373'/>
    <pointer-type-def type-id='type-id-351' size-in-bits='64' id='type-id-374'/>
    <reference-type-def kind='lvalue' type-id='type-id-375' size-in-bits='64' id='type-id-376'/>
    <class-decl name='__anonymous_struct__1' is-struct='yes' is-anonymous='yes' visibility='default' is-declaration-only='yes' id='type-id-354'/>
    <reference-type-def kind='rvalue' type-id='type-id-364' size-in-bits='64' id='type-id-377'/>
    <pointer-type-def type-id='type-id-354' size-in-bits='64' id='type-id-378'/>
    <pointer-type-def type-id='type-id-379' size-in-bits='64' id='type-id-380'/>
    <pointer-type-def type-id='type-id-381' size-in-bits='64' id='type-id-382'/>
    <pointer-type-def type-id='type-id-383' size-in-bits='64' id='type-id-384'/>
    <pointer-type-def type-id='type-id-385' size-in-bits='64' id='type-id-386'/>
    <pointer-type-def type-id='type-id-387' size-in-bits='64' id='type-id-388'/>
    <pointer-type-def type-id='type-id-389' size-in-bits='64' id='type-id-390'/>
    <pointer-type-def type-id='type-id-360' size-in-bits='64' id='type-id-391'/>
    <pointer-type-def type-id='type-id-392' size-in-bits='64' id='type-id-393'/>
    <pointer-type-def type-id='type-id-362' size-in-bits='64' id='type-id-394'/>
    <pointer-type-def type-id='type-id-395' size-in-bits='64' id='type-id-396'/>
    <qualified-type-def type-id='type-id-187' restrict='yes' id='type-id-397'/>
    <qualified-type-def type-id='type-id-187' restrict='yes' id='type-id-398'/>
    <namespace-decl name='std'>
      <class-decl name='allocator_type' naming-typedef-id='type-id-375' visibility='default' is-declaration-only='yes' id='type-id-399'/>
      <class-decl name='__anonymous_struct__' is-anonymous='yes' visibility='default' is-declaration-only='yes' id='type-id-400'>
        <member-type access='private'>
          <class-decl name='__anonymous_struct__' is-anonymous='yes' visibility='default' is-declaration-only='yes' id='type-id-401'/>
        </member-type>
      </class-decl>
      <class-decl name='__anonymous_struct__1' is-anonymous='yes' visibility='default' is-declaration-only='yes' id='type-id-272'>
        <member-type access='private'>
          <typedef-decl name='const_iterator' type-id='type-id-403' filepath='/usr/bin/../lib/gcc/x86_64-linux-gnu/5.4.0/../../../../include/c++/5.4.0/bits/stl_vector.h' line='233' column='1' id='type-id-402'/>
        </member-type>
        <member-type access='private'>
          <typedef-decl name='iterator' type-id='type-id-269' filepath='/usr/bin/../lib/gcc/x86_64-linux-gnu/5.4.0/../../../../include/c++/5.4.0/bits/stl_vector.h' line='231' column='1' id='type-id-404'/>
        </member-type>
        <member-function access='public'>
          <function-decl name='emplace_back&lt;std::unique_ptr&lt;mongo::FTDCCollectorInterface, std::default_delete&lt;mongo::FTDCCollectorInterface&gt; &gt; &gt;' mangled-name='_ZNSt6vectorISt10unique_ptrIN5mongo22FTDCCollectorInterfaceESt14default_deleteIS2_EESaIS5_EE12emplace_backIJS5_EEEvDpOT_' filepath='/usr/bin/../lib/gcc/x86_64-linux-gnu/5.4.0/../../../../include/c++/5.4.0/bits/stl_vector.h' line='936' column='1' visibility='default' binding='global' size-in-bits='64'>
            <parameter type-id='type-id-273' is-artificial='yes'/>
            <parameter type-id='type-id-116'/>
            <return type-id='type-id-193'/>
          </function-decl>
        </member-function>
        <member-function access='public'>
          <function-decl name='begin' mangled-name='_ZNKSt6vectorISt10unique_ptrIN5mongo22FTDCCollectorInterfaceESt14default_deleteIS2_EESaIS5_EE5beginEv' filepath='/usr/bin/../lib/gcc/x86_64-linux-gnu/5.4.0/../../../../include/c++/5.4.0/bits/stl_vector.h' line='556' column='1' visibility='default' binding='global' size-in-bits='64'>
            <parameter type-id='type-id-338' is-artificial='yes'/>
            <return type-id='type-id-402'/>
          </function-decl>
        </member-function>
        <member-function access='public'>
          <function-decl name='empty' mangled-name='_ZNKSt6vectorISt10unique_ptrIN5mongo22FTDCCollectorInterfaceESt14default_deleteIS2_EESaIS5_EE5emptyEv' filepath='/usr/bin/../lib/gcc/x86_64-linux-gnu/5.4.0/../../../../include/c++/5.4.0/bits/stl_vector.h' line='743' column='1' visibility='default' binding='global' size-in-bits='64'>
            <parameter type-id='type-id-338' is-artificial='yes'/>
            <return type-id='type-id-1'/>
          </function-decl>
        </member-function>
        <member-function access='public'>
          <function-decl name='begin' mangled-name='_ZNSt6vectorISt10unique_ptrIN5mongo22FTDCCollectorInterfaceESt14default_deleteIS2_EESaIS5_EE5beginEv' filepath='/usr/bin/../lib/gcc/x86_64-linux-gnu/5.4.0/../../../../include/c++/5.4.0/bits/stl_vector.h' line='547' column='1' visibility='default' binding='global' size-in-bits='64'>
            <parameter type-id='type-id-273' is-artificial='yes'/>
            <return type-id='type-id-404'/>
          </function-decl>
        </member-function>
        <member-function access='public'>
          <function-decl name='end' mangled-name='_ZNSt6vectorISt10unique_ptrIN5mongo22FTDCCollectorInterfaceESt14default_deleteIS2_EESaIS5_EE3endEv' filepath='/usr/bin/../lib/gcc/x86_64-linux-gnu/5.4.0/../../../../include/c++/5.4.0/bits/stl_vector.h' line='565' column='1' visibility='default' binding='global' size-in-bits='64'>
            <parameter type-id='type-id-273' is-artificial='yes'/>
            <return type-id='type-id-404'/>
          </function-decl>
        </member-function>
        <member-function access='public'>
          <function-decl name='size' mangled-name='_ZNKSt6vectorISt10unique_ptrIN5mongo22FTDCCollectorInterfaceESt14default_deleteIS2_EESaIS5_EE4sizeEv' filepath='/usr/bin/../lib/gcc/x86_64-linux-gnu/5.4.0/../../../../include/c++/5.4.0/bits/stl_vector.h' line='654' column='1' visibility='default' binding='global' size-in-bits='64'>
            <parameter type-id='type-id-338' is-artificial='yes'/>
            <return type-id='type-id-40'/>
          </function-decl>
        </member-function>
        <member-function access='protected'>
          <function-decl name='_M_check_len' mangled-name='_ZNKSt6vectorISt10unique_ptrIN5mongo22FTDCCollectorInterfaceESt14default_deleteIS2_EESaIS5_EE12_M_check_lenEmPKc' filepath='/usr/bin/../lib/gcc/x86_64-linux-gnu/5.4.0/../../../../include/c++/5.4.0/bits/stl_vector.h' line='1422' column='1' visibility='default' binding='global' size-in-bits='64'>
            <parameter type-id='type-id-338' is-artificial='yes'/>
            <parameter type-id='type-id-40'/>
            <parameter type-id='type-id-60'/>
            <return type-id='type-id-40'/>
          </function-decl>
        </member-function>
        <member-function access='protected'>
          <function-decl name='_M_emplace_back_aux&lt;std::unique_ptr&lt;mongo::FTDCCollectorInterface, std::default_delete&lt;mongo::FTDCCollectorInterface&gt; &gt; &gt;' mangled-name='_ZNSt6vectorISt10unique_ptrIN5mongo22FTDCCollectorInterfaceESt14default_deleteIS2_EESaIS5_EE19_M_emplace_back_auxIJS5_EEEvDpOT_' filepath='/usr/bin/../lib/gcc/x86_64-linux-gnu/5.4.0/../../../../include/c++/5.4.0/bits/stl_vector.h' line='1417' column='1' visibility='default' binding='global' size-in-bits='64' elf-symbol-id='_ZNSt6vectorISt10unique_ptrIN5mongo22FTDCCollectorInterfaceESt14default_deleteIS2_EESaIS5_EE19_M_emplace_back_auxIJS5_EEEvDpOT_'>
            <parameter type-id='type-id-273' is-artificial='yes'/>
            <parameter type-id='type-id-116'/>
            <return type-id='type-id-193'/>
          </function-decl>
        </member-function>
      </class-decl>
      <class-decl name='__anonymous_struct__14' is-anonymous='yes' visibility='default' is-declaration-only='yes' id='type-id-287'>
        <member-function access='public'>
          <function-decl name='tuple&lt;mongo::BSONObj, mongo::Date_t &amp;, void&gt;' mangled-name='_ZNSt5tupleIJN5mongo7BSONObjENS0_6Date_tEEEC2IS1_RS2_vEEOT_OT0_' filepath='/usr/bin/../lib/gcc/x86_64-linux-gnu/5.4.0/../../../../include/c++/5.4.0/tuple' line='612' column='1' visibility='default' binding='global' size-in-bits='64'>
            <parameter type-id='type-id-288' is-artificial='yes'/>
            <parameter type-id='type-id-116'/>
            <parameter type-id='type-id-115'/>
            <return type-id='type-id-193'/>
          </function-decl>
        </member-function>
        <member-function access='public'>
          <function-decl name='tuple&lt;mongo::BSONObj, mongo::Date_t, void&gt;' mangled-name='_ZNSt5tupleIJN5mongo7BSONObjENS0_6Date_tEEEC2IS1_S2_vEEOT_OT0_' filepath='/usr/bin/../lib/gcc/x86_64-linux-gnu/5.4.0/../../../../include/c++/5.4.0/tuple' line='612' column='1' visibility='default' binding='global' size-in-bits='64'>
            <parameter type-id='type-id-288' is-artificial='yes'/>
            <parameter type-id='type-id-116'/>
            <parameter type-id='type-id-116'/>
            <return type-id='type-id-193'/>
          </function-decl>
        </member-function>
      </class-decl>
      <class-decl name='__anonymous_struct__18' is-anonymous='yes' visibility='default' is-declaration-only='yes' id='type-id-305'>
        <member-function access='public' destructor='yes'>
          <function-decl name='~unique_ptr' mangled-name='_ZNSt10unique_ptrIN5mongo14BSONObjBuilderESt14default_deleteIS1_EED2Ev' filepath='/usr/bin/../lib/gcc/x86_64-linux-gnu/5.4.0/../../../../include/c++/5.4.0/bits/unique_ptr.h' line='232' column='1' visibility='default' binding='global' size-in-bits='64'>
            <parameter type-id='type-id-306' is-artificial='yes'/>
            <return type-id='type-id-193'/>
          </function-decl>
        </member-function>
      </class-decl>
      <class-decl name='__anonymous_struct__2' is-anonymous='yes' visibility='default' is-declaration-only='yes' id='type-id-274'>
        <member-type access='private'>
          <typedef-decl name='pointer' type-id='type-id-406' filepath='/usr/bin/../lib/gcc/x86_64-linux-gnu/5.4.0/../../../../include/c++/5.4.0/bits/unique_ptr.h' line='150' column='1' id='type-id-405'/>
        </member-type>
        <member-type access='private'>
          <class-decl name='__anonymous_struct__' is-anonymous='yes' visibility='default' is-declaration-only='yes' id='type-id-407'>
            <member-type access='private'>
              <typedef-decl name='type' type-id='type-id-260' filepath='/usr/bin/../lib/gcc/x86_64-linux-gnu/5.4.0/../../../../include/c++/5.4.0/bits/unique_ptr.h' line='143' column='1' id='type-id-406'/>
            </member-type>
          </class-decl>
        </member-type>
        <member-function access='public'>
          <function-decl name='get' mangled-name='_ZNKSt10unique_ptrIN5mongo22FTDCCollectorInterfaceESt14default_deleteIS1_EE3getEv' filepath='/usr/bin/../lib/gcc/x86_64-linux-gnu/5.4.0/../../../../include/c++/5.4.0/bits/unique_ptr.h' line='304' column='1' visibility='default' binding='global' size-in-bits='64'>
            <parameter type-id='type-id-337' is-artificial='yes'/>
            <return type-id='type-id-405'/>
          </function-decl>
        </member-function>
        <member-function access='public'>
          <function-decl name='release' mangled-name='_ZNSt10unique_ptrIN5mongo22FTDCCollectorInterfaceESt14default_deleteIS1_EE7releaseEv' filepath='/usr/bin/../lib/gcc/x86_64-linux-gnu/5.4.0/../../../../include/c++/5.4.0/bits/unique_ptr.h' line='325' column='1' visibility='default' binding='global' size-in-bits='64'>
            <parameter type-id='type-id-275' is-artificial='yes'/>
            <return type-id='type-id-405'/>
          </function-decl>
        </member-function>
        <member-function access='public'>
          <function-decl name='unique_ptr' mangled-name='_ZNSt10unique_ptrIN5mongo22FTDCCollectorInterfaceESt14default_deleteIS1_EEC2EOS4_' filepath='/usr/bin/../lib/gcc/x86_64-linux-gnu/5.4.0/../../../../include/c++/5.4.0/bits/unique_ptr.h' line='205' column='1' visibility='default' binding='global' size-in-bits='64'>
            <parameter type-id='type-id-275' is-artificial='yes'/>
            <parameter type-id='type-id-116'/>
            <return type-id='type-id-193'/>
          </function-decl>
        </member-function>
        <member-function access='public'>
          <function-decl name='operator-&gt;' mangled-name='_ZNKSt10unique_ptrIN5mongo22FTDCCollectorInterfaceESt14default_deleteIS1_EEptEv' filepath='/usr/bin/../lib/gcc/x86_64-linux-gnu/5.4.0/../../../../include/c++/5.4.0/bits/unique_ptr.h' line='296' column='1' visibility='default' binding='global' size-in-bits='64'>
            <parameter type-id='type-id-337' is-artificial='yes'/>
            <return type-id='type-id-405'/>
          </function-decl>
        </member-function>
        <member-function access='public' destructor='yes'>
          <function-decl name='~unique_ptr' mangled-name='_ZNSt10unique_ptrIN5mongo22FTDCCollectorInterfaceESt14default_deleteIS1_EED2Ev' filepath='/usr/bin/../lib/gcc/x86_64-linux-gnu/5.4.0/../../../../include/c++/5.4.0/bits/unique_ptr.h' line='232' column='1' visibility='default' binding='global' size-in-bits='64'>
            <parameter type-id='type-id-275' is-artificial='yes'/>
            <return type-id='type-id-193'/>
          </function-decl>
        </member-function>
      </class-decl>
      <class-decl name='__anonymous_struct__22' is-anonymous='yes' visibility='default' is-declaration-only='yes' id='type-id-317'>
        <member-function access='public'>
          <function-decl name='operator++' mangled-name='_ZNSt13move_iteratorIPSt10unique_ptrIN5mongo22FTDCCollectorInterfaceESt14default_deleteIS2_EEEppEv' filepath='/usr/bin/../lib/gcc/x86_64-linux-gnu/5.4.0/../../../../include/c++/5.4.0/bits/stl_iterator.h' line='1004' column='1' visibility='default' binding='global' size-in-bits='64'>
            <parameter type-id='type-id-318' is-artificial='yes'/>
            <return type-id='type-id-115'/>
          </function-decl>
        </member-function>
      </class-decl>
      <class-decl name='__anonymous_struct__7' is-anonymous='yes' visibility='default' is-declaration-only='yes' id='type-id-279'>
        <member-function access='public'>
          <function-decl name='tuple&lt;mongo::FTDCCollectorInterface *, std::default_delete&lt;mongo::FTDCCollectorInterface&gt;, void&gt;' mangled-name='_ZNSt5tupleIJPN5mongo22FTDCCollectorInterfaceESt14default_deleteIS1_EEEC2IS2_S4_vEEOT_OT0_' filepath='/usr/bin/../lib/gcc/x86_64-linux-gnu/5.4.0/../../../../include/c++/5.4.0/tuple' line='612' column='1' visibility='default' binding='global' size-in-bits='64'>
            <parameter type-id='type-id-280' is-artificial='yes'/>
            <parameter type-id='type-id-261'/>
            <parameter type-id='type-id-377'/>
            <return type-id='type-id-193'/>
          </function-decl>
        </member-function>
      </class-decl>
      <class-decl name='__anonymous_struct__8' is-anonymous='yes' visibility='default' is-declaration-only='yes' id='type-id-291'>
        <member-type access='private'>
          <typedef-decl name='pointer' type-id='type-id-409' filepath='/usr/bin/../lib/gcc/x86_64-linux-gnu/5.4.0/../../../../include/c++/5.4.0/bits/unique_ptr.h' line='150' column='1' id='type-id-408'/>
        </member-type>
        <member-type access='private'>
          <class-decl name='__anonymous_struct__' is-anonymous='yes' visibility='default' is-declaration-only='yes' id='type-id-410'>
            <member-type access='private'>
              <typedef-decl name='type' type-id='type-id-264' filepath='/usr/bin/../lib/gcc/x86_64-linux-gnu/5.4.0/../../../../include/c++/5.4.0/bits/unique_ptr.h' line='143' column='1' id='type-id-409'/>
            </member-type>
          </class-decl>
        </member-type>
        <member-function access='public'>
          <function-decl name='get' mangled-name='_ZNKSt10unique_ptrIN5mongo16OperationContextENS0_14ServiceContext23OperationContextDeleterEE3getEv' filepath='/usr/bin/../lib/gcc/x86_64-linux-gnu/5.4.0/../../../../include/c++/5.4.0/bits/unique_ptr.h' line='304' column='1' visibility='default' binding='global' size-in-bits='64'>
            <parameter type-id='type-id-340' is-artificial='yes'/>
            <return type-id='type-id-408'/>
          </function-decl>
        </member-function>
        <member-function access='public'>
          <function-decl name='operator-&gt;' mangled-name='_ZNKSt10unique_ptrIN5mongo16OperationContextENS0_14ServiceContext23OperationContextDeleterEEptEv' filepath='/usr/bin/../lib/gcc/x86_64-linux-gnu/5.4.0/../../../../include/c++/5.4.0/bits/unique_ptr.h' line='296' column='1' visibility='default' binding='global' size-in-bits='64'>
            <parameter type-id='type-id-340' is-artificial='yes'/>
            <return type-id='type-id-408'/>
          </function-decl>
        </member-function>
        <member-function access='public' destructor='yes'>
          <function-decl name='~unique_ptr' mangled-name='_ZNSt10unique_ptrIN5mongo16OperationContextENS0_14ServiceContext23OperationContextDeleterEED2Ev' filepath='/usr/bin/../lib/gcc/x86_64-linux-gnu/5.4.0/../../../../include/c++/5.4.0/bits/unique_ptr.h' line='232' column='1' visibility='default' binding='global' size-in-bits='64'>
            <parameter type-id='type-id-292' is-artificial='yes'/>
            <return type-id='type-id-193'/>
          </function-decl>
        </member-function>
      </class-decl>
      <class-decl name='__anonymous_struct__9' is-anonymous='yes' visibility='default' is-declaration-only='yes' id='type-id-325'>
        <member-type access='private'>
          <typedef-decl name='pointer' type-id='type-id-412' filepath='/usr/bin/../lib/gcc/x86_64-linux-gnu/5.4.0/../../../../include/c++/5.4.0/bits/unique_ptr.h' line='150' column='1' id='type-id-411'/>
        </member-type>
        <member-type access='private'>
          <class-decl name='__anonymous_struct__' is-anonymous='yes' visibility='default' is-declaration-only='yes' id='type-id-413'>
            <member-type access='private'>
              <typedef-decl name='type' type-id='type-id-263' filepath='/usr/bin/../lib/gcc/x86_64-linux-gnu/5.4.0/../../../../include/c++/5.4.0/bits/unique_ptr.h' line='143' column='1' id='type-id-412'/>
            </member-type>
          </class-decl>
        </member-type>
        <member-function access='public'>
          <function-decl name='get' mangled-name='_ZNKSt10unique_ptrIN5mongo6LockerESt14default_deleteIS1_EE3getEv' filepath='/usr/bin/../lib/gcc/x86_64-linux-gnu/5.4.0/../../../../include/c++/5.4.0/bits/unique_ptr.h' line='304' column='1' visibility='default' binding='global' size-in-bits='64'>
            <parameter type-id='type-id-341' is-artificial='yes'/>
            <return type-id='type-id-411'/>
          </function-decl>
        </member-function>
      </class-decl>
      <class-decl name='__anonymous_struct__10' is-struct='yes' is-anonymous='yes' visibility='default' is-declaration-only='yes' id='type-id-414'>
        <member-function access='public' static='yes'>
          <function-decl name='deallocate' mangled-name='_ZNSt16allocator_traitsISaIcEE10deallocateERS0_Pcm' filepath='/usr/bin/../lib/gcc/x86_64-linux-gnu/5.4.0/../../../../include/c++/5.4.0/bits/alloc_traits.h' line='516' column='1' visibility='default' binding='global' size-in-bits='64'>
            <parameter type-id='type-id-96'/>
            <parameter type-id='type-id-213'/>
            <parameter type-id='type-id-40'/>
            <return type-id='type-id-193'/>
          </function-decl>
        </member-function>
      </class-decl>
      <class-decl name='__anonymous_struct__11' is-struct='yes' is-anonymous='yes' visibility='default' is-declaration-only='yes' id='type-id-383'>
        <member-function access='public'>
          <function-decl name='_Head_base&lt;mongo::Date_t &amp;&gt;' mangled-name='_ZNSt10_Head_baseILm1EN5mongo6Date_tELb0EEC2IRS1_EEOT_' filepath='/usr/bin/../lib/gcc/x86_64-linux-gnu/5.4.0/../../../../include/c++/5.4.0/tuple' line='114' column='1' visibility='default' binding='global' size-in-bits='64'>
            <parameter type-id='type-id-384' is-artificial='yes'/>
            <parameter type-id='type-id-115'/>
            <return type-id='type-id-193'/>
          </function-decl>
        </member-function>
        <member-function access='public'>
          <function-decl name='_Head_base&lt;mongo::Date_t&gt;' mangled-name='_ZNSt10_Head_baseILm1EN5mongo6Date_tELb0EEC2IS1_EEOT_' filepath='/usr/bin/../lib/gcc/x86_64-linux-gnu/5.4.0/../../../../include/c++/5.4.0/tuple' line='114' column='1' visibility='default' binding='global' size-in-bits='64'>
            <parameter type-id='type-id-384' is-artificial='yes'/>
            <parameter type-id='type-id-116'/>
            <return type-id='type-id-193'/>
          </function-decl>
        </member-function>
      </class-decl>
      <class-decl name='__anonymous_struct__12' is-struct='yes' is-anonymous='yes' visibility='default' is-declaration-only='yes' id='type-id-385'>
        <member-function access='public'>
          <function-decl name='_Tuple_impl&lt;mongo::Date_t &amp;&gt;' mangled-name='_ZNSt11_Tuple_implILm1EJN5mongo6Date_tEEEC2IRS1_EEOT_' filepath='/usr/bin/../lib/gcc/x86_64-linux-gnu/5.4.0/../../../../include/c++/5.4.0/tuple' line='361' column='1' visibility='default' binding='global' size-in-bits='64'>
            <parameter type-id='type-id-386' is-artificial='yes'/>
            <parameter type-id='type-id-115'/>
            <return type-id='type-id-193'/>
          </function-decl>
        </member-function>
        <member-function access='public'>
          <function-decl name='_Tuple_impl&lt;mongo::Date_t&gt;' mangled-name='_ZNSt11_Tuple_implILm1EJN5mongo6Date_tEEEC2IS1_EEOT_' filepath='/usr/bin/../lib/gcc/x86_64-linux-gnu/5.4.0/../../../../include/c++/5.4.0/tuple' line='361' column='1' visibility='default' binding='global' size-in-bits='64'>
            <parameter type-id='type-id-386' is-artificial='yes'/>
            <parameter type-id='type-id-116'/>
            <return type-id='type-id-193'/>
          </function-decl>
        </member-function>
      </class-decl>
      <class-decl name='__anonymous_struct__13' is-struct='yes' is-anonymous='yes' visibility='default' is-declaration-only='yes' id='type-id-387'>
        <member-function access='public'>
          <function-decl name='_Tuple_impl&lt;mongo::BSONObj, mongo::Date_t &amp;, void&gt;' mangled-name='_ZNSt11_Tuple_implILm0EJN5mongo7BSONObjENS0_6Date_tEEEC2IS1_JRS2_EvEEOT_DpOT0_' filepath='/usr/bin/../lib/gcc/x86_64-linux-gnu/5.4.0/../../../../include/c++/5.4.0/tuple' line='211' column='1' visibility='default' binding='global' size-in-bits='64'>
            <parameter type-id='type-id-388' is-artificial='yes'/>
            <parameter type-id='type-id-116'/>
            <parameter type-id='type-id-115'/>
            <return type-id='type-id-193'/>
          </function-decl>
        </member-function>
        <member-function access='public'>
          <function-decl name='_Tuple_impl&lt;mongo::BSONObj, mongo::Date_t, void&gt;' mangled-name='_ZNSt11_Tuple_implILm0EJN5mongo7BSONObjENS0_6Date_tEEEC2IS1_JS2_EvEEOT_DpOT0_' filepath='/usr/bin/../lib/gcc/x86_64-linux-gnu/5.4.0/../../../../include/c++/5.4.0/tuple' line='211' column='1' visibility='default' binding='global' size-in-bits='64'>
            <parameter type-id='type-id-388' is-artificial='yes'/>
            <parameter type-id='type-id-116'/>
            <parameter type-id='type-id-116'/>
            <return type-id='type-id-193'/>
          </function-decl>
        </member-function>
      </class-decl>
      <class-decl name='__anonymous_struct__15' is-struct='yes' is-anonymous='yes' visibility='default' is-declaration-only='yes' id='type-id-389'>
        <member-function access='public'>
          <function-decl name='_Head_base&lt;mongo::BSONObj&gt;' mangled-name='_ZNSt10_Head_baseILm0EN5mongo7BSONObjELb0EEC2IS1_EEOT_' filepath='/usr/bin/../lib/gcc/x86_64-linux-gnu/5.4.0/../../../../include/c++/5.4.0/tuple' line='114' column='1' visibility='default' binding='global' size-in-bits='64'>
            <parameter type-id='type-id-390' is-artificial='yes'/>
            <parameter type-id='type-id-116'/>
            <return type-id='type-id-193'/>
          </function-decl>
        </member-function>
      </class-decl>
      <class-decl name='__anonymous_struct__16' is-struct='yes' is-anonymous='yes' visibility='default' is-declaration-only='yes' id='type-id-360'>
        <member-function access='public'>
          <function-decl name='__atomic_base' mangled-name='_ZNSt13__atomic_baseIjEC2Ej' filepath='/usr/bin/../lib/gcc/x86_64-linux-gnu/5.4.0/../../../../include/c++/5.4.0/bits/atomic_base.h' line='256' column='1' visibility='default' binding='global' size-in-bits='64'>
            <parameter type-id='type-id-391' is-artificial='yes'/>
            <parameter type-id='type-id-206'/>
            <return type-id='type-id-193'/>
          </function-decl>
        </member-function>
        <member-function access='public'>
          <function-decl name='fetch_sub' mangled-name='_ZNSt13__atomic_baseIjE9fetch_subEjSt12memory_order' filepath='/usr/bin/../lib/gcc/x86_64-linux-gnu/5.4.0/../../../../include/c++/5.4.0/bits/atomic_base.h' line='522' column='1' visibility='default' binding='global' size-in-bits='64'>
            <parameter type-id='type-id-391' is-artificial='yes'/>
            <parameter type-id='type-id-206'/>
            <parameter type-id='type-id-196'/>
            <return type-id='type-id-206'/>
          </function-decl>
        </member-function>
        <member-function access='public'>
          <function-decl name='fetch_add' mangled-name='_ZNSt13__atomic_baseIjE9fetch_addEjSt12memory_order' filepath='/usr/bin/../lib/gcc/x86_64-linux-gnu/5.4.0/../../../../include/c++/5.4.0/bits/atomic_base.h' line='512' column='1' visibility='default' binding='global' size-in-bits='64'>
            <parameter type-id='type-id-391' is-artificial='yes'/>
            <parameter type-id='type-id-206'/>
            <parameter type-id='type-id-196'/>
            <return type-id='type-id-206'/>
          </function-decl>
        </member-function>
        <member-function access='public'>
          <function-decl name='load' mangled-name='_ZNKSt13__atomic_baseIjE4loadESt12memory_order' filepath='/usr/bin/../lib/gcc/x86_64-linux-gnu/5.4.0/../../../../include/c++/5.4.0/bits/atomic_base.h' line='390' column='1' visibility='default' binding='global' size-in-bits='64'>
            <parameter type-id='type-id-369' is-artificial='yes'/>
            <parameter type-id='type-id-196'/>
            <return type-id='type-id-206'/>
          </function-decl>
        </member-function>
      </class-decl>
      <class-decl name='__anonymous_struct__17' is-struct='yes' is-anonymous='yes' visibility='default' is-declaration-only='yes' id='type-id-392'>
        <member-function access='public'>
          <function-decl name='atomic' mangled-name='_ZNSt6atomicIjEC2Ej' filepath='/usr/bin/../lib/gcc/x86_64-linux-gnu/5.4.0/../../../../include/c++/5.4.0/atomic' line='635' column='1' visibility='default' binding='global' size-in-bits='64'>
            <parameter type-id='type-id-393' is-artificial='yes'/>
            <parameter type-id='type-id-207'/>
            <return type-id='type-id-193'/>
          </function-decl>
        </member-function>
      </class-decl>
      <class-decl name='__anonymous_struct__19' is-struct='yes' is-anonymous='yes' visibility='default' is-declaration-only='yes' id='type-id-356'>
        <member-function access='public'>
          <function-decl name='operator()' mangled-name='_ZNKSt14default_deleteIN5mongo14BSONObjBuilderEEclEPS1_' filepath='/usr/bin/../lib/gcc/x86_64-linux-gnu/5.4.0/../../../../include/c++/5.4.0/bits/unique_ptr.h' line='70' column='1' visibility='default' binding='global' size-in-bits='64'>
            <parameter type-id='type-id-368' is-artificial='yes'/>
            <parameter type-id='type-id-308'/>
            <return type-id='type-id-193'/>
          </function-decl>
        </member-function>
      </class-decl>
      <class-decl name='__anonymous_struct__20' is-struct='yes' is-anonymous='yes' visibility='default' is-declaration-only='yes' id='type-id-395'>
        <member-type access='public'>
          <typedef-decl name='pointer' type-id='type-id-416' filepath='/usr/bin/../lib/gcc/x86_64-linux-gnu/5.4.0/../../../../include/c++/5.4.0/bits/stl_vector.h' line='77' column='1' id='type-id-415'/>
        </member-type>
        <member-function access='public'>
          <function-decl name='_M_allocate' mangled-name='_ZNSt12_Vector_baseISt10unique_ptrIN5mongo22FTDCCollectorInterfaceESt14default_deleteIS2_EESaIS5_EE11_M_allocateEm' filepath='/usr/bin/../lib/gcc/x86_64-linux-gnu/5.4.0/../../../../include/c++/5.4.0/bits/stl_vector.h' line='167' column='1' visibility='default' binding='global' size-in-bits='64'>
            <parameter type-id='type-id-396' is-artificial='yes'/>
            <parameter type-id='type-id-39'/>
            <return type-id='type-id-415'/>
          </function-decl>
        </member-function>
        <member-function access='public'>
          <function-decl name='_M_deallocate' mangled-name='_ZNSt12_Vector_baseISt10unique_ptrIN5mongo22FTDCCollectorInterfaceESt14default_deleteIS2_EESaIS5_EE13_M_deallocateEPS5_m' filepath='/usr/bin/../lib/gcc/x86_64-linux-gnu/5.4.0/../../../../include/c++/5.4.0/bits/stl_vector.h' line='174' column='1' visibility='default' binding='global' size-in-bits='64'>
            <parameter type-id='type-id-396' is-artificial='yes'/>
            <parameter type-id='type-id-415'/>
            <parameter type-id='type-id-39'/>
            <return type-id='type-id-193'/>
          </function-decl>
        </member-function>
      </class-decl>
      <class-decl name='__anonymous_struct__21' is-struct='yes' is-anonymous='yes' visibility='default' is-declaration-only='yes' id='type-id-417'>
        <member-function access='public' static='yes'>
          <function-decl name='__uninit_copy&lt;std::move_iterator&lt;std::unique_ptr&lt;mongo::FTDCCollectorInterface, std::default_delete&lt;mongo::FTDCCollectorInterface&gt; &gt; *&gt;, std::unique_ptr&lt;mongo::FTDCCollectorInterface, std::default_delete&lt;mongo::FTDCCollectorInterface&gt; &gt; *&gt;' mangled-name='_ZNSt20__uninitialized_copyILb0EE13__uninit_copyISt13move_iteratorIPSt10unique_ptrIN5mongo22FTDCCollectorInterfaceESt14default_deleteIS5_EEES9_EET0_T_SC_SB_' filepath='/usr/bin/../lib/gcc/x86_64-linux-gnu/5.4.0/../../../../include/c++/5.4.0/bits/stl_uninitialized.h' line='68' column='1' visibility='default' binding='global' size-in-bits='64'>
            <parameter type-id='type-id-317'/>
            <parameter type-id='type-id-317'/>
            <parameter type-id='type-id-278'/>
            <return type-id='type-id-278'/>
          </function-decl>
        </member-function>
      </class-decl>
      <class-decl name='__anonymous_struct__23' is-struct='yes' is-anonymous='yes' visibility='default' is-declaration-only='yes' id='type-id-418'>
        <member-function access='public' static='yes'>
          <function-decl name='__destroy&lt;std::unique_ptr&lt;mongo::FTDCCollectorInterface, std::default_delete&lt;mongo::FTDCCollectorInterface&gt; &gt; *&gt;' mangled-name='_ZNSt12_Destroy_auxILb0EE9__destroyIPSt10unique_ptrIN5mongo22FTDCCollectorInterfaceESt14default_deleteIS4_EEEEvT_S9_' filepath='/usr/bin/../lib/gcc/x86_64-linux-gnu/5.4.0/../../../../include/c++/5.4.0/bits/stl_construct.h' line='100' column='1' visibility='default' binding='global' size-in-bits='64'>
            <parameter type-id='type-id-278'/>
            <parameter type-id='type-id-278'/>
            <return type-id='type-id-193'/>
          </function-decl>
        </member-function>
      </class-decl>
      <class-decl name='__anonymous_struct__3' is-struct='yes' is-anonymous='yes' visibility='default' is-declaration-only='yes' id='type-id-419'>
        <member-type access='public'>
          <typedef-decl name='allocator_type' type-id='type-id-399' filepath='/usr/bin/../lib/gcc/x86_64-linux-gnu/5.4.0/../../../../include/c++/5.4.0/bits/alloc_traits.h' line='445' column='1' id='type-id-375'/>
        </member-type>
        <member-type access='public'>
          <typedef-decl name='pointer' type-id='type-id-278' filepath='/usr/bin/../lib/gcc/x86_64-linux-gnu/5.4.0/../../../../include/c++/5.4.0/bits/alloc_traits.h' line='450' column='1' id='type-id-420'/>
        </member-type>
        <member-function access='public' static='yes'>
          <function-decl name='construct&lt;std::unique_ptr&lt;mongo::FTDCCollectorInterface, std::default_delete&lt;mongo::FTDCCollectorInterface&gt; &gt;, std::unique_ptr&lt;mongo::FTDCCollectorInterface, std::default_delete&lt;mongo::FTDCCollectorInterface&gt; &gt; &gt;' mangled-name='_ZNSt16allocator_traitsISaISt10unique_ptrIN5mongo22FTDCCollectorInterfaceESt14default_deleteIS2_EEEE9constructIS5_JS5_EEEvRS6_PT_DpOT0_' filepath='/usr/bin/../lib/gcc/x86_64-linux-gnu/5.4.0/../../../../include/c++/5.4.0/bits/alloc_traits.h' line='529' column='1' visibility='default' binding='global' size-in-bits='64'>
            <parameter type-id='type-id-376'/>
            <parameter type-id='type-id-278'/>
            <parameter type-id='type-id-116'/>
            <return type-id='type-id-193'/>
          </function-decl>
        </member-function>
        <member-function access='public' static='yes'>
          <function-decl name='allocate' mangled-name='_ZNSt16allocator_traitsISaISt10unique_ptrIN5mongo22FTDCCollectorInterfaceESt14default_deleteIS2_EEEE8allocateERS6_m' filepath='/usr/bin/../lib/gcc/x86_64-linux-gnu/5.4.0/../../../../include/c++/5.4.0/bits/alloc_traits.h' line='490' column='1' visibility='default' binding='global' size-in-bits='64'>
            <parameter type-id='type-id-376'/>
            <parameter type-id='type-id-40'/>
            <return type-id='type-id-420'/>
          </function-decl>
        </member-function>
        <member-function access='public' static='yes'>
          <function-decl name='deallocate' mangled-name='_ZNSt16allocator_traitsISaISt10unique_ptrIN5mongo22FTDCCollectorInterfaceESt14default_deleteIS2_EEEE10deallocateERS6_PS5_m' filepath='/usr/bin/../lib/gcc/x86_64-linux-gnu/5.4.0/../../../../include/c++/5.4.0/bits/alloc_traits.h' line='516' column='1' visibility='default' binding='global' size-in-bits='64'>
            <parameter type-id='type-id-376'/>
            <parameter type-id='type-id-420'/>
            <parameter type-id='type-id-40'/>
            <return type-id='type-id-193'/>
          </function-decl>
        </member-function>
      </class-decl>
      <class-decl name='__anonymous_struct__4' is-struct='yes' is-anonymous='yes' visibility='default' is-declaration-only='yes' id='type-id-379'>
        <member-function access='public'>
          <function-decl name='_Head_base&lt;mongo::FTDCCollectorInterface *&gt;' mangled-name='_ZNSt10_Head_baseILm0EPN5mongo22FTDCCollectorInterfaceELb0EEC2IS2_EEOT_' filepath='/usr/bin/../lib/gcc/x86_64-linux-gnu/5.4.0/../../../../include/c++/5.4.0/tuple' line='114' column='1' visibility='default' binding='global' size-in-bits='64'>
            <parameter type-id='type-id-380' is-artificial='yes'/>
            <parameter type-id='type-id-261'/>
            <return type-id='type-id-193'/>
          </function-decl>
        </member-function>
      </class-decl>
      <class-decl name='__anonymous_struct__5' is-struct='yes' is-anonymous='yes' visibility='default' is-declaration-only='yes' id='type-id-381'>
        <member-function access='public'>
          <function-decl name='_Tuple_impl&lt;mongo::FTDCCollectorInterface *, std::default_delete&lt;mongo::FTDCCollectorInterface&gt; , void&gt;' mangled-name='_ZNSt11_Tuple_implILm0EJPN5mongo22FTDCCollectorInterfaceESt14default_deleteIS1_EEEC2IS2_JS4_EvEEOT_DpOT0_' filepath='/usr/bin/../lib/gcc/x86_64-linux-gnu/5.4.0/../../../../include/c++/5.4.0/tuple' line='211' column='1' visibility='default' binding='global' size-in-bits='64'>
            <parameter type-id='type-id-382' is-artificial='yes'/>
            <parameter type-id='type-id-261'/>
            <parameter type-id='type-id-377'/>
            <return type-id='type-id-193'/>
          </function-decl>
        </member-function>
      </class-decl>
      <class-decl name='__anonymous_struct__6' is-struct='yes' is-anonymous='yes' visibility='default' is-declaration-only='yes' id='type-id-364'>
        <member-function access='public'>
          <function-decl name='operator()' mangled-name='_ZNKSt14default_deleteIN5mongo22FTDCCollectorInterfaceEEclEPS1_' filepath='/usr/bin/../lib/gcc/x86_64-linux-gnu/5.4.0/../../../../include/c++/5.4.0/bits/unique_ptr.h' line='70' column='1' visibility='default' binding='global' size-in-bits='64'>
            <parameter type-id='type-id-370' is-artificial='yes'/>
            <parameter type-id='type-id-260'/>
            <return type-id='type-id-193'/>
          </function-decl>
        </member-function>
      </class-decl>
      <namespace-decl name='__cxx11'>
        <typedef-decl name='string' type-id='type-id-73' filepath='/usr/bin/../lib/gcc/x86_64-linux-gnu/5.4.0/../../../../include/c++/5.4.0/bits/stringfwd.h' line='74' column='1' id='type-id-254'/>
      </namespace-decl>
    </namespace-decl>
    <namespace-decl name='__gnu_cxx'>
      <class-decl name='const_iterator' naming-typedef-id='type-id-402' visibility='default' is-declaration-only='yes' id='type-id-403'/>
      <class-decl name='iterator' naming-typedef-id='type-id-404' visibility='default' is-declaration-only='yes' id='type-id-269'>
        <member-function access='public'>
          <function-decl name='__normal_iterator' mangled-name='_ZN9__gnu_cxx17__normal_iteratorIPSt10unique_ptrIN5mongo22FTDCCollectorInterfaceESt14default_deleteIS3_EESt6vectorIS6_SaIS6_EEEC2ERKS7_' filepath='/usr/bin/../lib/gcc/x86_64-linux-gnu/5.4.0/../../../../include/c++/5.4.0/bits/stl_iterator.h' line='740' column='1' visibility='default' binding='global' size-in-bits='64'>
            <parameter type-id='type-id-271' is-artificial='yes'/>
            <parameter type-id='type-id-320'/>
            <return type-id='type-id-193'/>
          </function-decl>
        </member-function>
        <member-function access='public'>
          <function-decl name='operator++' mangled-name='_ZN9__gnu_cxx17__normal_iteratorIPSt10unique_ptrIN5mongo22FTDCCollectorInterfaceESt14default_deleteIS3_EESt6vectorIS6_SaIS6_EEEppEv' filepath='/usr/bin/../lib/gcc/x86_64-linux-gnu/5.4.0/../../../../include/c++/5.4.0/bits/stl_iterator.h' line='761' column='1' visibility='default' binding='global' size-in-bits='64'>
            <parameter type-id='type-id-271' is-artificial='yes'/>
            <return type-id='type-id-270'/>
          </function-decl>
        </member-function>
      </class-decl>
      <class-decl name='__anonymous_struct__' is-anonymous='yes' visibility='default' is-declaration-only='yes' id='type-id-276'>
        <member-type access='private'>
          <typedef-decl name='pointer' type-id='type-id-278' filepath='/usr/bin/../lib/gcc/x86_64-linux-gnu/5.4.0/../../../../include/c++/5.4.0/ext/new_allocator.h' line='63' column='1' id='type-id-421'/>
        </member-type>
        <member-function access='public'>
          <function-decl name='construct&lt;std::unique_ptr&lt;mongo::FTDCCollectorInterface, std::default_delete&lt;mongo::FTDCCollectorInterface&gt; &gt;, std::unique_ptr&lt;mongo::FTDCCollectorInterface, std::default_delete&lt;mongo::FTDCCollectorInterface&gt; &gt; &gt;' mangled-name='_ZN9__gnu_cxx13new_allocatorISt10unique_ptrIN5mongo22FTDCCollectorInterfaceESt14default_deleteIS3_EEE9constructIS6_JS6_EEEvPT_DpOT0_' filepath='/usr/bin/../lib/gcc/x86_64-linux-gnu/5.4.0/../../../../include/c++/5.4.0/ext/new_allocator.h' line='119' column='1' visibility='default' binding='global' size-in-bits='64'>
            <parameter type-id='type-id-277' is-artificial='yes'/>
            <parameter type-id='type-id-278'/>
            <parameter type-id='type-id-116'/>
            <return type-id='type-id-193'/>
          </function-decl>
        </member-function>
        <member-function access='public'>
          <function-decl name='allocate' mangled-name='_ZN9__gnu_cxx13new_allocatorISt10unique_ptrIN5mongo22FTDCCollectorInterfaceESt14default_deleteIS3_EEE8allocateEmPKv' filepath='/usr/bin/../lib/gcc/x86_64-linux-gnu/5.4.0/../../../../include/c++/5.4.0/ext/new_allocator.h' line='99' column='1' visibility='default' binding='global' size-in-bits='64'>
            <parameter type-id='type-id-277' is-artificial='yes'/>
            <parameter type-id='type-id-40'/>
            <parameter type-id='type-id-187'/>
            <return type-id='type-id-421'/>
          </function-decl>
        </member-function>
        <member-function access='public'>
          <function-decl name='deallocate' mangled-name='_ZN9__gnu_cxx13new_allocatorISt10unique_ptrIN5mongo22FTDCCollectorInterfaceESt14default_deleteIS3_EEE10deallocateEPS6_m' filepath='/usr/bin/../lib/gcc/x86_64-linux-gnu/5.4.0/../../../../include/c++/5.4.0/ext/new_allocator.h' line='109' column='1' visibility='default' binding='global' size-in-bits='64'>
            <parameter type-id='type-id-277' is-artificial='yes'/>
            <parameter type-id='type-id-421'/>
            <parameter type-id='type-id-40'/>
            <return type-id='type-id-193'/>
          </function-decl>
        </member-function>
      </class-decl>
      <class-decl name='__anonymous_struct__2' is-anonymous='yes' visibility='default' is-declaration-only='yes' id='type-id-285'>
        <member-function access='public'>
          <function-decl name='deallocate' mangled-name='_ZN9__gnu_cxx13new_allocatorIcE10deallocateEPcm' filepath='/usr/bin/../lib/gcc/x86_64-linux-gnu/5.4.0/../../../../include/c++/5.4.0/ext/new_allocator.h' line='109' column='1' visibility='default' binding='global' size-in-bits='64'>
            <parameter type-id='type-id-286' is-artificial='yes'/>
            <parameter type-id='type-id-213'/>
            <parameter type-id='type-id-40'/>
            <return type-id='type-id-193'/>
          </function-decl>
        </member-function>
      </class-decl>
      <class-decl name='__anonymous_struct__1' is-struct='yes' is-anonymous='yes' visibility='default' is-declaration-only='yes' id='type-id-422'>
      </class-decl>
      <class-decl name='__anonymous_struct__3' is-struct='yes' is-anonymous='yes' visibility='default' is-declaration-only='yes' id='type-id-423'>
        <member-type access='public'>
          <typedef-decl name='pointer' type-id='type-id-420' filepath='/usr/bin/../lib/gcc/x86_64-linux-gnu/5.4.0/../../../../include/c++/5.4.0/ext/alloc_traits.h' line='104' column='1' id='type-id-416'/>
        </member-type>
      </class-decl>
    </namespace-decl>
    <function-decl name='strnlen' filepath='/usr/include/string.h' line='401' column='1' visibility='default' binding='global' size-in-bits='64'>
      <parameter type-id='type-id-60'/>
      <parameter type-id='type-id-39'/>
      <return type-id='type-id-39'/>
    </function-decl>
    <function-decl name='clock' filepath='/usr/include/time.h' line='189' column='1' visibility='default' binding='global' size-in-bits='64'>
      <return type-id='type-id-248'/>
    </function-decl>
    <function-decl name='time' filepath='/usr/include/time.h' line='192' column='1' visibility='default' binding='global' size-in-bits='64'>
      <parameter type-id='type-id-268'/>
      <return type-id='type-id-249'/>
    </function-decl>
    <function-decl name='difftime' filepath='/usr/include/time.h' line='195' column='1' visibility='default' binding='global' size-in-bits='64'>
      <parameter type-id='type-id-249'/>
      <parameter type-id='type-id-249'/>
      <return type-id='type-id-14'/>
    </function-decl>
    <function-decl name='mktime' filepath='/usr/include/time.h' line='199' column='1' visibility='default' binding='global' size-in-bits='64'>
      <parameter type-id='type-id-378'/>
      <return type-id='type-id-249'/>
    </function-decl>
    <function-decl name='strftime' filepath='/usr/include/time.h' line='205' column='1' visibility='default' binding='global' size-in-bits='64'>
      <parameter type-id='type-id-56'/>
      <parameter type-id='type-id-39'/>
      <parameter type-id='type-id-61'/>
      <parameter type-id='type-id-371'/>
      <return type-id='type-id-39'/>
    </function-decl>
    <function-decl name='gmtime' filepath='/usr/include/time.h' line='239' column='1' visibility='default' binding='global' size-in-bits='64'>
      <parameter type-id='type-id-258'/>
      <return type-id='type-id-378'/>
    </function-decl>
    <function-decl name='localtime' filepath='/usr/include/time.h' line='243' column='1' visibility='default' binding='global' size-in-bits='64'>
      <parameter type-id='type-id-258'/>
      <return type-id='type-id-378'/>
    </function-decl>
    <function-decl name='asctime' filepath='/usr/include/time.h' line='261' column='1' visibility='default' binding='global' size-in-bits='64'>
      <parameter type-id='type-id-367'/>
      <return type-id='type-id-55'/>
    </function-decl>
    <function-decl name='ctime' filepath='/usr/include/time.h' line='264' column='1' visibility='default' binding='global' size-in-bits='64'>
      <parameter type-id='type-id-258'/>
      <return type-id='type-id-55'/>
    </function-decl>
    <function-decl name='wcsftime' filepath='/usr/include/wchar.h' line='858' column='1' visibility='default' binding='global' size-in-bits='64'>
      <parameter type-id='type-id-111'/>
      <parameter type-id='type-id-39'/>
      <parameter type-id='type-id-83'/>
      <parameter type-id='type-id-371'/>
      <return type-id='type-id-39'/>
    </function-decl>
    <namespace-decl name='mongo'>
      <class-decl name='FTDCCollectorInterface' size-in-bits='64' visibility='default' id='type-id-259'/>
      <class-decl name='Locker' size-in-bits='128' visibility='default' id='type-id-262'>
        <member-function access='public'>
          <function-decl name='setShouldConflictWithSecondaryBatchApplication' mangled-name='_ZN5mongo6Locker46setShouldConflictWithSecondaryBatchApplicationEb' filepath='src/mongo/db/concurrency/locker.h' line='323' column='1' visibility='default' binding='global' size-in-bits='64'>
            <parameter type-id='type-id-263' is-artificial='yes'/>
            <parameter type-id='type-id-1'/>
            <return type-id='type-id-193'/>
          </function-decl>
        </member-function>
      </class-decl>
      <class-decl name='OperationContext' size-in-bits='2176' visibility='default' id='type-id-251'>
        <member-function access='public'>
          <function-decl name='lockState' mangled-name='_ZNK5mongo16OperationContext9lockStateEv' filepath='src/mongo/db/operation_context.h' line='123' column='1' visibility='default' binding='global' size-in-bits='64'>
            <parameter type-id='type-id-253' is-artificial='yes'/>
            <return type-id='type-id-263'/>
          </function-decl>
        </member-function>
      </class-decl>
      <class-decl name='ServiceContext' size-in-bits='2432' visibility='default' id='type-id-265'/>
      <class-decl name='BufBuilder' naming-typedef-id='type-id-372' visibility='default' is-declaration-only='yes' id='type-id-351'>
        <member-function access='public'>
          <function-decl name='_BufBuilder' mangled-name='_ZN5mongo11_BufBuilderINS_21SharedBufferAllocatorEEC2Ei' filepath='src/mongo/bson/util/builder.h' line='158' column='1' visibility='default' binding='global' size-in-bits='64'>
            <parameter type-id='type-id-374' is-artificial='yes'/>
            <parameter type-id='type-id-16'/>
            <return type-id='type-id-193'/>
          </function-decl>
        </member-function>
        <member-function access='public'>
          <function-decl name='grow' mangled-name='_ZN5mongo11_BufBuilderINS_21SharedBufferAllocatorEE4growEi' filepath='src/mongo/bson/util/builder.h' line='287' column='1' visibility='default' binding='global' size-in-bits='64'>
            <parameter type-id='type-id-374' is-artificial='yes'/>
            <parameter type-id='type-id-16'/>
            <return type-id='type-id-55'/>
          </function-decl>
        </member-function>
        <member-function access='public'>
          <function-decl name='skip' mangled-name='_ZN5mongo11_BufBuilderINS_21SharedBufferAllocatorEE4skipEi' filepath='src/mongo/bson/util/builder.h' line='188' column='1' visibility='default' binding='global' size-in-bits='64'>
            <parameter type-id='type-id-374' is-artificial='yes'/>
            <parameter type-id='type-id-16'/>
            <return type-id='type-id-55'/>
          </function-decl>
        </member-function>
        <member-function access='public'>
          <function-decl name='reserveBytes' mangled-name='_ZN5mongo11_BufBuilderINS_21SharedBufferAllocatorEE12reserveBytesEi' filepath='src/mongo/bson/util/builder.h' line='301' column='1' visibility='default' binding='global' size-in-bits='64'>
            <parameter type-id='type-id-374' is-artificial='yes'/>
            <parameter type-id='type-id-16'/>
            <return type-id='type-id-193'/>
          </function-decl>
        </member-function>
        <member-function access='private'>
          <function-decl name='appendNumImpl&lt;char&gt;' mangled-name='_ZN5mongo11_BufBuilderINS_21SharedBufferAllocatorEE13appendNumImplIcEEvT_' filepath='src/mongo/bson/util/builder.h' line='334' column='1' visibility='default' binding='global' size-in-bits='64'>
            <parameter type-id='type-id-374' is-artificial='yes'/>
            <parameter type-id='type-id-2'/>
            <return type-id='type-id-193'/>
          </function-decl>
        </member-function>
        <member-function access='public'>
          <function-decl name='appendNum' mangled-name='_ZN5mongo11_BufBuilderINS_21SharedBufferAllocatorEE9appendNumEc' filepath='src/mongo/bson/util/builder.h' line='212' column='1' visibility='default' binding='global' size-in-bits='64'>
            <parameter type-id='type-id-374' is-artificial='yes'/>
            <parameter type-id='type-id-2'/>
            <return type-id='type-id-193'/>
          </function-decl>
        </member-function>
        <member-function access='public'>
          <function-decl name='appendStr' mangled-name='_ZN5mongo11_BufBuilderINS_21SharedBufferAllocatorEE9appendStrENS_10StringDataEb' filepath='src/mongo/bson/util/builder.h' line='269' column='1' visibility='default' binding='global' size-in-bits='64'>
            <parameter type-id='type-id-374' is-artificial='yes'/>
            <parameter type-id='type-id-283'/>
            <parameter type-id='type-id-1'/>
            <return type-id='type-id-193'/>
          </function-decl>
        </member-function>
        <member-function access='public'>
          <function-decl name='len' mangled-name='_ZNK5mongo11_BufBuilderINS_21SharedBufferAllocatorEE3lenEv' filepath='src/mongo/bson/util/builder.h' line='275' column='1' visibility='default' binding='global' size-in-bits='64'>
            <parameter type-id='type-id-353' is-artificial='yes'/>
            <return type-id='type-id-16'/>
          </function-decl>
        </member-function>
        <member-function access='public'>
          <function-decl name='release' mangled-name='_ZN5mongo11_BufBuilderINS_21SharedBufferAllocatorEE7releaseEv' filepath='src/mongo/bson/util/builder.h' line='201' column='1' visibility='default' binding='global' size-in-bits='64'>
            <parameter type-id='type-id-374' is-artificial='yes'/>
            <return type-id='type-id-297'/>
          </function-decl>
        </member-function>
        <member-function access='private'>
          <function-decl name='grow_reallocate' mangled-name='_ZN5mongo11_BufBuilderINS_21SharedBufferAllocatorEE15grow_reallocateEi' filepath='src/mongo/bson/util/builder.h' line='342' column='1' visibility='default' binding='global' size-in-bits='64'>
            <parameter type-id='type-id-374' is-artificial='yes'/>
            <parameter type-id='type-id-16'/>
            <return type-id='type-id-193'/>
          </function-decl>
        </member-function>
        <member-function access='public'>
          <function-decl name='buf' mangled-name='_ZN5mongo11_BufBuilderINS_21SharedBufferAllocatorEE3bufEv' filepath='src/mongo/bson/util/builder.h' line='193' column='1' visibility='default' binding='global' size-in-bits='64'>
            <parameter type-id='type-id-374' is-artificial='yes'/>
            <return type-id='type-id-55'/>
          </function-decl>
        </member-function>
        <member-function access='public'>
          <function-decl name='claimReservedBytes' mangled-name='_ZN5mongo11_BufBuilderINS_21SharedBufferAllocatorEE18claimReservedBytesEi' filepath='src/mongo/bson/util/builder.h' line='315' column='1' visibility='default' binding='global' size-in-bits='64'>
            <parameter type-id='type-id-374' is-artificial='yes'/>
            <parameter type-id='type-id-16'/>
            <return type-id='type-id-193'/>
          </function-decl>
        </member-function>
      </class-decl>
      <class-decl name='__anonymous_struct__' is-anonymous='yes' visibility='default' is-declaration-only='yes' id='type-id-281'>
        <member-function access='public'>
          <function-decl name='add' mangled-name='_ZN5mongo23FTDCCollectorCollection3addESt10unique_ptrINS_22FTDCCollectorInterfaceESt14default_deleteIS2_EE' filepath='src/mongo/db/ftdc/collector.h' line='90' column='1' visibility='default' binding='global' size-in-bits='64' elf-symbol-id='_ZN5mongo23FTDCCollectorCollection3addESt10unique_ptrINS_22FTDCCollectorInterfaceESt14default_deleteIS2_EE'>
            <parameter type-id='type-id-282' is-artificial='yes'/>
            <parameter type-id='type-id-274'/>
            <return type-id='type-id-193'/>
          </function-decl>
        </member-function>
        <member-function access='public'>
          <function-decl name='collect' mangled-name='_ZN5mongo23FTDCCollectorCollection7collectEPNS_6ClientE' filepath='src/mongo/db/ftdc/collector.h' line='108' column='1' visibility='default' binding='global' size-in-bits='64' elf-symbol-id='_ZN5mongo23FTDCCollectorCollection7collectEPNS_6ClientE'>
            <parameter type-id='type-id-282' is-artificial='yes'/>
            <parameter type-id='type-id-296'/>
            <return type-id='type-id-287'/>
          </function-decl>
        </member-function>
      </class-decl>
      <class-decl name='__anonymous_struct__1' is-anonymous='yes' visibility='default' is-declaration-only='yes' id='type-id-295'>
        <member-function access='public'>
          <function-decl name='getServiceContext' mangled-name='_ZNK5mongo6Client17getServiceContextEv' filepath='src/mongo/db/client.h' line='117' column='1' visibility='default' binding='global' size-in-bits='64'>
            <parameter type-id='type-id-339' is-artificial='yes'/>
            <return type-id='type-id-266'/>
          </function-decl>
        </member-function>
      </class-decl>
      <class-decl name='__anonymous_struct__10' is-anonymous='yes' visibility='default' is-declaration-only='yes' id='type-id-424'/>
      <class-decl name='__anonymous_struct__11' is-anonymous='yes' visibility='default' is-declaration-only='yes' id='type-id-307'>
        <member-function access='public'>
          <function-decl name='BSONObjBuilder' mangled-name='_ZN5mongo14BSONObjBuilderC2Ei' filepath='src/mongo/bson/bsonobjbuilder.h' line='67' column='1' visibility='default' binding='global' size-in-bits='64' elf-symbol-id='_ZN5mongo14BSONObjBuilderC2Ei'>
            <parameter type-id='type-id-309' is-artificial='yes'/>
            <parameter type-id='type-id-16'/>
            <return type-id='type-id-193'/>
          </function-decl>
        </member-function>
        <member-function access='public'>
          <function-decl name='subobjStart' mangled-name='_ZN5mongo14BSONObjBuilder11subobjStartENS_10StringDataE' filepath='src/mongo/bson/bsonobjbuilder.h' line='233' column='1' visibility='default' binding='global' size-in-bits='64' elf-symbol-id='_ZN5mongo14BSONObjBuilder11subobjStartENS_10StringDataE'>
            <parameter type-id='type-id-309' is-artificial='yes'/>
            <parameter type-id='type-id-283'/>
            <return type-id='type-id-373'/>
          </function-decl>
        </member-function>
        <member-function access='public'>
          <function-decl name='BSONObjBuilder' mangled-name='_ZN5mongo14BSONObjBuilderC2ERNS_11_BufBuilderINS_21SharedBufferAllocatorEEE' filepath='src/mongo/bson/bsonobjbuilder.h' line='80' column='1' visibility='default' binding='global' size-in-bits='64' elf-symbol-id='_ZN5mongo14BSONObjBuilderC2ERNS_11_BufBuilderINS_21SharedBufferAllocatorEEE'>
            <parameter type-id='type-id-309' is-artificial='yes'/>
            <parameter type-id='type-id-373'/>
            <return type-id='type-id-193'/>
          </function-decl>
        </member-function>
        <member-function access='public' destructor='yes'>
          <function-decl name='~BSONObjBuilder' mangled-name='_ZN5mongo14BSONObjBuilderD2Ev' filepath='src/mongo/bson/bsonobjbuilder.h' line='165' column='1' visibility='default' binding='global' size-in-bits='64' elf-symbol-id='_ZN5mongo14BSONObjBuilderD2Ev'>
            <parameter type-id='type-id-309' is-artificial='yes'/>
            <return type-id='type-id-193'/>
          </function-decl>
        </member-function>
        <member-function access='public'>
          <function-decl name='owned' mangled-name='_ZNK5mongo14BSONObjBuilder5ownedEv' filepath='src/mongo/bson/bsonobjbuilder.h' line='758' column='1' visibility='default' binding='global' size-in-bits='64'>
            <parameter type-id='type-id-346' is-artificial='yes'/>
            <return type-id='type-id-1'/>
          </function-decl>
        </member-function>
        <member-function access='public'>
          <function-decl name='done' mangled-name='_ZN5mongo14BSONObjBuilder4doneEv' filepath='src/mongo/bson/bsonobjbuilder.h' line='677' column='1' visibility='default' binding='global' size-in-bits='64'>
            <parameter type-id='type-id-309' is-artificial='yes'/>
            <return type-id='type-id-289'/>
          </function-decl>
        </member-function>
        <member-function access='public'>
          <function-decl name='obj' mangled-name='_ZN5mongo14BSONObjBuilder3objEv' filepath='src/mongo/bson/bsonobjbuilder.h' line='665' column='1' visibility='default' binding='global' size-in-bits='64' elf-symbol-id='_ZN5mongo14BSONObjBuilder3objEv'>
            <parameter type-id='type-id-309' is-artificial='yes'/>
            <return type-id='type-id-289'/>
          </function-decl>
        </member-function>
        <member-function access='private'>
          <function-decl name='_done' mangled-name='_ZN5mongo14BSONObjBuilder5_doneEv' filepath='src/mongo/bson/bsonobjbuilder.h' line='775' column='1' visibility='default' binding='global' size-in-bits='64' elf-symbol-id='_ZN5mongo14BSONObjBuilder5_doneEv'>
            <parameter type-id='type-id-309' is-artificial='yes'/>
            <return type-id='type-id-55'/>
          </function-decl>
        </member-function>
      </class-decl>
      <class-decl name='__anonymous_struct__14' is-anonymous='yes' visibility='default' is-declaration-only='yes' id='type-id-310'>
        <member-function access='public'>
          <function-decl name='write&lt;mongo::LittleEndian&lt;char&gt; &gt;' mangled-name='_ZN5mongo8DataView5writeINS_12LittleEndianIcEEEERS0_RKT_m' filepath='src/mongo/base/data_view.h' line='82' column='1' visibility='default' binding='global' size-in-bits='64'>
            <parameter type-id='type-id-311' is-artificial='yes'/>
            <parameter type-id='type-id-366'/>
            <parameter type-id='type-id-39'/>
            <return type-id='type-id-115'/>
          </function-decl>
        </member-function>
        <member-function access='public'>
          <function-decl name='write&lt;mongo::LittleEndian&lt;int&gt; &gt;' mangled-name='_ZN5mongo8DataView5writeINS_12LittleEndianIiEEEERS0_RKT_m' filepath='src/mongo/base/data_view.h' line='82' column='1' visibility='default' binding='global' size-in-bits='64'>
            <parameter type-id='type-id-311' is-artificial='yes'/>
            <parameter type-id='type-id-366'/>
            <parameter type-id='type-id-39'/>
            <return type-id='type-id-115'/>
          </function-decl>
        </member-function>
      </class-decl>
      <class-decl name='__anonymous_struct__15' is-anonymous='yes' visibility='default' is-declaration-only='yes' id='type-id-332'>
        <member-function access='public'>
          <function-decl name='read&lt;mongo::LittleEndian&lt;int&gt; &gt;' mangled-name='_ZNK5mongo13ConstDataView4readINS_12LittleEndianIiEEEERKS0_PT_m' filepath='src/mongo/base/data_view.h' line='50' column='1' visibility='default' binding='global' size-in-bits='64'>
            <parameter type-id='type-id-347' is-artificial='yes'/>
            <parameter type-id='type-id-394'/>
            <parameter type-id='type-id-39'/>
            <return type-id='type-id-164'/>
          </function-decl>
        </member-function>
        <member-function access='public'>
          <function-decl name='read&lt;mongo::LittleEndian&lt;int&gt; &gt;' mangled-name='_ZNK5mongo13ConstDataView4readINS_12LittleEndianIiEEEET_m' filepath='src/mongo/base/data_view.h' line='57' column='1' visibility='default' binding='global' size-in-bits='64'>
            <parameter type-id='type-id-347' is-artificial='yes'/>
            <parameter type-id='type-id-39'/>
            <return type-id='type-id-362'/>
          </function-decl>
        </member-function>
      </class-decl>
      <class-decl name='__anonymous_struct__16' is-anonymous='yes' visibility='default' is-declaration-only='yes' id='type-id-315'>
        <member-function access='public'>
          <function-decl name='got' mangled-name='_ZN5mongo15BSONSizeTracker3gotEi' filepath='src/mongo/bson/bsonmisc.h' line='258' column='1' visibility='default' binding='global' size-in-bits='64'>
            <parameter type-id='type-id-316' is-artificial='yes'/>
            <parameter type-id='type-id-16'/>
            <return type-id='type-id-193'/>
          </function-decl>
        </member-function>
      </class-decl>
      <class-decl name='__anonymous_struct__2' is-anonymous='yes' visibility='default' is-declaration-only='yes' id='type-id-283'>
        <member-type access='private'>
          <class-decl name='__anonymous_struct__' is-struct='yes' is-anonymous='yes' visibility='default' is-declaration-only='yes' id='type-id-425'/>
        </member-type>
        <member-function access='public'>
          <function-decl name='StringData' mangled-name='_ZN5mongo10StringDataC2EPKc' filepath='src/mongo/base/string_data.h' line='78' column='1' visibility='default' binding='global' size-in-bits='64' elf-symbol-id='_ZN5mongo10StringDataC2EPKc'>
            <parameter type-id='type-id-284' is-artificial='yes'/>
            <parameter type-id='type-id-60'/>
            <return type-id='type-id-193'/>
          </function-decl>
        </member-function>
        <member-function access='public'>
          <function-decl name='StringData' mangled-name='_ZN5mongo10StringDataC2ERKNSt7__cxx1112basic_stringIcSt11char_traitsIcESaIcEEE' filepath='src/mongo/base/string_data.h' line='85' column='1' visibility='default' binding='global' size-in-bits='64'>
            <parameter type-id='type-id-284' is-artificial='yes'/>
            <parameter type-id='type-id-256'/>
            <return type-id='type-id-193'/>
          </function-decl>
        </member-function>
        <member-function access='private'>
          <function-decl name='StringData' mangled-name='_ZN5mongo10StringDataC2EPKcmNS0_14TrustedInitTagE' filepath='src/mongo/base/string_data.h' line='61' column='1' visibility='default' binding='global' size-in-bits='64'>
            <parameter type-id='type-id-284' is-artificial='yes'/>
            <parameter type-id='type-id-60'/>
            <parameter type-id='type-id-39'/>
            <parameter type-id='type-id-425'/>
            <return type-id='type-id-193'/>
          </function-decl>
        </member-function>
        <member-function access='public'>
          <function-decl name='StringData' mangled-name='_ZN5mongo10StringDataC2EPKcm' filepath='src/mongo/base/string_data.h' line='94' column='1' visibility='default' binding='global' size-in-bits='64'>
            <parameter type-id='type-id-284' is-artificial='yes'/>
            <parameter type-id='type-id-60'/>
            <parameter type-id='type-id-39'/>
            <return type-id='type-id-193'/>
          </function-decl>
        </member-function>
        <member-function access='public'>
          <function-decl name='copyTo' mangled-name='_ZNK5mongo10StringData6copyToEPcb' filepath='src/mongo/base/string_data.h' line='134' column='1' visibility='default' binding='global' size-in-bits='64'>
            <parameter type-id='type-id-345' is-artificial='yes'/>
            <parameter type-id='type-id-55'/>
            <parameter type-id='type-id-1'/>
            <return type-id='type-id-193'/>
          </function-decl>
        </member-function>
      </class-decl>
      <class-decl name='__anonymous_struct__3' is-anonymous='yes' visibility='default' is-declaration-only='yes' id='type-id-426'/>
      <class-decl name='__anonymous_struct__4' is-anonymous='yes' visibility='default' is-declaration-only='yes' id='type-id-289'>
        <member-function access='public'>
          <function-decl name='BSONObj' mangled-name='_ZN5mongo7BSONObjC2EOS0_' filepath='src/mongo/bson/bsonobj.h' line='129' column='1' visibility='default' binding='global' size-in-bits='64'>
            <parameter type-id='type-id-290' is-artificial='yes'/>
            <parameter type-id='type-id-116'/>
            <return type-id='type-id-193'/>
          </function-decl>
        </member-function>
        <member-function access='public'>
          <function-decl name='BSONObj' mangled-name='_ZN5mongo7BSONObjC2EPKc' filepath='src/mongo/bson/bsonobj.h' line='120' column='1' visibility='default' binding='global' size-in-bits='64'>
            <parameter type-id='type-id-290' is-artificial='yes'/>
            <parameter type-id='type-id-60'/>
            <return type-id='type-id-193'/>
          </function-decl>
        </member-function>
        <member-function access='private'>
          <function-decl name='init' mangled-name='_ZN5mongo7BSONObj4initEPKc' filepath='src/mongo/bson/bsonobj.h' line='555' column='1' visibility='default' binding='global' size-in-bits='64'>
            <parameter type-id='type-id-290' is-artificial='yes'/>
            <parameter type-id='type-id-60'/>
            <return type-id='type-id-193'/>
          </function-decl>
        </member-function>
        <member-function access='public'>
          <function-decl name='objsize' mangled-name='_ZNK5mongo7BSONObj7objsizeEv' filepath='src/mongo/bson/bsonobj.h' line='361' column='1' visibility='default' binding='global' size-in-bits='64'>
            <parameter type-id='type-id-348' is-artificial='yes'/>
            <return type-id='type-id-16'/>
          </function-decl>
        </member-function>
        <member-function access='public'>
          <function-decl name='isValid' mangled-name='_ZNK5mongo7BSONObj7isValidEv' filepath='src/mongo/bson/bsonobj.h' line='366' column='1' visibility='default' binding='global' size-in-bits='64'>
            <parameter type-id='type-id-348' is-artificial='yes'/>
            <return type-id='type-id-1'/>
          </function-decl>
        </member-function>
        <member-function access='public'>
          <function-decl name='shareOwnershipWith' mangled-name='_ZNR5mongo7BSONObj18shareOwnershipWithENS_17ConstSharedBufferE' filepath='src/mongo/bson/bsonobj.h' line='195' column='1' visibility='default' binding='global' size-in-bits='64'>
            <parameter type-id='type-id-290' is-artificial='yes'/>
            <parameter type-id='type-id-312'/>
            <return type-id='type-id-115'/>
          </function-decl>
        </member-function>
      </class-decl>
      <class-decl name='__anonymous_struct__5' is-anonymous='yes' visibility='default' is-declaration-only='yes' id='type-id-297'>
        <member-type access='private'>
          <class-decl name='__anonymous_struct__' is-anonymous='yes' visibility='default' is-declaration-only='yes' id='type-id-303'>
            <member-function access='public'>
              <function-decl name='Holder' mangled-name='_ZN5mongo12SharedBuffer6HolderC2Ejm' filepath='src/mongo/util/shared_buffer.h' line='102' column='1' visibility='default' binding='global' size-in-bits='64'>
                <parameter type-id='type-id-304' is-artificial='yes'/>
                <parameter type-id='type-id-239'/>
                <parameter type-id='type-id-39'/>
                <return type-id='type-id-193'/>
              </function-decl>
            </member-function>
            <member-function access='public'>
              <function-decl name='data' mangled-name='_ZN5mongo12SharedBuffer6Holder4dataEv' filepath='src/mongo/util/shared_buffer.h' line='121' column='1' visibility='default' binding='global' size-in-bits='64'>
                <parameter type-id='type-id-304' is-artificial='yes'/>
                <return type-id='type-id-55'/>
              </function-decl>
            </member-function>
            <member-function access='public'>
              <function-decl name='isShared' mangled-name='_ZNK5mongo12SharedBuffer6Holder8isSharedEv' filepath='src/mongo/util/shared_buffer.h' line='129' column='1' visibility='default' binding='global' size-in-bits='64'>
                <parameter type-id='type-id-350' is-artificial='yes'/>
                <return type-id='type-id-1'/>
              </function-decl>
            </member-function>
          </class-decl>
        </member-type>
        <member-function access='public'>
          <function-decl name='SharedBuffer' mangled-name='_ZN5mongo12SharedBufferC2Ev' filepath='src/mongo/util/shared_buffer.h' line='44' column='1' visibility='default' binding='global' size-in-bits='64'>
            <parameter type-id='type-id-298' is-artificial='yes'/>
            <return type-id='type-id-193'/>
          </function-decl>
        </member-function>
        <member-function access='public' static='yes'>
          <function-decl name='allocate' mangled-name='_ZN5mongo12SharedBuffer8allocateEm' filepath='src/mongo/util/shared_buffer.h' line='50' column='1' visibility='default' binding='global' size-in-bits='64'>
            <parameter type-id='type-id-39'/>
            <return type-id='type-id-297'/>
          </function-decl>
        </member-function>
        <member-function access='private' static='yes'>
          <function-decl name='takeOwnership' mangled-name='_ZN5mongo12SharedBuffer13takeOwnershipEPvm' filepath='src/mongo/util/shared_buffer.h' line='149' column='1' visibility='default' binding='global' size-in-bits='64'>
            <parameter type-id='type-id-187'/>
            <parameter type-id='type-id-39'/>
            <return type-id='type-id-297'/>
          </function-decl>
        </member-function>
        <member-function access='public'>
          <function-decl name='get' mangled-name='_ZNK5mongo12SharedBuffer3getEv' filepath='src/mongo/util/shared_buffer.h' line='75' column='1' visibility='default' binding='global' size-in-bits='64'>
            <parameter type-id='type-id-343' is-artificial='yes'/>
            <return type-id='type-id-55'/>
          </function-decl>
        </member-function>
        <member-function access='public'>
          <function-decl name='realloc' mangled-name='_ZN5mongo12SharedBuffer7reallocEm' filepath='src/mongo/util/shared_buffer.h' line='62' column='1' visibility='default' binding='global' size-in-bits='64'>
            <parameter type-id='type-id-298' is-artificial='yes'/>
            <parameter type-id='type-id-39'/>
            <return type-id='type-id-193'/>
          </function-decl>
        </member-function>
      </class-decl>
      <class-decl name='__anonymous_struct__6' is-anonymous='yes' visibility='default' is-declaration-only='yes' id='type-id-312'>
        <member-function access='public'>
          <function-decl name='ConstSharedBuffer' mangled-name='_ZN5mongo17ConstSharedBufferC2Ev' filepath='src/mongo/util/shared_buffer.h' line='171' column='1' visibility='default' binding='global' size-in-bits='64'>
            <parameter type-id='type-id-313' is-artificial='yes'/>
            <return type-id='type-id-193'/>
          </function-decl>
        </member-function>
      </class-decl>
      <class-decl name='__anonymous_struct__7' is-anonymous='yes' visibility='default' is-declaration-only='yes' id='type-id-299'>
        <member-function access='public'>
          <function-decl name='SharedBufferAllocator' mangled-name='_ZN5mongo21SharedBufferAllocatorC2Ev' filepath='src/mongo/bson/util/builder.h' line='82' column='1' visibility='default' binding='global' size-in-bits='64'>
            <parameter type-id='type-id-300' is-artificial='yes'/>
            <return type-id='type-id-193'/>
          </function-decl>
        </member-function>
        <member-function access='public'>
          <function-decl name='malloc' mangled-name='_ZN5mongo21SharedBufferAllocator6mallocEm' filepath='src/mongo/bson/util/builder.h' line='92' column='1' visibility='default' binding='global' size-in-bits='64'>
            <parameter type-id='type-id-300' is-artificial='yes'/>
            <parameter type-id='type-id-39'/>
            <return type-id='type-id-193'/>
          </function-decl>
        </member-function>
        <member-function access='public'>
          <function-decl name='get' mangled-name='_ZNK5mongo21SharedBufferAllocator3getEv' filepath='src/mongo/bson/util/builder.h' line='105' column='1' visibility='default' binding='global' size-in-bits='64'>
            <parameter type-id='type-id-344' is-artificial='yes'/>
            <return type-id='type-id-55'/>
          </function-decl>
        </member-function>
        <member-function access='public'>
          <function-decl name='release' mangled-name='_ZN5mongo21SharedBufferAllocator7releaseEv' filepath='src/mongo/bson/util/builder.h' line='101' column='1' visibility='default' binding='global' size-in-bits='64'>
            <parameter type-id='type-id-300' is-artificial='yes'/>
            <return type-id='type-id-297'/>
          </function-decl>
        </member-function>
        <member-function access='public'>
          <function-decl name='realloc' mangled-name='_ZN5mongo21SharedBufferAllocator7reallocEm' filepath='src/mongo/bson/util/builder.h' line='95' column='1' visibility='default' binding='global' size-in-bits='64'>
            <parameter type-id='type-id-300' is-artificial='yes'/>
            <parameter type-id='type-id-39'/>
            <return type-id='type-id-193'/>
          </function-decl>
        </member-function>
      </class-decl>
      <class-decl name='__anonymous_struct__9' is-anonymous='yes' visibility='default' is-declaration-only='yes' id='type-id-301'>
        <member-function access='public'>
          <function-decl name='AtomicWord' mangled-name='_ZN5mongo10AtomicWordIjvEC2Ej' filepath='src/mongo/platform/atomic_word.h' line='59' column='1' visibility='default' binding='global' size-in-bits='64'>
            <parameter type-id='type-id-302' is-artificial='yes'/>
            <parameter type-id='type-id-239'/>
            <return type-id='type-id-193'/>
          </function-decl>
        </member-function>
        <member-function access='public'>
          <function-decl name='fetchAndSubtract' mangled-name='_ZN5mongo10AtomicWordIjvE16fetchAndSubtractEj' filepath='src/mongo/platform/atomic_word.h' line='131' column='1' visibility='default' binding='global' size-in-bits='64'>
            <parameter type-id='type-id-302' is-artificial='yes'/>
            <parameter type-id='type-id-239'/>
            <return type-id='type-id-239'/>
          </function-decl>
        </member-function>
        <member-function access='public'>
          <function-decl name='subtractAndFetch' mangled-name='_ZN5mongo10AtomicWordIjvE16subtractAndFetchEj' filepath='src/mongo/platform/atomic_word.h' line='153' column='1' visibility='default' binding='global' size-in-bits='64'>
            <parameter type-id='type-id-302' is-artificial='yes'/>
            <parameter type-id='type-id-239'/>
            <return type-id='type-id-239'/>
          </function-decl>
        </member-function>
        <member-function access='public'>
          <function-decl name='fetchAndAdd' mangled-name='_ZN5mongo10AtomicWordIjvE11fetchAndAddEj' filepath='src/mongo/platform/atomic_word.h' line='120' column='1' visibility='default' binding='global' size-in-bits='64'>
            <parameter type-id='type-id-302' is-artificial='yes'/>
            <parameter type-id='type-id-239'/>
            <return type-id='type-id-239'/>
          </function-decl>
        </member-function>
        <member-function access='public'>
          <function-decl name='load' mangled-name='_ZNK5mongo10AtomicWordIjvE4loadEv' filepath='src/mongo/platform/atomic_word.h' line='66' column='1' visibility='default' binding='global' size-in-bits='64'>
            <parameter type-id='type-id-349' is-artificial='yes'/>
            <return type-id='type-id-239'/>
          </function-decl>
        </member-function>
      </class-decl>
      <class-decl name='__anonymous_struct__12' is-struct='yes' is-anonymous='yes' visibility='default' is-declaration-only='yes' id='type-id-427'>
        <member-type access='public'>
          <class-decl name='__anonymous_struct__' is-struct='yes' is-anonymous='yes' visibility='default' is-declaration-only='yes' id='type-id-428'>
            <member-function access='public' static='yes'>
              <function-decl name='unsafeStore' mangled-name='_ZN5mongo8DataType7HandlerIcvE11unsafeStoreERKcPcPm' filepath='src/mongo/base/data_type.h' line='87' column='1' visibility='default' binding='global' size-in-bits='64'>
                <parameter type-id='type-id-250'/>
                <parameter type-id='type-id-55'/>
                <parameter type-id='type-id-267'/>
                <return type-id='type-id-193'/>
              </function-decl>
            </member-function>
          </class-decl>
        </member-type>
        <member-type access='public'>
          <class-decl name='__anonymous_struct__1' is-struct='yes' is-anonymous='yes' visibility='default' is-declaration-only='yes' id='type-id-429'>
            <member-function access='public' static='yes'>
              <function-decl name='unsafeStore' mangled-name='_ZN5mongo8DataType7HandlerINS_12LittleEndianIcEEvE11unsafeStoreERKS3_PcPm' filepath='src/mongo/base/data_type_endian.h' line='112' column='1' visibility='default' binding='global' size-in-bits='64'>
                <parameter type-id='type-id-366'/>
                <parameter type-id='type-id-55'/>
                <parameter type-id='type-id-267'/>
                <return type-id='type-id-193'/>
              </function-decl>
            </member-function>
          </class-decl>
        </member-type>
        <member-type access='public'>
          <class-decl name='__anonymous_struct__2' is-struct='yes' is-anonymous='yes' visibility='default' is-declaration-only='yes' id='type-id-430'>
            <member-function access='public' static='yes'>
              <function-decl name='unsafeLoad' mangled-name='_ZN5mongo8DataType7HandlerIivE10unsafeLoadEPiPKcPm' filepath='src/mongo/base/data_type.h' line='59' column='1' visibility='default' binding='global' size-in-bits='64'>
                <parameter type-id='type-id-91'/>
                <parameter type-id='type-id-60'/>
                <parameter type-id='type-id-267'/>
                <return type-id='type-id-193'/>
              </function-decl>
            </member-function>
            <member-function access='public' static='yes'>
              <function-decl name='unsafeStore' mangled-name='_ZN5mongo8DataType7HandlerIivE11unsafeStoreERKiPcPm' filepath='src/mongo/base/data_type.h' line='87' column='1' visibility='default' binding='global' size-in-bits='64'>
                <parameter type-id='type-id-70'/>
                <parameter type-id='type-id-55'/>
                <parameter type-id='type-id-267'/>
                <return type-id='type-id-193'/>
              </function-decl>
            </member-function>
          </class-decl>
        </member-type>
        <member-type access='public'>
          <class-decl name='__anonymous_struct__3' is-struct='yes' is-anonymous='yes' visibility='default' is-declaration-only='yes' id='type-id-431'>
            <member-function access='public' static='yes'>
              <function-decl name='unsafeLoad' mangled-name='_ZN5mongo8DataType7HandlerINS_12LittleEndianIiEEvE10unsafeLoadEPS3_PKcPm' filepath='src/mongo/base/data_type_endian.h' line='86' column='1' visibility='default' binding='global' size-in-bits='64'>
                <parameter type-id='type-id-394'/>
                <parameter type-id='type-id-60'/>
                <parameter type-id='type-id-267'/>
                <return type-id='type-id-193'/>
              </function-decl>
            </member-function>
            <member-function access='public' static='yes'>
              <function-decl name='unsafeStore' mangled-name='_ZN5mongo8DataType7HandlerINS_12LittleEndianIiEEvE11unsafeStoreERKS3_PcPm' filepath='src/mongo/base/data_type_endian.h' line='112' column='1' visibility='default' binding='global' size-in-bits='64'>
                <parameter type-id='type-id-366'/>
                <parameter type-id='type-id-55'/>
                <parameter type-id='type-id-267'/>
                <return type-id='type-id-193'/>
              </function-decl>
            </member-function>
          </class-decl>
        </member-type>
        <member-function access='public' static='yes'>
          <function-decl name='unsafeStore&lt;char&gt;' mangled-name='_ZN5mongo8DataType11unsafeStoreIcEEvRKT_PcPm' filepath='src/mongo/base/data_type.h' line='155' column='1' visibility='default' binding='global' size-in-bits='64'>
            <parameter type-id='type-id-250'/>
            <parameter type-id='type-id-55'/>
            <parameter type-id='type-id-267'/>
            <return type-id='type-id-193'/>
          </function-decl>
        </member-function>
        <member-function access='public' static='yes'>
          <function-decl name='unsafeStore&lt;mongo::LittleEndian&lt;char&gt; &gt;' mangled-name='_ZN5mongo8DataType11unsafeStoreINS_12LittleEndianIcEEEEvRKT_PcPm' filepath='src/mongo/base/data_type.h' line='155' column='1' visibility='default' binding='global' size-in-bits='64'>
            <parameter type-id='type-id-366'/>
            <parameter type-id='type-id-55'/>
            <parameter type-id='type-id-267'/>
            <return type-id='type-id-193'/>
          </function-decl>
        </member-function>
        <member-function access='public' static='yes'>
          <function-decl name='unsafeLoad&lt;int&gt;' mangled-name='_ZN5mongo8DataType10unsafeLoadIiEEvPT_PKcPm' filepath='src/mongo/base/data_type.h' line='150' column='1' visibility='default' binding='global' size-in-bits='64'>
            <parameter type-id='type-id-91'/>
            <parameter type-id='type-id-60'/>
            <parameter type-id='type-id-267'/>
            <return type-id='type-id-193'/>
          </function-decl>
        </member-function>
        <member-function access='public' static='yes'>
          <function-decl name='unsafeLoad&lt;mongo::LittleEndian&lt;int&gt; &gt;' mangled-name='_ZN5mongo8DataType10unsafeLoadINS_12LittleEndianIiEEEEvPT_PKcPm' filepath='src/mongo/base/data_type.h' line='150' column='1' visibility='default' binding='global' size-in-bits='64'>
            <parameter type-id='type-id-394'/>
            <parameter type-id='type-id-60'/>
            <parameter type-id='type-id-267'/>
            <return type-id='type-id-193'/>
          </function-decl>
        </member-function>
        <member-function access='public' static='yes'>
          <function-decl name='unsafeStore&lt;int&gt;' mangled-name='_ZN5mongo8DataType11unsafeStoreIiEEvRKT_PcPm' filepath='src/mongo/base/data_type.h' line='155' column='1' visibility='default' binding='global' size-in-bits='64'>
            <parameter type-id='type-id-70'/>
            <parameter type-id='type-id-55'/>
            <parameter type-id='type-id-267'/>
            <return type-id='type-id-193'/>
          </function-decl>
        </member-function>
        <member-function access='public' static='yes'>
          <function-decl name='unsafeStore&lt;mongo::LittleEndian&lt;int&gt; &gt;' mangled-name='_ZN5mongo8DataType11unsafeStoreINS_12LittleEndianIiEEEEvRKT_PcPm' filepath='src/mongo/base/data_type.h' line='155' column='1' visibility='default' binding='global' size-in-bits='64'>
            <parameter type-id='type-id-366'/>
            <parameter type-id='type-id-55'/>
            <parameter type-id='type-id-267'/>
            <return type-id='type-id-193'/>
          </function-decl>
        </member-function>
      </class-decl>
      <class-decl name='__anonymous_struct__13' is-struct='yes' is-anonymous='yes' visibility='default' is-declaration-only='yes' id='type-id-358'/>
      <class-decl name='__anonymous_struct__14' is-struct='yes' is-anonymous='yes' visibility='default' is-declaration-only='yes' id='type-id-362'/>
      <typedef-decl name='BufBuilder' type-id='type-id-351' filepath='src/mongo/bson/util/builder.h' line='365' column='1' id='type-id-372'/>
    </namespace-decl>
    <namespace-decl name='boost'>
      <class-decl name='__anonymous_struct__' is-anonymous='yes' visibility='default' is-declaration-only='yes' id='type-id-293'>
        <member-function access='public'>
          <function-decl name='intrusive_ptr' mangled-name='_ZN5boost13intrusive_ptrIN5mongo12SharedBuffer6HolderEEC2EOS4_' filepath='src/third_party/boost-1.60.0/boost/smart_ptr/intrusive_ptr.hpp' line='114' column='1' visibility='default' binding='global' size-in-bits='64'>
            <parameter type-id='type-id-294' is-artificial='yes'/>
            <parameter type-id='type-id-116'/>
            <return type-id='type-id-193'/>
          </function-decl>
        </member-function>
        <member-function access='public'>
          <function-decl name='intrusive_ptr' mangled-name='_ZN5boost13intrusive_ptrIN5mongo12SharedBuffer6HolderEEC2Ev' filepath='src/third_party/boost-1.60.0/boost/smart_ptr/intrusive_ptr.hpp' line='62' column='1' visibility='default' binding='global' size-in-bits='64'>
            <parameter type-id='type-id-294' is-artificial='yes'/>
            <return type-id='type-id-193'/>
          </function-decl>
        </member-function>
        <member-function access='public'>
          <function-decl name='swap' mangled-name='_ZN5boost13intrusive_ptrIN5mongo12SharedBuffer6HolderEE4swapERS4_' filepath='src/third_party/boost-1.60.0/boost/smart_ptr/intrusive_ptr.hpp' line='181' column='1' visibility='default' binding='global' size-in-bits='64'>
            <parameter type-id='type-id-294' is-artificial='yes'/>
            <parameter type-id='type-id-115'/>
            <return type-id='type-id-193'/>
          </function-decl>
        </member-function>
        <member-function access='public'>
          <function-decl name='operator=' mangled-name='_ZN5boost13intrusive_ptrIN5mongo12SharedBuffer6HolderEEaSEOS4_' filepath='src/third_party/boost-1.60.0/boost/smart_ptr/intrusive_ptr.hpp' line='119' column='1' visibility='default' binding='global' size-in-bits='64'>
            <parameter type-id='type-id-294' is-artificial='yes'/>
            <parameter type-id='type-id-116'/>
            <return type-id='type-id-115'/>
          </function-decl>
        </member-function>
        <member-function access='public' destructor='yes'>
          <function-decl name='~intrusive_ptr' mangled-name='_ZN5boost13intrusive_ptrIN5mongo12SharedBuffer6HolderEED2Ev' filepath='src/third_party/boost-1.60.0/boost/smart_ptr/intrusive_ptr.hpp' line='95' column='1' visibility='default' binding='global' size-in-bits='64'>
            <parameter type-id='type-id-294' is-artificial='yes'/>
            <return type-id='type-id-193'/>
          </function-decl>
        </member-function>
        <member-function access='public'>
          <function-decl name='operator bool' mangled-name='_ZNK5boost13intrusive_ptrIN5mongo12SharedBuffer6HolderEEcvbEv' filepath='src/third_party/boost-1.60.0/boost/smart_ptr/detail/operator_bool.hpp' line='12' column='1' visibility='default' binding='global' size-in-bits='64'>
            <parameter type-id='type-id-342' is-artificial='yes'/>
            <return type-id='type-id-1'/>
          </function-decl>
        </member-function>
        <member-function access='public'>
          <function-decl name='intrusive_ptr' mangled-name='_ZN5boost13intrusive_ptrIN5mongo12SharedBuffer6HolderEEC2ERKS4_' filepath='src/third_party/boost-1.60.0/boost/smart_ptr/intrusive_ptr.hpp' line='90' column='1' visibility='default' binding='global' size-in-bits='64'>
            <parameter type-id='type-id-294' is-artificial='yes'/>
            <parameter type-id='type-id-164'/>
            <return type-id='type-id-193'/>
          </function-decl>
        </member-function>
        <member-function access='public'>
          <function-decl name='operator=' mangled-name='_ZN5boost13intrusive_ptrIN5mongo12SharedBuffer6HolderEEaSERKS4_' filepath='src/third_party/boost-1.60.0/boost/smart_ptr/intrusive_ptr.hpp' line='127' column='1' visibility='default' binding='global' size-in-bits='64'>
            <parameter type-id='type-id-294' is-artificial='yes'/>
            <parameter type-id='type-id-164'/>
            <return type-id='type-id-115'/>
          </function-decl>
        </member-function>
        <member-function access='public'>
          <function-decl name='operator!' mangled-name='_ZNK5boost13intrusive_ptrIN5mongo12SharedBuffer6HolderEEntEv' filepath='src/third_party/boost-1.60.0/boost/smart_ptr/detail/operator_bool.hpp' line='61' column='1' visibility='default' binding='global' size-in-bits='64'>
            <parameter type-id='type-id-342' is-artificial='yes'/>
            <return type-id='type-id-1'/>
          </function-decl>
        </member-function>
        <member-function access='public'>
          <function-decl name='get' mangled-name='_ZNK5boost13intrusive_ptrIN5mongo12SharedBuffer6HolderEE3getEv' filepath='src/third_party/boost-1.60.0/boost/smart_ptr/intrusive_ptr.hpp' line='154' column='1' visibility='default' binding='global' size-in-bits='64'>
            <parameter type-id='type-id-342' is-artificial='yes'/>
            <return type-id='type-id-314'/>
          </function-decl>
        </member-function>
      </class-decl>
    </namespace-decl>
  </abi-instr>
  <abi-instr address-size='64' path='src/mongo/db/ftdc/compressor.cpp' comp-dir-path='/home/andrew/Documents/10gen/dev/src/mongodb' language='LANG_C_plus_plus'>
    <typedef-decl name='uint32_t' type-id='type-id-45' filepath='/usr/include/stdint.h' line='51' column='1' id='type-id-432'/>
    <typedef-decl name='uint64_t' type-id='type-id-38' filepath='/usr/include/stdint.h' line='55' column='1' id='type-id-433'/>
    <reference-type-def kind='lvalue' type-id='type-id-434' size-in-bits='64' id='type-id-435'/>
    <reference-type-def kind='lvalue' type-id='type-id-1' size-in-bits='64' id='type-id-436'/>
    <qualified-type-def type-id='type-id-45' const='yes' id='type-id-437'/>
    <reference-type-def kind='lvalue' type-id='type-id-437' size-in-bits='64' id='type-id-438'/>
    <qualified-type-def type-id='type-id-38' const='yes' id='type-id-439'/>
    <pointer-type-def type-id='type-id-439' size-in-bits='64' id='type-id-440'/>
    <pointer-type-def type-id='type-id-38' size-in-bits='64' id='type-id-441'/>
    <reference-type-def kind='rvalue' type-id='type-id-238' size-in-bits='64' id='type-id-442'/>
    <pointer-type-def type-id='type-id-443' size-in-bits='64' id='type-id-444'/>
    <pointer-type-def type-id='type-id-445' size-in-bits='64' id='type-id-446'/>
    <pointer-type-def type-id='type-id-447' size-in-bits='64' id='type-id-448'/>
    <pointer-type-def type-id='type-id-449' size-in-bits='64' id='type-id-450'/>
    <pointer-type-def type-id='type-id-451' size-in-bits='64' id='type-id-452'/>
    <pointer-type-def type-id='type-id-453' size-in-bits='64' id='type-id-454'/>
    <pointer-type-def type-id='type-id-455' size-in-bits='64' id='type-id-456'/>
    <pointer-type-def type-id='type-id-457' size-in-bits='64' id='type-id-458'/>
    <pointer-type-def type-id='type-id-459' size-in-bits='64' id='type-id-460'/>
    <pointer-type-def type-id='type-id-461' size-in-bits='64' id='type-id-462'/>
    <pointer-type-def type-id='type-id-463' size-in-bits='64' id='type-id-464'/>
    <pointer-type-def type-id='type-id-465' size-in-bits='64' id='type-id-466'/>
    <pointer-type-def type-id='type-id-467' size-in-bits='64' id='type-id-468'/>
    <pointer-type-def type-id='type-id-469' size-in-bits='64' id='type-id-470'/>
    <pointer-type-def type-id='type-id-471' size-in-bits='64' id='type-id-472'/>
    <pointer-type-def type-id='type-id-473' size-in-bits='64' id='type-id-474'/>
    <pointer-type-def type-id='type-id-475' size-in-bits='64' id='type-id-476'/>
    <pointer-type-def type-id='type-id-477' size-in-bits='64' id='type-id-478'/>
    <pointer-type-def type-id='type-id-479' size-in-bits='64' id='type-id-480'/>
    <pointer-type-def type-id='type-id-481' size-in-bits='64' id='type-id-482'/>
    <pointer-type-def type-id='type-id-483' size-in-bits='64' id='type-id-484'/>
    <pointer-type-def type-id='type-id-485' size-in-bits='64' id='type-id-486'/>
    <pointer-type-def type-id='type-id-487' size-in-bits='64' id='type-id-488'/>
    <pointer-type-def type-id='type-id-489' size-in-bits='64' id='type-id-490'/>
    <pointer-type-def type-id='type-id-491' size-in-bits='64' id='type-id-492'/>
    <pointer-type-def type-id='type-id-493' size-in-bits='64' id='type-id-494'/>
    <pointer-type-def type-id='type-id-495' size-in-bits='64' id='type-id-496'/>
    <pointer-type-def type-id='type-id-497' size-in-bits='64' id='type-id-498'/>
    <pointer-type-def type-id='type-id-499' size-in-bits='64' id='type-id-500'/>
    <pointer-type-def type-id='type-id-501' size-in-bits='64' id='type-id-502'/>
    <pointer-type-def type-id='type-id-503' size-in-bits='64' id='type-id-504'/>
    <pointer-type-def type-id='type-id-505' size-in-bits='64' id='type-id-506'/>
    <pointer-type-def type-id='type-id-507' size-in-bits='64' id='type-id-508'/>
    <pointer-type-def type-id='type-id-509' size-in-bits='64' id='type-id-510'/>
    <pointer-type-def type-id='type-id-487' size-in-bits='64' id='type-id-511'/>
    <pointer-type-def type-id='type-id-512' size-in-bits='64' id='type-id-513'/>
    <pointer-type-def type-id='type-id-514' size-in-bits='64' id='type-id-515'/>
    <qualified-type-def type-id='type-id-481' const='yes' id='type-id-516'/>
    <qualified-type-def type-id='type-id-461' const='yes' id='type-id-517'/>
    <qualified-type-def type-id='type-id-445' const='yes' id='type-id-518'/>
    <qualified-type-def type-id='type-id-463' const='yes' id='type-id-519'/>
    <qualified-type-def type-id='type-id-443' const='yes' id='type-id-520'/>
    <qualified-type-def type-id='type-id-469' const='yes' id='type-id-521'/>
    <qualified-type-def type-id='type-id-475' const='yes' id='type-id-522'/>
    <qualified-type-def type-id='type-id-523' const='yes' id='type-id-524'/>
    <qualified-type-def type-id='type-id-477' const='yes' id='type-id-525'/>
    <qualified-type-def type-id='type-id-509' const='yes' id='type-id-526'/>
    <qualified-type-def type-id='type-id-493' const='yes' id='type-id-527'/>
    <qualified-type-def type-id='type-id-491' const='yes' id='type-id-528'/>
    <qualified-type-def type-id='type-id-485' const='yes' id='type-id-529'/>
    <qualified-type-def type-id='type-id-497' const='yes' id='type-id-530'/>
    <qualified-type-def type-id='type-id-495' const='yes' id='type-id-531'/>
    <qualified-type-def type-id='type-id-447' const='yes' id='type-id-532'/>
    <qualified-type-def type-id='type-id-487' const='yes' id='type-id-533'/>
    <pointer-type-def type-id='type-id-516' size-in-bits='64' id='type-id-534'/>
    <pointer-type-def type-id='type-id-517' size-in-bits='64' id='type-id-535'/>
    <pointer-type-def type-id='type-id-518' size-in-bits='64' id='type-id-536'/>
    <pointer-type-def type-id='type-id-519' size-in-bits='64' id='type-id-537'/>
    <pointer-type-def type-id='type-id-520' size-in-bits='64' id='type-id-538'/>
    <pointer-type-def type-id='type-id-521' size-in-bits='64' id='type-id-539'/>
    <pointer-type-def type-id='type-id-524' size-in-bits='64' id='type-id-540'/>
    <pointer-type-def type-id='type-id-522' size-in-bits='64' id='type-id-541'/>
    <pointer-type-def type-id='type-id-525' size-in-bits='64' id='type-id-542'/>
    <pointer-type-def type-id='type-id-526' size-in-bits='64' id='type-id-543'/>
    <pointer-type-def type-id='type-id-527' size-in-bits='64' id='type-id-544'/>
    <pointer-type-def type-id='type-id-528' size-in-bits='64' id='type-id-545'/>
    <pointer-type-def type-id='type-id-529' size-in-bits='64' id='type-id-546'/>
    <pointer-type-def type-id='type-id-530' size-in-bits='64' id='type-id-547'/>
    <pointer-type-def type-id='type-id-531' size-in-bits='64' id='type-id-548'/>
    <pointer-type-def type-id='type-id-532' size-in-bits='64' id='type-id-549'/>
    <pointer-type-def type-id='type-id-533' size-in-bits='64' id='type-id-550'/>
    <qualified-type-def type-id='type-id-551' const='yes' id='type-id-552'/>
    <qualified-type-def type-id='type-id-553' const='yes' id='type-id-554'/>
    <qualified-type-def type-id='type-id-555' const='yes' id='type-id-556'/>
    <qualified-type-def type-id='type-id-557' const='yes' id='type-id-558'/>
    <pointer-type-def type-id='type-id-552' size-in-bits='64' id='type-id-559'/>
    <pointer-type-def type-id='type-id-558' size-in-bits='64' id='type-id-560'/>
    <qualified-type-def type-id='type-id-559' restrict='yes' id='type-id-561'/>
    <reference-type-def kind='lvalue' type-id='type-id-562' size-in-bits='64' id='type-id-563'/>
    <class-decl name='__anonymous_struct__1' is-struct='yes' is-anonymous='yes' visibility='default' is-declaration-only='yes' id='type-id-551'/>
    <reference-type-def kind='lvalue' type-id='type-id-564' size-in-bits='64' id='type-id-565'/>
    <pointer-type-def type-id='type-id-551' size-in-bits='64' id='type-id-566'/>
    <pointer-type-def type-id='type-id-567' size-in-bits='64' id='type-id-568'/>
    <pointer-type-def type-id='type-id-557' size-in-bits='64' id='type-id-569'/>
    <pointer-type-def type-id='type-id-564' size-in-bits='64' id='type-id-570'/>
    <pointer-type-def type-id='type-id-571' size-in-bits='64' id='type-id-572'/>
    <pointer-type-def type-id='type-id-573' size-in-bits='64' id='type-id-574'/>
    <pointer-type-def type-id='type-id-575' size-in-bits='64' id='type-id-576'/>
    <pointer-type-def type-id='type-id-577' size-in-bits='64' id='type-id-578'/>
    <pointer-type-def type-id='type-id-579' size-in-bits='64' id='type-id-580'/>
    <pointer-type-def type-id='type-id-581' size-in-bits='64' id='type-id-582'/>
    <pointer-type-def type-id='type-id-583' size-in-bits='64' id='type-id-584'/>
    <pointer-type-def type-id='type-id-555' size-in-bits='64' id='type-id-585'/>
    <pointer-type-def type-id='type-id-586' size-in-bits='64' id='type-id-587'/>
    <pointer-type-def type-id='type-id-588' size-in-bits='64' id='type-id-589'/>
    <pointer-type-def type-id='type-id-590' size-in-bits='64' id='type-id-591'/>
    <pointer-type-def type-id='type-id-592' size-in-bits='64' id='type-id-593'/>
    <pointer-type-def type-id='type-id-594' size-in-bits='64' id='type-id-595'/>
    <pointer-type-def type-id='type-id-596' size-in-bits='64' id='type-id-597'/>
    <qualified-type-def type-id='type-id-187' restrict='yes' id='type-id-598'/>
    <qualified-type-def type-id='type-id-187' restrict='yes' id='type-id-599'/>
    <namespace-decl name='std'>
      <class-decl name='allocator_type' naming-typedef-id='type-id-562' visibility='default' is-declaration-only='yes' id='type-id-600'/>
      <class-decl name='__anonymous_struct__10' is-anonymous='yes' visibility='default' is-declaration-only='yes' id='type-id-473'>
        <member-function access='public'>
          <function-decl name='tuple&lt;mongo::ConstDataRange &amp;, mongo::FTDCCompressor::CompressorState, mongo::Date_t &amp;, void&gt;' mangled-name='_ZNSt5tupleIJN5mongo14ConstDataRangeENS0_14FTDCCompressor15CompressorStateENS0_6Date_tEEEC2IJRS1_S3_RS4_EvEEDpOT_' filepath='/usr/bin/../lib/gcc/x86_64-linux-gnu/5.4.0/../../../../include/c++/5.4.0/tuple' line='479' column='1' visibility='default' binding='global' size-in-bits='64'>
            <parameter type-id='type-id-474' is-artificial='yes'/>
            <parameter type-id='type-id-115'/>
            <parameter type-id='type-id-442'/>
            <parameter type-id='type-id-115'/>
            <return type-id='type-id-193'/>
          </function-decl>
        </member-function>
        <member-function access='public'>
          <function-decl name='tuple' mangled-name='_ZNSt5tupleIJN5mongo14ConstDataRangeENS0_14FTDCCompressor15CompressorStateENS0_6Date_tEEEC2EOS5_' filepath='/usr/bin/../lib/gcc/x86_64-linux-gnu/5.4.0/../../../../include/c++/5.4.0/tuple' line='484' column='1' visibility='default' binding='global' size-in-bits='64'>
            <parameter type-id='type-id-474' is-artificial='yes'/>
            <parameter type-id='type-id-116'/>
            <return type-id='type-id-193'/>
          </function-decl>
        </member-function>
      </class-decl>
      <class-decl name='__anonymous_struct__13' is-anonymous='yes' visibility='default' is-declaration-only='yes' id='type-id-493'>
        <member-type access='private'>
          <typedef-decl name='pointer' type-id='type-id-602' filepath='/usr/bin/../lib/gcc/x86_64-linux-gnu/5.4.0/../../../../include/c++/5.4.0/bits/unique_ptr.h' line='150' column='1' id='type-id-601'/>
        </member-type>
        <member-type access='private'>
          <class-decl name='__anonymous_struct__' is-anonymous='yes' visibility='default' is-declaration-only='yes' id='type-id-603'>
            <member-type access='private'>
              <typedef-decl name='type' type-id='type-id-55' filepath='/usr/bin/../lib/gcc/x86_64-linux-gnu/5.4.0/../../../../include/c++/5.4.0/bits/unique_ptr.h' line='143' column='1' id='type-id-602'/>
            </member-type>
          </class-decl>
        </member-type>
        <member-function access='public'>
          <function-decl name='get' mangled-name='_ZNKSt10unique_ptrIcN5mongo11DataBuilder7FreeBufEE3getEv' filepath='/usr/bin/../lib/gcc/x86_64-linux-gnu/5.4.0/../../../../include/c++/5.4.0/bits/unique_ptr.h' line='304' column='1' visibility='default' binding='global' size-in-bits='64'>
            <parameter type-id='type-id-544' is-artificial='yes'/>
            <return type-id='type-id-601'/>
          </function-decl>
        </member-function>
        <member-function access='public'>
          <function-decl name='operator bool' mangled-name='_ZNKSt10unique_ptrIcN5mongo11DataBuilder7FreeBufEEcvbEv' filepath='/usr/bin/../lib/gcc/x86_64-linux-gnu/5.4.0/../../../../include/c++/5.4.0/bits/unique_ptr.h' line='318' column='1' visibility='default' binding='global' size-in-bits='64'>
            <parameter type-id='type-id-544' is-artificial='yes'/>
            <return type-id='type-id-1'/>
          </function-decl>
        </member-function>
        <member-function access='public' destructor='yes'>
          <function-decl name='~unique_ptr' mangled-name='_ZNSt10unique_ptrIcN5mongo11DataBuilder7FreeBufEED2Ev' filepath='/usr/bin/../lib/gcc/x86_64-linux-gnu/5.4.0/../../../../include/c++/5.4.0/bits/unique_ptr.h' line='232' column='1' visibility='default' binding='global' size-in-bits='64'>
            <parameter type-id='type-id-494' is-artificial='yes'/>
            <return type-id='type-id-193'/>
          </function-decl>
        </member-function>
        <member-function access='public'>
          <function-decl name='release' mangled-name='_ZNSt10unique_ptrIcN5mongo11DataBuilder7FreeBufEE7releaseEv' filepath='/usr/bin/../lib/gcc/x86_64-linux-gnu/5.4.0/../../../../include/c++/5.4.0/bits/unique_ptr.h' line='325' column='1' visibility='default' binding='global' size-in-bits='64'>
            <parameter type-id='type-id-494' is-artificial='yes'/>
            <return type-id='type-id-601'/>
          </function-decl>
        </member-function>
        <member-function access='public'>
          <function-decl name='reset' mangled-name='_ZNSt10unique_ptrIcN5mongo11DataBuilder7FreeBufEE5resetEPc' filepath='/usr/bin/../lib/gcc/x86_64-linux-gnu/5.4.0/../../../../include/c++/5.4.0/bits/unique_ptr.h' line='339' column='1' visibility='default' binding='global' size-in-bits='64'>
            <parameter type-id='type-id-494' is-artificial='yes'/>
            <parameter type-id='type-id-601'/>
            <return type-id='type-id-193'/>
          </function-decl>
        </member-function>
        <member-function access='public'>
          <function-decl name='operator=' mangled-name='_ZNSt10unique_ptrIcN5mongo11DataBuilder7FreeBufEEaSEOS3_' filepath='/usr/bin/../lib/gcc/x86_64-linux-gnu/5.4.0/../../../../include/c++/5.4.0/bits/unique_ptr.h' line='249' column='1' visibility='default' binding='global' size-in-bits='64'>
            <parameter type-id='type-id-494' is-artificial='yes'/>
            <parameter type-id='type-id-116'/>
            <return type-id='type-id-115'/>
          </function-decl>
        </member-function>
      </class-decl>
      <class-decl name='__anonymous_struct__2' is-anonymous='yes' visibility='default' is-declaration-only='yes' id='type-id-461'>
        <member-type access='private'>
          <typedef-decl name='pointer' type-id='type-id-605' filepath='/usr/bin/../lib/gcc/x86_64-linux-gnu/5.4.0/../../../../include/c++/5.4.0/bits/stl_vector.h' line='227' column='1' id='type-id-604'/>
        </member-type>
        <member-type access='private'>
          <typedef-decl name='reference' type-id='type-id-607' filepath='/usr/bin/../lib/gcc/x86_64-linux-gnu/5.4.0/../../../../include/c++/5.4.0/bits/stl_vector.h' line='229' column='1' id='type-id-606'/>
        </member-type>
        <member-function access='public'>
          <function-decl name='size' mangled-name='_ZNKSt6vectorImSaImEE4sizeEv' filepath='/usr/bin/../lib/gcc/x86_64-linux-gnu/5.4.0/../../../../include/c++/5.4.0/bits/stl_vector.h' line='654' column='1' visibility='default' binding='global' size-in-bits='64'>
            <parameter type-id='type-id-535' is-artificial='yes'/>
            <return type-id='type-id-40'/>
          </function-decl>
        </member-function>
        <member-function access='public'>
          <function-decl name='resize' mangled-name='_ZNSt6vectorImSaImEE6resizeEm' filepath='/usr/bin/../lib/gcc/x86_64-linux-gnu/5.4.0/../../../../include/c++/5.4.0/bits/stl_vector.h' line='673' column='1' visibility='default' binding='global' size-in-bits='64'>
            <parameter type-id='type-id-462' is-artificial='yes'/>
            <parameter type-id='type-id-40'/>
            <return type-id='type-id-193'/>
          </function-decl>
        </member-function>
        <member-function access='protected'>
          <function-decl name='_M_erase_at_end' mangled-name='_ZNSt6vectorImSaImEE15_M_erase_at_endEPm' filepath='/usr/bin/../lib/gcc/x86_64-linux-gnu/5.4.0/../../../../include/c++/5.4.0/bits/stl_vector.h' line='1436' column='1' visibility='default' binding='global' size-in-bits='64'>
            <parameter type-id='type-id-462' is-artificial='yes'/>
            <parameter type-id='type-id-604'/>
            <return type-id='type-id-193'/>
          </function-decl>
        </member-function>
        <member-function access='public'>
          <function-decl name='swap' mangled-name='_ZNSt6vectorImSaImEE4swapERS1_' filepath='/usr/bin/../lib/gcc/x86_64-linux-gnu/5.4.0/../../../../include/c++/5.4.0/bits/stl_vector.h' line='1194' column='1' visibility='default' binding='global' size-in-bits='64'>
            <parameter type-id='type-id-462' is-artificial='yes'/>
            <parameter type-id='type-id-115'/>
            <return type-id='type-id-193'/>
          </function-decl>
        </member-function>
        <member-function access='public'>
          <function-decl name='operator[]' mangled-name='_ZNSt6vectorImSaImEEixEm' filepath='/usr/bin/../lib/gcc/x86_64-linux-gnu/5.4.0/../../../../include/c++/5.4.0/bits/stl_vector.h' line='779' column='1' visibility='default' binding='global' size-in-bits='64'>
            <parameter type-id='type-id-462' is-artificial='yes'/>
            <parameter type-id='type-id-40'/>
            <return type-id='type-id-606'/>
          </function-decl>
        </member-function>
        <member-function access='public'>
          <function-decl name='clear' mangled-name='_ZNSt6vectorImSaImEE5clearEv' filepath='/usr/bin/../lib/gcc/x86_64-linux-gnu/5.4.0/../../../../include/c++/5.4.0/bits/stl_vector.h' line='1211' column='1' visibility='default' binding='global' size-in-bits='64'>
            <parameter type-id='type-id-462' is-artificial='yes'/>
            <return type-id='type-id-193'/>
          </function-decl>
        </member-function>
        <member-function access='protected'>
          <function-decl name='_M_check_len' mangled-name='_ZNKSt6vectorImSaImEE12_M_check_lenEmPKc' filepath='/usr/bin/../lib/gcc/x86_64-linux-gnu/5.4.0/../../../../include/c++/5.4.0/bits/stl_vector.h' line='1422' column='1' visibility='default' binding='global' size-in-bits='64'>
            <parameter type-id='type-id-535' is-artificial='yes'/>
            <parameter type-id='type-id-40'/>
            <parameter type-id='type-id-60'/>
            <return type-id='type-id-40'/>
          </function-decl>
        </member-function>
        <member-function access='protected'>
          <function-decl name='_M_default_append' mangled-name='_ZNSt6vectorImSaImEE17_M_default_appendEm' filepath='/usr/bin/../lib/gcc/x86_64-linux-gnu/5.4.0/../../../../include/c++/5.4.0/bits/stl_vector.h' line='1400' column='1' visibility='default' binding='global' size-in-bits='64' elf-symbol-id='_ZNSt6vectorImSaImEE17_M_default_appendEm'>
            <parameter type-id='type-id-462' is-artificial='yes'/>
            <parameter type-id='type-id-40'/>
            <return type-id='type-id-193'/>
          </function-decl>
        </member-function>
      </class-decl>
      <class-decl name='__anonymous_struct__21' is-anonymous='yes' visibility='default' is-declaration-only='yes' id='type-id-608'/>
      <class-decl name='__anonymous_struct__5' is-anonymous='yes' visibility='default' is-declaration-only='yes' id='type-id-501'>
        <member-function access='public'>
          <function-decl name='tuple&lt;mongo::ConstDataRange, mongo::Date_t &amp;, void&gt;' mangled-name='_ZNSt5tupleIJN5mongo14ConstDataRangeENS0_6Date_tEEEC2IS1_RS2_vEEOT_OT0_' filepath='/usr/bin/../lib/gcc/x86_64-linux-gnu/5.4.0/../../../../include/c++/5.4.0/tuple' line='612' column='1' visibility='default' binding='global' size-in-bits='64'>
            <parameter type-id='type-id-502' is-artificial='yes'/>
            <parameter type-id='type-id-116'/>
            <parameter type-id='type-id-115'/>
            <return type-id='type-id-193'/>
          </function-decl>
        </member-function>
        <member-function access='public'>
          <function-decl name='tuple' mangled-name='_ZNSt5tupleIJN5mongo14ConstDataRangeENS0_6Date_tEEEC2EOS3_' filepath='/usr/bin/../lib/gcc/x86_64-linux-gnu/5.4.0/../../../../include/c++/5.4.0/tuple' line='617' column='1' visibility='default' binding='global' size-in-bits='64'>
            <parameter type-id='type-id-502' is-artificial='yes'/>
            <parameter type-id='type-id-116'/>
            <return type-id='type-id-193'/>
          </function-decl>
        </member-function>
      </class-decl>
      <class-decl name='__anonymous_struct__' is-struct='yes' is-anonymous='yes' visibility='default' is-declaration-only='yes' id='type-id-557'>
        <member-function access='public'>
          <function-decl name='fetch_sub' mangled-name='_ZNSt13__atomic_baseIjE9fetch_subEjSt12memory_order' filepath='/usr/bin/../lib/gcc/x86_64-linux-gnu/5.4.0/../../../../include/c++/5.4.0/bits/atomic_base.h' line='522' column='1' visibility='default' binding='global' size-in-bits='64'>
            <parameter type-id='type-id-569' is-artificial='yes'/>
            <parameter type-id='type-id-206'/>
            <parameter type-id='type-id-196'/>
            <return type-id='type-id-206'/>
          </function-decl>
        </member-function>
        <member-function access='public'>
          <function-decl name='fetch_add' mangled-name='_ZNSt13__atomic_baseIjE9fetch_addEjSt12memory_order' filepath='/usr/bin/../lib/gcc/x86_64-linux-gnu/5.4.0/../../../../include/c++/5.4.0/bits/atomic_base.h' line='512' column='1' visibility='default' binding='global' size-in-bits='64'>
            <parameter type-id='type-id-569' is-artificial='yes'/>
            <parameter type-id='type-id-206'/>
            <parameter type-id='type-id-196'/>
            <return type-id='type-id-206'/>
          </function-decl>
        </member-function>
        <member-function access='public'>
          <function-decl name='load' mangled-name='_ZNKSt13__atomic_baseIjE4loadESt12memory_order' filepath='/usr/bin/../lib/gcc/x86_64-linux-gnu/5.4.0/../../../../include/c++/5.4.0/bits/atomic_base.h' line='390' column='1' visibility='default' binding='global' size-in-bits='64'>
            <parameter type-id='type-id-560' is-artificial='yes'/>
            <parameter type-id='type-id-196'/>
            <return type-id='type-id-206'/>
          </function-decl>
        </member-function>
        <member-function access='public'>
          <function-decl name='__atomic_base' mangled-name='_ZNSt13__atomic_baseIjEC2Ej' filepath='/usr/bin/../lib/gcc/x86_64-linux-gnu/5.4.0/../../../../include/c++/5.4.0/bits/atomic_base.h' line='256' column='1' visibility='default' binding='global' size-in-bits='64'>
            <parameter type-id='type-id-569' is-artificial='yes'/>
            <parameter type-id='type-id-206'/>
            <return type-id='type-id-193'/>
          </function-decl>
        </member-function>
      </class-decl>
      <class-decl name='__anonymous_struct__1' is-struct='yes' is-anonymous='yes' visibility='default' is-declaration-only='yes' id='type-id-609'>
        <member-function access='public' static='yes'>
          <function-decl name='deallocate' mangled-name='_ZNSt16allocator_traitsISaIcEE10deallocateERS0_Pcm' filepath='/usr/bin/../lib/gcc/x86_64-linux-gnu/5.4.0/../../../../include/c++/5.4.0/bits/alloc_traits.h' line='516' column='1' visibility='default' binding='global' size-in-bits='64'>
            <parameter type-id='type-id-96'/>
            <parameter type-id='type-id-213'/>
            <parameter type-id='type-id-40'/>
            <return type-id='type-id-193'/>
          </function-decl>
        </member-function>
      </class-decl>
      <class-decl name='__anonymous_struct__11' is-struct='yes' is-anonymous='yes' visibility='default' is-declaration-only='yes' id='type-id-579'>
        <member-function access='public'>
          <function-decl name='_Head_base&lt;mongo::FTDCCompressor::CompressorState&gt;' mangled-name='_ZNSt10_Head_baseILm1EN5mongo14FTDCCompressor15CompressorStateELb0EEC2IS2_EEOT_' filepath='/usr/bin/../lib/gcc/x86_64-linux-gnu/5.4.0/../../../../include/c++/5.4.0/tuple' line='114' column='1' visibility='default' binding='global' size-in-bits='64'>
            <parameter type-id='type-id-580' is-artificial='yes'/>
            <parameter type-id='type-id-442'/>
            <return type-id='type-id-193'/>
          </function-decl>
        </member-function>
      </class-decl>
      <class-decl name='__anonymous_struct__12' is-struct='yes' is-anonymous='yes' visibility='default' is-declaration-only='yes' id='type-id-581'>
        <member-function access='public'>
          <function-decl name='_Head_base&lt;mongo::ConstDataRange&gt;' mangled-name='_ZNSt10_Head_baseILm0EN5mongo14ConstDataRangeELb0EEC2IS1_EEOT_' filepath='/usr/bin/../lib/gcc/x86_64-linux-gnu/5.4.0/../../../../include/c++/5.4.0/tuple' line='114' column='1' visibility='default' binding='global' size-in-bits='64'>
            <parameter type-id='type-id-582' is-artificial='yes'/>
            <parameter type-id='type-id-116'/>
            <return type-id='type-id-193'/>
          </function-decl>
        </member-function>
      </class-decl>
      <class-decl name='__anonymous_struct__14' is-struct='yes' is-anonymous='yes' visibility='default' is-declaration-only='yes' id='type-id-588'>
        <member-function access='public'>
          <function-decl name='_Head_base&lt;mongo::Date_t &amp;&gt;' mangled-name='_ZNSt10_Head_baseILm1EN5mongo6Date_tELb0EEC2IRS1_EEOT_' filepath='/usr/bin/../lib/gcc/x86_64-linux-gnu/5.4.0/../../../../include/c++/5.4.0/tuple' line='114' column='1' visibility='default' binding='global' size-in-bits='64'>
            <parameter type-id='type-id-589' is-artificial='yes'/>
            <parameter type-id='type-id-115'/>
            <return type-id='type-id-193'/>
          </function-decl>
        </member-function>
        <member-function access='public'>
          <function-decl name='_Head_base&lt;mongo::Date_t&gt;' mangled-name='_ZNSt10_Head_baseILm1EN5mongo6Date_tELb0EEC2IS1_EEOT_' filepath='/usr/bin/../lib/gcc/x86_64-linux-gnu/5.4.0/../../../../include/c++/5.4.0/tuple' line='114' column='1' visibility='default' binding='global' size-in-bits='64'>
            <parameter type-id='type-id-589' is-artificial='yes'/>
            <parameter type-id='type-id-116'/>
            <return type-id='type-id-193'/>
          </function-decl>
        </member-function>
      </class-decl>
      <class-decl name='__anonymous_struct__15' is-struct='yes' is-anonymous='yes' visibility='default' is-declaration-only='yes' id='type-id-590'>
        <member-function access='public'>
          <function-decl name='_Tuple_impl&lt;mongo::Date_t &amp;&gt;' mangled-name='_ZNSt11_Tuple_implILm1EJN5mongo6Date_tEEEC2IRS1_EEOT_' filepath='/usr/bin/../lib/gcc/x86_64-linux-gnu/5.4.0/../../../../include/c++/5.4.0/tuple' line='361' column='1' visibility='default' binding='global' size-in-bits='64'>
            <parameter type-id='type-id-591' is-artificial='yes'/>
            <parameter type-id='type-id-115'/>
            <return type-id='type-id-193'/>
          </function-decl>
        </member-function>
        <member-function access='public'>
          <function-decl name='_Tuple_impl' mangled-name='_ZNSt11_Tuple_implILm1EJN5mongo6Date_tEEEC2EOS2_' filepath='/usr/bin/../lib/gcc/x86_64-linux-gnu/5.4.0/../../../../include/c++/5.4.0/tuple' line='367' column='1' visibility='default' binding='global' size-in-bits='64'>
            <parameter type-id='type-id-591' is-artificial='yes'/>
            <parameter type-id='type-id-377'/>
            <return type-id='type-id-193'/>
          </function-decl>
        </member-function>
      </class-decl>
      <class-decl name='__anonymous_struct__16' is-struct='yes' is-anonymous='yes' visibility='default' is-declaration-only='yes' id='type-id-592'>
        <member-function access='public'>
          <function-decl name='_Tuple_impl&lt;mongo::ConstDataRange, mongo::Date_t &amp;, void&gt;' mangled-name='_ZNSt11_Tuple_implILm0EJN5mongo14ConstDataRangeENS0_6Date_tEEEC2IS1_JRS2_EvEEOT_DpOT0_' filepath='/usr/bin/../lib/gcc/x86_64-linux-gnu/5.4.0/../../../../include/c++/5.4.0/tuple' line='211' column='1' visibility='default' binding='global' size-in-bits='64'>
            <parameter type-id='type-id-593' is-artificial='yes'/>
            <parameter type-id='type-id-116'/>
            <parameter type-id='type-id-115'/>
            <return type-id='type-id-193'/>
          </function-decl>
        </member-function>
        <member-function access='public'>
          <function-decl name='_Tuple_impl' mangled-name='_ZNSt11_Tuple_implILm0EJN5mongo14ConstDataRangeENS0_6Date_tEEEC2EOS3_' filepath='/usr/bin/../lib/gcc/x86_64-linux-gnu/5.4.0/../../../../include/c++/5.4.0/tuple' line='218' column='1' visibility='default' binding='global' size-in-bits='64'>
            <parameter type-id='type-id-593' is-artificial='yes'/>
            <parameter type-id='type-id-377'/>
            <return type-id='type-id-193'/>
          </function-decl>
        </member-function>
      </class-decl>
      <class-decl name='__anonymous_struct__17' is-struct='yes' is-anonymous='yes' visibility='default' is-declaration-only='yes' id='type-id-594'>
        <member-function access='public'>
          <function-decl name='atomic' mangled-name='_ZNSt6atomicIjEC2Ej' filepath='/usr/bin/../lib/gcc/x86_64-linux-gnu/5.4.0/../../../../include/c++/5.4.0/atomic' line='635' column='1' visibility='default' binding='global' size-in-bits='64'>
            <parameter type-id='type-id-595' is-artificial='yes'/>
            <parameter type-id='type-id-207'/>
            <return type-id='type-id-193'/>
          </function-decl>
        </member-function>
      </class-decl>
      <class-decl name='__anonymous_struct__18' is-struct='yes' is-anonymous='yes' visibility='default' is-declaration-only='yes' id='type-id-610'>
        <member-function access='public' static='yes'>
          <function-decl name='__uninit_default_n&lt;unsigned long *, unsigned long&gt;' mangled-name='_ZNSt27__uninitialized_default_n_1ILb1EE18__uninit_default_nIPmmEET_S3_T0_' filepath='/usr/bin/../lib/gcc/x86_64-linux-gnu/5.4.0/../../../../include/c++/5.4.0/bits/stl_uninitialized.h' line='535' column='1' visibility='default' binding='global' size-in-bits='64'>
            <parameter type-id='type-id-441'/>
            <parameter type-id='type-id-38'/>
            <return type-id='type-id-441'/>
          </function-decl>
        </member-function>
      </class-decl>
      <class-decl name='__anonymous_struct__19' is-struct='yes' is-anonymous='yes' visibility='default' is-declaration-only='yes' id='type-id-611'>
        <member-function access='public' static='yes'>
          <function-decl name='__copy_m&lt;unsigned long&gt;' mangled-name='_ZNSt11__copy_moveILb1ELb1ESt26random_access_iterator_tagE8__copy_mImEEPT_PKS3_S6_S4_' filepath='/usr/bin/../lib/gcc/x86_64-linux-gnu/5.4.0/../../../../include/c++/5.4.0/bits/stl_algobase.h' line='373' column='1' visibility='default' binding='global' size-in-bits='64'>
            <parameter type-id='type-id-440'/>
            <parameter type-id='type-id-440'/>
            <parameter type-id='type-id-441'/>
            <return type-id='type-id-441'/>
          </function-decl>
        </member-function>
      </class-decl>
      <class-decl name='__anonymous_struct__20' is-struct='yes' is-anonymous='yes' visibility='default' is-declaration-only='yes' id='type-id-612'>
        <member-function access='public' static='yes'>
          <function-decl name='__uninit_copy&lt;std::move_iterator&lt;unsigned long *&gt;, unsigned long *&gt;' mangled-name='_ZNSt20__uninitialized_copyILb1EE13__uninit_copyISt13move_iteratorIPmES3_EET0_T_S6_S5_' filepath='/usr/bin/../lib/gcc/x86_64-linux-gnu/5.4.0/../../../../include/c++/5.4.0/bits/stl_uninitialized.h' line='91' column='1' visibility='default' binding='global' size-in-bits='64'>
            <parameter type-id='type-id-608'/>
            <parameter type-id='type-id-608'/>
            <parameter type-id='type-id-441'/>
            <return type-id='type-id-441'/>
          </function-decl>
        </member-function>
      </class-decl>
      <class-decl name='__anonymous_struct__3' is-struct='yes' is-anonymous='yes' visibility='default' is-declaration-only='yes' id='type-id-596'>
        <member-type access='public'>
          <typedef-decl name='pointer' type-id='type-id-613' filepath='/usr/bin/../lib/gcc/x86_64-linux-gnu/5.4.0/../../../../include/c++/5.4.0/bits/stl_vector.h' line='77' column='1' id='type-id-605'/>
        </member-type>
        <member-type access='public'>
          <class-decl name='__anonymous_struct__' is-struct='yes' is-anonymous='yes' visibility='default' is-declaration-only='yes' id='type-id-564'>
            <member-function access='public'>
              <function-decl name='_M_swap_data' mangled-name='_ZNSt12_Vector_baseImSaImEE12_Vector_impl12_M_swap_dataERS2_' filepath='/usr/bin/../lib/gcc/x86_64-linux-gnu/5.4.0/../../../../include/c++/5.4.0/bits/stl_vector.h' line='101' column='1' visibility='default' binding='global' size-in-bits='64'>
                <parameter type-id='type-id-570' is-artificial='yes'/>
                <parameter type-id='type-id-565'/>
                <return type-id='type-id-193'/>
              </function-decl>
            </member-function>
          </class-decl>
        </member-type>
        <member-function access='public'>
          <function-decl name='_M_allocate' mangled-name='_ZNSt12_Vector_baseImSaImEE11_M_allocateEm' filepath='/usr/bin/../lib/gcc/x86_64-linux-gnu/5.4.0/../../../../include/c++/5.4.0/bits/stl_vector.h' line='167' column='1' visibility='default' binding='global' size-in-bits='64'>
            <parameter type-id='type-id-597' is-artificial='yes'/>
            <parameter type-id='type-id-39'/>
            <return type-id='type-id-605'/>
          </function-decl>
        </member-function>
        <member-function access='public'>
          <function-decl name='_M_deallocate' mangled-name='_ZNSt12_Vector_baseImSaImEE13_M_deallocateEPmm' filepath='/usr/bin/../lib/gcc/x86_64-linux-gnu/5.4.0/../../../../include/c++/5.4.0/bits/stl_vector.h' line='174' column='1' visibility='default' binding='global' size-in-bits='64'>
            <parameter type-id='type-id-597' is-artificial='yes'/>
            <parameter type-id='type-id-605'/>
            <parameter type-id='type-id-39'/>
            <return type-id='type-id-193'/>
          </function-decl>
        </member-function>
      </class-decl>
      <class-decl name='__anonymous_struct__4' is-struct='yes' is-anonymous='yes' visibility='default' is-declaration-only='yes' id='type-id-614'>
        <member-type access='public'>
          <typedef-decl name='pointer' type-id='type-id-441' filepath='/usr/bin/../lib/gcc/x86_64-linux-gnu/5.4.0/../../../../include/c++/5.4.0/bits/alloc_traits.h' line='450' column='1' id='type-id-615'/>
        </member-type>
        <member-type access='public'>
          <typedef-decl name='value_type' type-id='type-id-38' filepath='/usr/bin/../lib/gcc/x86_64-linux-gnu/5.4.0/../../../../include/c++/5.4.0/bits/alloc_traits.h' line='447' column='1' id='type-id-616'/>
        </member-type>
        <member-type access='public'>
          <typedef-decl name='allocator_type' type-id='type-id-600' filepath='/usr/bin/../lib/gcc/x86_64-linux-gnu/5.4.0/../../../../include/c++/5.4.0/bits/alloc_traits.h' line='445' column='1' id='type-id-562'/>
        </member-type>
        <member-function access='public' static='yes'>
          <function-decl name='allocate' mangled-name='_ZNSt16allocator_traitsISaImEE8allocateERS0_m' filepath='/usr/bin/../lib/gcc/x86_64-linux-gnu/5.4.0/../../../../include/c++/5.4.0/bits/alloc_traits.h' line='490' column='1' visibility='default' binding='global' size-in-bits='64'>
            <parameter type-id='type-id-563'/>
            <parameter type-id='type-id-40'/>
            <return type-id='type-id-615'/>
          </function-decl>
        </member-function>
        <member-function access='public' static='yes'>
          <function-decl name='deallocate' mangled-name='_ZNSt16allocator_traitsISaImEE10deallocateERS0_Pmm' filepath='/usr/bin/../lib/gcc/x86_64-linux-gnu/5.4.0/../../../../include/c++/5.4.0/bits/alloc_traits.h' line='516' column='1' visibility='default' binding='global' size-in-bits='64'>
            <parameter type-id='type-id-563'/>
            <parameter type-id='type-id-615'/>
            <parameter type-id='type-id-40'/>
            <return type-id='type-id-193'/>
          </function-decl>
        </member-function>
      </class-decl>
      <class-decl name='__anonymous_struct__6' is-struct='yes' is-anonymous='yes' visibility='default' is-declaration-only='yes' id='type-id-571'>
        <member-function access='public'>
          <function-decl name='_Head_base&lt;mongo::Date_t &amp;&gt;' mangled-name='_ZNSt10_Head_baseILm2EN5mongo6Date_tELb0EEC2IRS1_EEOT_' filepath='/usr/bin/../lib/gcc/x86_64-linux-gnu/5.4.0/../../../../include/c++/5.4.0/tuple' line='114' column='1' visibility='default' binding='global' size-in-bits='64'>
            <parameter type-id='type-id-572' is-artificial='yes'/>
            <parameter type-id='type-id-115'/>
            <return type-id='type-id-193'/>
          </function-decl>
        </member-function>
        <member-function access='public'>
          <function-decl name='_Head_base&lt;mongo::Date_t&gt;' mangled-name='_ZNSt10_Head_baseILm2EN5mongo6Date_tELb0EEC2IS1_EEOT_' filepath='/usr/bin/../lib/gcc/x86_64-linux-gnu/5.4.0/../../../../include/c++/5.4.0/tuple' line='114' column='1' visibility='default' binding='global' size-in-bits='64'>
            <parameter type-id='type-id-572' is-artificial='yes'/>
            <parameter type-id='type-id-116'/>
            <return type-id='type-id-193'/>
          </function-decl>
        </member-function>
      </class-decl>
      <class-decl name='__anonymous_struct__7' is-struct='yes' is-anonymous='yes' visibility='default' is-declaration-only='yes' id='type-id-573'>
        <member-function access='public'>
          <function-decl name='_Tuple_impl&lt;mongo::Date_t &amp;&gt;' mangled-name='_ZNSt11_Tuple_implILm2EJN5mongo6Date_tEEEC2IRS1_EEOT_' filepath='/usr/bin/../lib/gcc/x86_64-linux-gnu/5.4.0/../../../../include/c++/5.4.0/tuple' line='361' column='1' visibility='default' binding='global' size-in-bits='64'>
            <parameter type-id='type-id-574' is-artificial='yes'/>
            <parameter type-id='type-id-115'/>
            <return type-id='type-id-193'/>
          </function-decl>
        </member-function>
        <member-function access='public'>
          <function-decl name='_Tuple_impl' mangled-name='_ZNSt11_Tuple_implILm2EJN5mongo6Date_tEEEC2EOS2_' filepath='/usr/bin/../lib/gcc/x86_64-linux-gnu/5.4.0/../../../../include/c++/5.4.0/tuple' line='367' column='1' visibility='default' binding='global' size-in-bits='64'>
            <parameter type-id='type-id-574' is-artificial='yes'/>
            <parameter type-id='type-id-377'/>
            <return type-id='type-id-193'/>
          </function-decl>
        </member-function>
      </class-decl>
      <class-decl name='__anonymous_struct__8' is-struct='yes' is-anonymous='yes' visibility='default' is-declaration-only='yes' id='type-id-575'>
        <member-function access='public'>
          <function-decl name='_Tuple_impl&lt;mongo::FTDCCompressor::CompressorState, mongo::Date_t &amp;, void&gt;' mangled-name='_ZNSt11_Tuple_implILm1EJN5mongo14FTDCCompressor15CompressorStateENS0_6Date_tEEEC2IS2_JRS3_EvEEOT_DpOT0_' filepath='/usr/bin/../lib/gcc/x86_64-linux-gnu/5.4.0/../../../../include/c++/5.4.0/tuple' line='211' column='1' visibility='default' binding='global' size-in-bits='64'>
            <parameter type-id='type-id-576' is-artificial='yes'/>
            <parameter type-id='type-id-442'/>
            <parameter type-id='type-id-115'/>
            <return type-id='type-id-193'/>
          </function-decl>
        </member-function>
        <member-function access='public'>
          <function-decl name='_Tuple_impl' mangled-name='_ZNSt11_Tuple_implILm1EJN5mongo14FTDCCompressor15CompressorStateENS0_6Date_tEEEC2EOS4_' filepath='/usr/bin/../lib/gcc/x86_64-linux-gnu/5.4.0/../../../../include/c++/5.4.0/tuple' line='218' column='1' visibility='default' binding='global' size-in-bits='64'>
            <parameter type-id='type-id-576' is-artificial='yes'/>
            <parameter type-id='type-id-377'/>
            <return type-id='type-id-193'/>
          </function-decl>
        </member-function>
      </class-decl>
      <class-decl name='__anonymous_struct__9' is-struct='yes' is-anonymous='yes' visibility='default' is-declaration-only='yes' id='type-id-577'>
        <member-function access='public'>
          <function-decl name='_Tuple_impl&lt;mongo::ConstDataRange &amp;, mongo::FTDCCompressor::CompressorState, mongo::Date_t &amp;, void&gt;' mangled-name='_ZNSt11_Tuple_implILm0EJN5mongo14ConstDataRangeENS0_14FTDCCompressor15CompressorStateENS0_6Date_tEEEC2IRS1_JS3_RS4_EvEEOT_DpOT0_' filepath='/usr/bin/../lib/gcc/x86_64-linux-gnu/5.4.0/../../../../include/c++/5.4.0/tuple' line='211' column='1' visibility='default' binding='global' size-in-bits='64'>
            <parameter type-id='type-id-578' is-artificial='yes'/>
            <parameter type-id='type-id-115'/>
            <parameter type-id='type-id-442'/>
            <parameter type-id='type-id-115'/>
            <return type-id='type-id-193'/>
          </function-decl>
        </member-function>
        <member-function access='public'>
          <function-decl name='_Tuple_impl' mangled-name='_ZNSt11_Tuple_implILm0EJN5mongo14ConstDataRangeENS0_14FTDCCompressor15CompressorStateENS0_6Date_tEEEC2EOS5_' filepath='/usr/bin/../lib/gcc/x86_64-linux-gnu/5.4.0/../../../../include/c++/5.4.0/tuple' line='218' column='1' visibility='default' binding='global' size-in-bits='64'>
            <parameter type-id='type-id-578' is-artificial='yes'/>
            <parameter type-id='type-id-377'/>
            <return type-id='type-id-193'/>
          </function-decl>
        </member-function>
      </class-decl>
    </namespace-decl>
    <namespace-decl name='__gnu_cxx'>
      <class-decl name='__anonymous_struct__' is-anonymous='yes' visibility='default' is-declaration-only='yes' id='type-id-449'>
        <member-function access='public'>
          <function-decl name='deallocate' mangled-name='_ZN9__gnu_cxx13new_allocatorIcE10deallocateEPcm' filepath='/usr/bin/../lib/gcc/x86_64-linux-gnu/5.4.0/../../../../include/c++/5.4.0/ext/new_allocator.h' line='109' column='1' visibility='default' binding='global' size-in-bits='64'>
            <parameter type-id='type-id-450' is-artificial='yes'/>
            <parameter type-id='type-id-213'/>
            <parameter type-id='type-id-40'/>
            <return type-id='type-id-193'/>
          </function-decl>
        </member-function>
      </class-decl>
      <class-decl name='__anonymous_struct__2' is-anonymous='yes' visibility='default' is-declaration-only='yes' id='type-id-514'>
        <member-function access='public'>
          <function-decl name='allocate' mangled-name='_ZN9__gnu_cxx13new_allocatorImE8allocateEmPKv' filepath='/usr/bin/../lib/gcc/x86_64-linux-gnu/5.4.0/../../../../include/c++/5.4.0/ext/new_allocator.h' line='99' column='1' visibility='default' binding='global' size-in-bits='64'>
            <parameter type-id='type-id-515' is-artificial='yes'/>
            <parameter type-id='type-id-40'/>
            <parameter type-id='type-id-187'/>
            <return type-id='type-id-615'/>
          </function-decl>
        </member-function>
        <member-function access='public'>
          <function-decl name='deallocate' mangled-name='_ZN9__gnu_cxx13new_allocatorImE10deallocateEPmm' filepath='/usr/bin/../lib/gcc/x86_64-linux-gnu/5.4.0/../../../../include/c++/5.4.0/ext/new_allocator.h' line='109' column='1' visibility='default' binding='global' size-in-bits='64'>
            <parameter type-id='type-id-515' is-artificial='yes'/>
            <parameter type-id='type-id-615'/>
            <parameter type-id='type-id-40'/>
            <return type-id='type-id-193'/>
          </function-decl>
        </member-function>
      </class-decl>
      <class-decl name='__anonymous_struct__1' is-struct='yes' is-anonymous='yes' visibility='default' is-declaration-only='yes' id='type-id-617'>
        <member-type access='public'>
          <typedef-decl name='pointer' type-id='type-id-615' filepath='/usr/bin/../lib/gcc/x86_64-linux-gnu/5.4.0/../../../../include/c++/5.4.0/ext/alloc_traits.h' line='104' column='1' id='type-id-613'/>
        </member-type>
        <member-type access='public'>
          <typedef-decl name='reference' type-id='type-id-435' filepath='/usr/bin/../lib/gcc/x86_64-linux-gnu/5.4.0/../../../../include/c++/5.4.0/ext/alloc_traits.h' line='109' column='1' id='type-id-607'/>
        </member-type>
        <member-type access='public'>
          <typedef-decl name='value_type' type-id='type-id-616' filepath='/usr/bin/../lib/gcc/x86_64-linux-gnu/5.4.0/../../../../include/c++/5.4.0/ext/alloc_traits.h' line='103' column='1' id='type-id-434'/>
        </member-type>
      </class-decl>
    </namespace-decl>
    <namespace-decl name='mongo'>
      <class-decl name='__anonymous_struct__' is-anonymous='yes' visibility='default' is-declaration-only='yes' id='type-id-481'>
        <member-function access='public'>
          <function-decl name='objdata' mangled-name='_ZNK5mongo7BSONObj7objdataEv' filepath='src/mongo/bson/bsonobj.h' line='356' column='1' visibility='default' binding='global' size-in-bits='64'>
            <parameter type-id='type-id-534' is-artificial='yes'/>
            <return type-id='type-id-60'/>
          </function-decl>
        </member-function>
        <member-function access='public'>
          <function-decl name='objsize' mangled-name='_ZNK5mongo7BSONObj7objsizeEv' filepath='src/mongo/bson/bsonobj.h' line='361' column='1' visibility='default' binding='global' size-in-bits='64'>
            <parameter type-id='type-id-534' is-artificial='yes'/>
            <return type-id='type-id-16'/>
          </function-decl>
        </member-function>
        <member-function access='public'>
          <function-decl name='isEmpty' mangled-name='_ZNK5mongo7BSONObj7isEmptyEv' filepath='src/mongo/bson/bsonobj.h' line='378' column='1' visibility='default' binding='global' size-in-bits='64'>
            <parameter type-id='type-id-534' is-artificial='yes'/>
            <return type-id='type-id-1'/>
          </function-decl>
        </member-function>
        <member-function access='public'>
          <function-decl name='swap' mangled-name='_ZN5mongo7BSONObj4swapERS0_' filepath='src/mongo/bson/bsonobj.h' line='150' column='1' visibility='default' binding='global' size-in-bits='64'>
            <parameter type-id='type-id-482' is-artificial='yes'/>
            <parameter type-id='type-id-115'/>
            <return type-id='type-id-193'/>
          </function-decl>
        </member-function>
        <member-function access='public'>
          <function-decl name='operator=' mangled-name='_ZN5mongo7BSONObjaSES0_' filepath='src/mongo/bson/bsonobj.h' line='144' column='1' visibility='default' binding='global' size-in-bits='64'>
            <parameter type-id='type-id-482' is-artificial='yes'/>
            <parameter type-id='type-id-481'/>
            <return type-id='type-id-115'/>
          </function-decl>
        </member-function>
        <member-function access='public'>
          <function-decl name='BSONObj' mangled-name='_ZN5mongo7BSONObjC2ERKS0_' filepath='src/mongo/bson/bsonobj.h' line='139' column='1' visibility='default' binding='global' size-in-bits='64'>
            <parameter type-id='type-id-482' is-artificial='yes'/>
            <parameter type-id='type-id-164'/>
            <return type-id='type-id-193'/>
          </function-decl>
        </member-function>
        <member-function access='public'>
          <function-decl name='BSONObj' mangled-name='_ZN5mongo7BSONObjC2Ev' filepath='src/mongo/bson/bsonobj.h' line='108' column='1' visibility='default' binding='global' size-in-bits='64'>
            <parameter type-id='type-id-482' is-artificial='yes'/>
            <return type-id='type-id-193'/>
          </function-decl>
        </member-function>
      </class-decl>
      <class-decl name='__anonymous_struct__1' is-anonymous='yes' visibility='default' is-declaration-only='yes' id='type-id-463'>
        <member-function access='public'>
          <function-decl name='isOK' mangled-name='_ZNK5mongo10StatusWithIbE4isOKEv' filepath='src/mongo/base/status_with.h' line='108' column='1' visibility='default' binding='global' size-in-bits='64'>
            <parameter type-id='type-id-537' is-artificial='yes'/>
            <return type-id='type-id-1'/>
          </function-decl>
        </member-function>
        <member-function access='public'>
          <function-decl name='getValue' mangled-name='_ZN5mongo10StatusWithIbE8getValueEv' filepath='src/mongo/base/status_with.h' line='99' column='1' visibility='default' binding='global' size-in-bits='64'>
            <parameter type-id='type-id-464' is-artificial='yes'/>
            <return type-id='type-id-436'/>
          </function-decl>
        </member-function>
      </class-decl>
      <class-decl name='__anonymous_struct__10' is-anonymous='yes' visibility='default' is-declaration-only='yes' id='type-id-479'>
        <member-function access='public'>
          <function-decl name='swap' mangled-name='_ZN5mongo17ConstSharedBuffer4swapERS0_' filepath='src/mongo/util/shared_buffer.h' line='174' column='1' visibility='default' binding='global' size-in-bits='64'>
            <parameter type-id='type-id-480' is-artificial='yes'/>
            <parameter type-id='type-id-115'/>
            <return type-id='type-id-193'/>
          </function-decl>
        </member-function>
        <member-function access='public'>
          <function-decl name='ConstSharedBuffer' mangled-name='_ZN5mongo17ConstSharedBufferC2Ev' filepath='src/mongo/util/shared_buffer.h' line='171' column='1' visibility='default' binding='global' size-in-bits='64'>
            <parameter type-id='type-id-480' is-artificial='yes'/>
            <return type-id='type-id-193'/>
          </function-decl>
        </member-function>
      </class-decl>
      <class-decl name='__anonymous_struct__11' is-anonymous='yes' visibility='default' is-declaration-only='yes' id='type-id-485'>
        <member-function access='public'>
          <function-decl name='setlen' mangled-name='_ZN5mongo11_BufBuilderINS_21SharedBufferAllocatorEE6setlenEi' filepath='src/mongo/bson/util/builder.h' line='278' column='1' visibility='default' binding='global' size-in-bits='64'>
            <parameter type-id='type-id-486' is-artificial='yes'/>
            <parameter type-id='type-id-16'/>
            <return type-id='type-id-193'/>
          </function-decl>
        </member-function>
        <member-function access='public'>
          <function-decl name='grow' mangled-name='_ZN5mongo11_BufBuilderINS_21SharedBufferAllocatorEE4growEi' filepath='src/mongo/bson/util/builder.h' line='287' column='1' visibility='default' binding='global' size-in-bits='64'>
            <parameter type-id='type-id-486' is-artificial='yes'/>
            <parameter type-id='type-id-16'/>
            <return type-id='type-id-55'/>
          </function-decl>
        </member-function>
        <member-function access='public'>
          <function-decl name='appendBuf' mangled-name='_ZN5mongo11_BufBuilderINS_21SharedBufferAllocatorEE9appendBufEPKvm' filepath='src/mongo/bson/util/builder.h' line='259' column='1' visibility='default' binding='global' size-in-bits='64'>
            <parameter type-id='type-id-486' is-artificial='yes'/>
            <parameter type-id='type-id-187'/>
            <parameter type-id='type-id-39'/>
            <return type-id='type-id-193'/>
          </function-decl>
        </member-function>
        <member-function access='private'>
          <function-decl name='appendNumImpl&lt;unsigned int&gt;' mangled-name='_ZN5mongo11_BufBuilderINS_21SharedBufferAllocatorEE13appendNumImplIjEEvT_' filepath='src/mongo/bson/util/builder.h' line='334' column='1' visibility='default' binding='global' size-in-bits='64'>
            <parameter type-id='type-id-486' is-artificial='yes'/>
            <parameter type-id='type-id-45'/>
            <return type-id='type-id-193'/>
          </function-decl>
        </member-function>
        <member-function access='public'>
          <function-decl name='appendNum' mangled-name='_ZN5mongo11_BufBuilderINS_21SharedBufferAllocatorEE9appendNumEj' filepath='src/mongo/bson/util/builder.h' line='223' column='1' visibility='default' binding='global' size-in-bits='64'>
            <parameter type-id='type-id-486' is-artificial='yes'/>
            <parameter type-id='type-id-45'/>
            <return type-id='type-id-193'/>
          </function-decl>
        </member-function>
        <member-function access='public'>
          <function-decl name='buf' mangled-name='_ZN5mongo11_BufBuilderINS_21SharedBufferAllocatorEE3bufEv' filepath='src/mongo/bson/util/builder.h' line='193' column='1' visibility='default' binding='global' size-in-bits='64'>
            <parameter type-id='type-id-486' is-artificial='yes'/>
            <return type-id='type-id-55'/>
          </function-decl>
        </member-function>
        <member-function access='public'>
          <function-decl name='len' mangled-name='_ZNK5mongo11_BufBuilderINS_21SharedBufferAllocatorEE3lenEv' filepath='src/mongo/bson/util/builder.h' line='275' column='1' visibility='default' binding='global' size-in-bits='64'>
            <parameter type-id='type-id-546' is-artificial='yes'/>
            <return type-id='type-id-16'/>
          </function-decl>
        </member-function>
        <member-function access='private'>
          <function-decl name='grow_reallocate' mangled-name='_ZN5mongo11_BufBuilderINS_21SharedBufferAllocatorEE15grow_reallocateEi' filepath='src/mongo/bson/util/builder.h' line='342' column='1' visibility='default' binding='global' size-in-bits='64'>
            <parameter type-id='type-id-486' is-artificial='yes'/>
            <parameter type-id='type-id-16'/>
            <return type-id='type-id-193'/>
          </function-decl>
        </member-function>
      </class-decl>
      <class-decl name='__anonymous_struct__14' is-anonymous='yes' visibility='default' is-declaration-only='yes' id='type-id-523'>
        <member-function access='public'>
          <function-decl name='read&lt;mongo::LittleEndian&lt;int&gt; &gt;' mangled-name='_ZNK5mongo13ConstDataView4readINS_12LittleEndianIiEEEERKS0_PT_m' filepath='src/mongo/base/data_view.h' line='50' column='1' visibility='default' binding='global' size-in-bits='64'>
            <parameter type-id='type-id-540' is-artificial='yes'/>
            <parameter type-id='type-id-584'/>
            <parameter type-id='type-id-39'/>
            <return type-id='type-id-164'/>
          </function-decl>
        </member-function>
        <member-function access='public'>
          <function-decl name='read&lt;mongo::LittleEndian&lt;int&gt; &gt;' mangled-name='_ZNK5mongo13ConstDataView4readINS_12LittleEndianIiEEEET_m' filepath='src/mongo/base/data_view.h' line='57' column='1' visibility='default' binding='global' size-in-bits='64'>
            <parameter type-id='type-id-540' is-artificial='yes'/>
            <parameter type-id='type-id-39'/>
            <return type-id='type-id-583'/>
          </function-decl>
        </member-function>
      </class-decl>
      <class-decl name='__anonymous_struct__15' is-anonymous='yes' visibility='default' is-declaration-only='yes' id='type-id-509'>
        <member-function access='public'>
          <function-decl name='get' mangled-name='_ZNK5mongo21SharedBufferAllocator3getEv' filepath='src/mongo/bson/util/builder.h' line='105' column='1' visibility='default' binding='global' size-in-bits='64'>
            <parameter type-id='type-id-543' is-artificial='yes'/>
            <return type-id='type-id-55'/>
          </function-decl>
        </member-function>
        <member-function access='public'>
          <function-decl name='realloc' mangled-name='_ZN5mongo21SharedBufferAllocator7reallocEm' filepath='src/mongo/bson/util/builder.h' line='95' column='1' visibility='default' binding='global' size-in-bits='64'>
            <parameter type-id='type-id-510' is-artificial='yes'/>
            <parameter type-id='type-id-39'/>
            <return type-id='type-id-193'/>
          </function-decl>
        </member-function>
      </class-decl>
      <class-decl name='__anonymous_struct__17' is-anonymous='yes' visibility='default' is-declaration-only='yes' id='type-id-489'>
        <member-function access='public'>
          <function-decl name='write&lt;mongo::LittleEndian&lt;unsigned int&gt; &gt;' mangled-name='_ZN5mongo8DataView5writeINS_12LittleEndianIjEEEERS0_RKT_m' filepath='src/mongo/base/data_view.h' line='82' column='1' visibility='default' binding='global' size-in-bits='64'>
            <parameter type-id='type-id-490' is-artificial='yes'/>
            <parameter type-id='type-id-366'/>
            <parameter type-id='type-id-39'/>
            <return type-id='type-id-115'/>
          </function-decl>
        </member-function>
      </class-decl>
      <class-decl name='__anonymous_struct__18' is-anonymous='yes' visibility='default' is-declaration-only='yes' id='type-id-491'>
        <member-type access='private'>
          <class-decl name='__anonymous_struct__' is-struct='yes' is-anonymous='yes' visibility='default' is-declaration-only='yes' id='type-id-586'>
            <member-function access='public'>
              <function-decl name='operator()' mangled-name='_ZN5mongo11DataBuilder7FreeBufclEPc' filepath='src/mongo/base/data_builder.h' line='56' column='1' visibility='default' binding='global' size-in-bits='64'>
                <parameter type-id='type-id-587' is-artificial='yes'/>
                <parameter type-id='type-id-55'/>
                <return type-id='type-id-193'/>
              </function-decl>
            </member-function>
          </class-decl>
        </member-type>
        <member-function access='public'>
          <function-decl name='DataBuilder' mangled-name='_ZN5mongo11DataBuilderC2Em' filepath='src/mongo/base/data_builder.h' line='69' column='1' visibility='default' binding='global' size-in-bits='64'>
            <parameter type-id='type-id-492' is-artificial='yes'/>
            <parameter type-id='type-id-39'/>
            <return type-id='type-id-193'/>
          </function-decl>
        </member-function>
        <member-function access='public'>
          <function-decl name='getCursor' mangled-name='_ZN5mongo11DataBuilder9getCursorEv' filepath='src/mongo/base/data_builder.h' line='132' column='1' visibility='default' binding='global' size-in-bits='64'>
            <parameter type-id='type-id-492' is-artificial='yes'/>
            <return type-id='type-id-507'/>
          </function-decl>
        </member-function>
        <member-function access='public'>
          <function-decl name='size' mangled-name='_ZNK5mongo11DataBuilder4sizeEv' filepath='src/mongo/base/data_builder.h' line='147' column='1' visibility='default' binding='global' size-in-bits='64'>
            <parameter type-id='type-id-545' is-artificial='yes'/>
            <return type-id='type-id-39'/>
          </function-decl>
        </member-function>
        <member-function access='private'>
          <function-decl name='_ensureStorage' mangled-name='_ZN5mongo11DataBuilder14_ensureStorageEv' filepath='src/mongo/base/data_builder.h' line='247' column='1' visibility='default' binding='global' size-in-bits='64'>
            <parameter type-id='type-id-492' is-artificial='yes'/>
            <return type-id='type-id-193'/>
          </function-decl>
        </member-function>
        <member-function access='private'>
          <function-decl name='_getSerializedSize&lt;mongo::FTDCVarInt&gt;' mangled-name='_ZN5mongo11DataBuilder18_getSerializedSizeINS_10FTDCVarIntEEEmRKT_' filepath='src/mongo/base/data_builder.h' line='235' column='1' visibility='default' binding='global' size-in-bits='64'>
            <parameter type-id='type-id-492' is-artificial='yes'/>
            <parameter type-id='type-id-366'/>
            <return type-id='type-id-39'/>
          </function-decl>
        </member-function>
        <member-function access='public'>
          <function-decl name='reserve' mangled-name='_ZN5mongo11DataBuilder7reserveEm' filepath='src/mongo/base/data_builder.h' line='192' column='1' visibility='default' binding='global' size-in-bits='64'>
            <parameter type-id='type-id-492' is-artificial='yes'/>
            <parameter type-id='type-id-39'/>
            <return type-id='type-id-193'/>
          </function-decl>
        </member-function>
        <member-function access='public'>
          <function-decl name='writeAndAdvance&lt;mongo::FTDCVarInt&gt;' mangled-name='_ZN5mongo11DataBuilder15writeAndAdvanceINS_10FTDCVarIntEEENS_6StatusERKT_' filepath='src/mongo/base/data_builder.h' line='110' column='1' visibility='default' binding='global' size-in-bits='64' elf-symbol-id='_ZN5mongo11DataBuilder15writeAndAdvanceINS_10FTDCVarIntEEENS_6StatusERKT_'>
            <parameter type-id='type-id-492' is-artificial='yes'/>
            <parameter type-id='type-id-366'/>
            <return type-id='type-id-445'/>
          </function-decl>
        </member-function>
        <member-function access='public'>
          <function-decl name='operator=' mangled-name='_ZN5mongo11DataBuilderaSEOS0_' filepath='src/mongo/base/data_builder.h' line='78' column='1' visibility='default' binding='global' size-in-bits='64'>
            <parameter type-id='type-id-492' is-artificial='yes'/>
            <parameter type-id='type-id-116'/>
            <return type-id='type-id-115'/>
          </function-decl>
        </member-function>
        <member-function access='public'>
          <function-decl name='resize' mangled-name='_ZN5mongo11DataBuilder6resizeEm' filepath='src/mongo/base/data_builder.h' line='166' column='1' visibility='default' binding='global' size-in-bits='64' elf-symbol-id='_ZN5mongo11DataBuilder6resizeEm'>
            <parameter type-id='type-id-492' is-artificial='yes'/>
            <parameter type-id='type-id-39'/>
            <return type-id='type-id-193'/>
          </function-decl>
        </member-function>
      </class-decl>
      <class-decl name='__anonymous_struct__2' is-anonymous='yes' visibility='default' is-declaration-only='yes' id='type-id-445'>
        <member-type access='private'>
          <class-decl name='__anonymous_struct__' is-struct='yes' is-anonymous='yes' visibility='default' is-declaration-only='yes' id='type-id-567'/>
        </member-type>
        <member-function access='public' destructor='yes'>
          <function-decl name='~Status' mangled-name='_ZN5mongo6StatusD2Ev' filepath='src/mongo/base/status.h' line='87' column='1' visibility='default' binding='global' size-in-bits='64'>
            <parameter type-id='type-id-446' is-artificial='yes'/>
            <return type-id='type-id-193'/>
          </function-decl>
        </member-function>
        <member-function access='private' static='yes'>
          <function-decl name='unref' mangled-name='_ZN5mongo6Status5unrefEPNS0_9ErrorInfoE' filepath='src/mongo/base/status.h' line='181' column='1' visibility='default' binding='global' size-in-bits='64'>
            <parameter type-id='type-id-568'/>
            <return type-id='type-id-193'/>
          </function-decl>
        </member-function>
        <member-function access='private'>
          <function-decl name='Status' mangled-name='_ZN5mongo6StatusC2Ev' filepath='src/mongo/base/status.h' line='161' column='1' visibility='default' binding='global' size-in-bits='64'>
            <parameter type-id='type-id-446' is-artificial='yes'/>
            <return type-id='type-id-193'/>
          </function-decl>
        </member-function>
        <member-function access='public' static='yes'>
          <function-decl name='OK' mangled-name='_ZN5mongo6Status2OKEv' filepath='src/mongo/base/status.h' line='66' column='1' visibility='default' binding='global' size-in-bits='64'>
            <return type-id='type-id-445'/>
          </function-decl>
        </member-function>
        <member-function access='public'>
          <function-decl name='isOK' mangled-name='_ZNK5mongo6Status4isOKEv' filepath='src/mongo/base/status.h' line='113' column='1' visibility='default' binding='global' size-in-bits='64'>
            <parameter type-id='type-id-536' is-artificial='yes'/>
            <return type-id='type-id-1'/>
          </function-decl>
        </member-function>
        <member-function access='private' static='yes'>
          <function-decl name='ref' mangled-name='_ZN5mongo6Status3refEPNS0_9ErrorInfoE' filepath='src/mongo/base/status.h' line='180' column='1' visibility='default' binding='global' size-in-bits='64'>
            <parameter type-id='type-id-568'/>
            <return type-id='type-id-193'/>
          </function-decl>
        </member-function>
        <member-function access='public'>
          <function-decl name='Status' mangled-name='_ZN5mongo6StatusC2ERKS0_' filepath='src/mongo/base/status.h' line='81' column='1' visibility='default' binding='global' size-in-bits='64'>
            <parameter type-id='type-id-446' is-artificial='yes'/>
            <parameter type-id='type-id-164'/>
            <return type-id='type-id-193'/>
          </function-decl>
        </member-function>
        <member-function access='public'>
          <function-decl name='Status' mangled-name='_ZN5mongo6StatusC2EOS0_' filepath='src/mongo/base/status.h' line='84' column='1' visibility='default' binding='global' size-in-bits='64'>
            <parameter type-id='type-id-446' is-artificial='yes'/>
            <parameter type-id='type-id-116'/>
            <return type-id='type-id-193'/>
          </function-decl>
        </member-function>
        <member-function access='public'>
          <function-decl name='operator=' mangled-name='_ZN5mongo6StatusaSEOS0_' filepath='src/mongo/base/status.h' line='85' column='1' visibility='default' binding='global' size-in-bits='64'>
            <parameter type-id='type-id-446' is-artificial='yes'/>
            <parameter type-id='type-id-116'/>
            <return type-id='type-id-115'/>
          </function-decl>
        </member-function>
      </class-decl>
      <class-decl name='__anonymous_struct__20' is-anonymous='yes' visibility='default' is-declaration-only='yes' id='type-id-507'>
        <member-function access='public'>
          <function-decl name='DataRangeCursor' mangled-name='_ZN5mongo15DataRangeCursorC2EPcS1_l' filepath='src/mongo/base/data_range_cursor.h' line='105' column='1' visibility='default' binding='global' size-in-bits='64'>
            <parameter type-id='type-id-508' is-artificial='yes'/>
            <parameter type-id='type-id-55'/>
            <parameter type-id='type-id-55'/>
            <parameter type-id='type-id-198'/>
            <return type-id='type-id-193'/>
          </function-decl>
        </member-function>
        <member-function access='public'>
          <function-decl name='writeAndAdvance&lt;mongo::FTDCVarInt&gt;' mangled-name='_ZN5mongo15DataRangeCursor15writeAndAdvanceINS_10FTDCVarIntEEENS_6StatusERKT_' filepath='src/mongo/base/data_range_cursor.h' line='166' column='1' visibility='default' binding='global' size-in-bits='64'>
            <parameter type-id='type-id-508' is-artificial='yes'/>
            <parameter type-id='type-id-366'/>
            <return type-id='type-id-445'/>
          </function-decl>
        </member-function>
      </class-decl>
      <class-decl name='__anonymous_struct__21' is-anonymous='yes' visibility='default' is-declaration-only='yes' id='type-id-497'>
        <member-function access='public'>
          <function-decl name='isOK' mangled-name='_ZNK5mongo10StatusWithINS_14ConstDataRangeEE4isOKEv' filepath='src/mongo/base/status_with.h' line='108' column='1' visibility='default' binding='global' size-in-bits='64'>
            <parameter type-id='type-id-547' is-artificial='yes'/>
            <return type-id='type-id-1'/>
          </function-decl>
        </member-function>
        <member-function access='public'>
          <function-decl name='getValue' mangled-name='_ZN5mongo10StatusWithINS_14ConstDataRangeEE8getValueEv' filepath='src/mongo/base/status_with.h' line='99' column='1' visibility='default' binding='global' size-in-bits='64'>
            <parameter type-id='type-id-498' is-artificial='yes'/>
            <return type-id='type-id-115'/>
          </function-decl>
        </member-function>
      </class-decl>
      <class-decl name='__anonymous_struct__22' is-anonymous='yes' visibility='default' is-declaration-only='yes' id='type-id-505'>
        <member-type access='private'>
          <typedef-decl name='bytes_type' type-id='type-id-55' filepath='src/mongo/base/data_range.h' line='113' column='1' id='type-id-618'/>
        </member-type>
        <member-function access='public'>
          <function-decl name='DataRange' mangled-name='_ZN5mongo9DataRangeC2EPcS1_l' filepath='src/mongo/base/data_range.h' line='115' column='1' visibility='default' binding='global' size-in-bits='64'>
            <parameter type-id='type-id-506' is-artificial='yes'/>
            <parameter type-id='type-id-618'/>
            <parameter type-id='type-id-618'/>
            <parameter type-id='type-id-198'/>
            <return type-id='type-id-193'/>
          </function-decl>
        </member-function>
      </class-decl>
      <class-decl name='__anonymous_struct__23' is-anonymous='yes' visibility='default' is-declaration-only='yes' id='type-id-512'>
        <member-function access='public'>
          <function-decl name='StringData' mangled-name='_ZN5mongo10StringDataC2EPKc' filepath='src/mongo/base/string_data.h' line='78' column='1' visibility='default' binding='global' size-in-bits='64'>
            <parameter type-id='type-id-513' is-artificial='yes'/>
            <parameter type-id='type-id-60'/>
            <return type-id='type-id-193'/>
          </function-decl>
        </member-function>
      </class-decl>
      <class-decl name='__anonymous_struct__3' is-anonymous='yes' visibility='default' is-declaration-only='yes' id='type-id-447'>
        <member-function access='public'>
          <function-decl name='fetchAndSubtract' mangled-name='_ZN5mongo10AtomicWordIjvE16fetchAndSubtractEj' filepath='src/mongo/platform/atomic_word.h' line='131' column='1' visibility='default' binding='global' size-in-bits='64'>
            <parameter type-id='type-id-448' is-artificial='yes'/>
            <parameter type-id='type-id-239'/>
            <return type-id='type-id-239'/>
          </function-decl>
        </member-function>
        <member-function access='public'>
          <function-decl name='subtractAndFetch' mangled-name='_ZN5mongo10AtomicWordIjvE16subtractAndFetchEj' filepath='src/mongo/platform/atomic_word.h' line='153' column='1' visibility='default' binding='global' size-in-bits='64'>
            <parameter type-id='type-id-448' is-artificial='yes'/>
            <parameter type-id='type-id-239'/>
            <return type-id='type-id-239'/>
          </function-decl>
        </member-function>
        <member-function access='public'>
          <function-decl name='fetchAndAdd' mangled-name='_ZN5mongo10AtomicWordIjvE11fetchAndAddEj' filepath='src/mongo/platform/atomic_word.h' line='120' column='1' visibility='default' binding='global' size-in-bits='64'>
            <parameter type-id='type-id-448' is-artificial='yes'/>
            <parameter type-id='type-id-239'/>
            <return type-id='type-id-239'/>
          </function-decl>
        </member-function>
        <member-function access='public'>
          <function-decl name='load' mangled-name='_ZNK5mongo10AtomicWordIjvE4loadEv' filepath='src/mongo/platform/atomic_word.h' line='66' column='1' visibility='default' binding='global' size-in-bits='64'>
            <parameter type-id='type-id-549' is-artificial='yes'/>
            <return type-id='type-id-239'/>
          </function-decl>
        </member-function>
        <member-function access='public'>
          <function-decl name='AtomicWord' mangled-name='_ZN5mongo10AtomicWordIjvEC2Ej' filepath='src/mongo/platform/atomic_word.h' line='59' column='1' visibility='default' binding='global' size-in-bits='64'>
            <parameter type-id='type-id-448' is-artificial='yes'/>
            <parameter type-id='type-id-239'/>
            <return type-id='type-id-193'/>
          </function-decl>
        </member-function>
      </class-decl>
      <class-decl name='__anonymous_struct__4' is-anonymous='yes' visibility='default' is-declaration-only='yes' id='type-id-451'>
        <member-function access='public'>
          <function-decl name='StatusWith' mangled-name='_ZN5mongo10StatusWithIN5boost8optionalISt5tupleIJNS_14ConstDataRangeENS_14FTDCCompressor15CompressorStateENS_6Date_tEEEEEEC2ES9_' filepath='src/mongo/base/status_with.h' line='92' column='1' visibility='default' binding='global' size-in-bits='64'>
            <parameter type-id='type-id-452' is-artificial='yes'/>
            <parameter type-id='type-id-455'/>
            <return type-id='type-id-193'/>
          </function-decl>
        </member-function>
        <member-function access='public'>
          <function-decl name='StatusWith' mangled-name='_ZN5mongo10StatusWithIN5boost8optionalISt5tupleIJNS_14ConstDataRangeENS_14FTDCCompressor15CompressorStateENS_6Date_tEEEEEEC2ENS_6StatusE' filepath='src/mongo/base/status_with.h' line='85' column='1' visibility='default' binding='global' size-in-bits='64'>
            <parameter type-id='type-id-452' is-artificial='yes'/>
            <parameter type-id='type-id-445'/>
            <return type-id='type-id-193'/>
          </function-decl>
        </member-function>
      </class-decl>
      <class-decl name='__anonymous_struct__5' is-anonymous='yes' visibility='default' is-declaration-only='yes' id='type-id-469'>
        <member-function access='public'>
          <function-decl name='isOK' mangled-name='_ZNK5mongo10StatusWithISt5tupleIJNS_14ConstDataRangeENS_6Date_tEEEE4isOKEv' filepath='src/mongo/base/status_with.h' line='108' column='1' visibility='default' binding='global' size-in-bits='64'>
            <parameter type-id='type-id-539' is-artificial='yes'/>
            <return type-id='type-id-1'/>
          </function-decl>
        </member-function>
        <member-function access='public'>
          <function-decl name='getValue' mangled-name='_ZN5mongo10StatusWithISt5tupleIJNS_14ConstDataRangeENS_6Date_tEEEE8getValueEv' filepath='src/mongo/base/status_with.h' line='99' column='1' visibility='default' binding='global' size-in-bits='64'>
            <parameter type-id='type-id-470' is-artificial='yes'/>
            <return type-id='type-id-115'/>
          </function-decl>
        </member-function>
        <member-function access='public'>
          <function-decl name='StatusWith' mangled-name='_ZN5mongo10StatusWithISt5tupleIJNS_14ConstDataRangeENS_6Date_tEEEEC2ES4_' filepath='src/mongo/base/status_with.h' line='92' column='1' visibility='default' binding='global' size-in-bits='64'>
            <parameter type-id='type-id-470' is-artificial='yes'/>
            <parameter type-id='type-id-501'/>
            <return type-id='type-id-193'/>
          </function-decl>
        </member-function>
        <member-function access='public'>
          <function-decl name='StatusWith' mangled-name='_ZN5mongo10StatusWithISt5tupleIJNS_14ConstDataRangeENS_6Date_tEEEEC2ENS_6StatusE' filepath='src/mongo/base/status_with.h' line='85' column='1' visibility='default' binding='global' size-in-bits='64'>
            <parameter type-id='type-id-470' is-artificial='yes'/>
            <parameter type-id='type-id-445'/>
            <return type-id='type-id-193'/>
          </function-decl>
        </member-function>
      </class-decl>
      <class-decl name='__anonymous_struct__6' is-anonymous='yes' visibility='default' is-declaration-only='yes' id='type-id-483'>
        <member-function access='public' static='yes'>
          <function-decl name='getArrayOffset' mangled-name='_ZN5mongo14FTDCCompressor14getArrayOffsetEjjj' filepath='src/mongo/db/ftdc/compressor.h' line='140' column='1' visibility='default' binding='global' size-in-bits='64'>
            <parameter type-id='type-id-432'/>
            <parameter type-id='type-id-432'/>
            <parameter type-id='type-id-432'/>
            <return type-id='type-id-39'/>
          </function-decl>
        </member-function>
        <member-function access='public'>
          <function-decl name='addSample' mangled-name='_ZN5mongo14FTDCCompressor9addSampleERKNS_7BSONObjENS_6Date_tE' filepath='src/mongo/db/ftdc/compressor.h' line='95' column='1' visibility='default' binding='global' size-in-bits='64' elf-symbol-id='_ZN5mongo14FTDCCompressor9addSampleERKNS_7BSONObjENS_6Date_tE'>
            <parameter type-id='type-id-484' is-artificial='yes'/>
            <parameter type-id='type-id-164'/>
            <parameter type-id='type-id-619'/>
            <return type-id='type-id-451'/>
          </function-decl>
        </member-function>
        <member-function access='private'>
          <function-decl name='_reset' mangled-name='_ZN5mongo14FTDCCompressor6_resetERKNS_7BSONObjENS_6Date_tE' filepath='src/mongo/db/ftdc/compressor.h' line='150' column='1' visibility='default' binding='global' size-in-bits='64' elf-symbol-id='_ZN5mongo14FTDCCompressor6_resetERKNS_7BSONObjENS_6Date_tE'>
            <parameter type-id='type-id-484' is-artificial='yes'/>
            <parameter type-id='type-id-164'/>
            <parameter type-id='type-id-619'/>
            <return type-id='type-id-193'/>
          </function-decl>
        </member-function>
        <member-function access='public'>
          <function-decl name='getCompressedSamples' mangled-name='_ZN5mongo14FTDCCompressor20getCompressedSamplesEv' filepath='src/mongo/db/ftdc/compressor.h' line='128' column='1' visibility='default' binding='global' size-in-bits='64' elf-symbol-id='_ZN5mongo14FTDCCompressor20getCompressedSamplesEv'>
            <parameter type-id='type-id-484' is-artificial='yes'/>
            <return type-id='type-id-469'/>
          </function-decl>
        </member-function>
        <member-function access='public'>
          <function-decl name='reset' mangled-name='_ZN5mongo14FTDCCompressor5resetEv' filepath='src/mongo/db/ftdc/compressor.h' line='135' column='1' visibility='default' binding='global' size-in-bits='64' elf-symbol-id='_ZN5mongo14FTDCCompressor5resetEv'>
            <parameter type-id='type-id-484' is-artificial='yes'/>
            <return type-id='type-id-193'/>
          </function-decl>
        </member-function>
      </class-decl>
      <class-decl name='__anonymous_struct__7' is-anonymous='yes' visibility='default' is-declaration-only='yes' id='type-id-619'/>
      <class-decl name='__anonymous_struct__8' is-anonymous='yes' visibility='default' is-declaration-only='yes' id='type-id-495'>
        <member-function access='public'>
          <function-decl name='ConstDataRange' mangled-name='_ZN5mongo14ConstDataRangeC2EPKcml' filepath='src/mongo/base/data_range.h' line='57' column='1' visibility='default' binding='global' size-in-bits='64'>
            <parameter type-id='type-id-496' is-artificial='yes'/>
            <parameter type-id='type-id-60'/>
            <parameter type-id='type-id-39'/>
            <parameter type-id='type-id-198'/>
            <return type-id='type-id-193'/>
          </function-decl>
        </member-function>
        <member-function access='public'>
          <function-decl name='ConstDataRange' mangled-name='_ZN5mongo14ConstDataRangeC2EPKcS2_l' filepath='src/mongo/base/data_range.h' line='52' column='1' visibility='default' binding='global' size-in-bits='64'>
            <parameter type-id='type-id-496' is-artificial='yes'/>
            <parameter type-id='type-id-60'/>
            <parameter type-id='type-id-60'/>
            <parameter type-id='type-id-198'/>
            <return type-id='type-id-193'/>
          </function-decl>
        </member-function>
        <member-function access='public'>
          <function-decl name='data' mangled-name='_ZNK5mongo14ConstDataRange4dataEv' filepath='src/mongo/base/data_range.h' line='60' column='1' visibility='default' binding='global' size-in-bits='64'>
            <parameter type-id='type-id-548' is-artificial='yes'/>
            <return type-id='type-id-60'/>
          </function-decl>
        </member-function>
        <member-function access='public'>
          <function-decl name='length' mangled-name='_ZNK5mongo14ConstDataRange6lengthEv' filepath='src/mongo/base/data_range.h' line='64' column='1' visibility='default' binding='global' size-in-bits='64'>
            <parameter type-id='type-id-548' is-artificial='yes'/>
            <return type-id='type-id-39'/>
          </function-decl>
        </member-function>
      </class-decl>
      <class-decl name='__anonymous_struct__9' is-anonymous='yes' visibility='default' is-declaration-only='yes' id='type-id-477'>
        <member-type access='private'>
          <class-decl name='__anonymous_struct__' is-anonymous='yes' visibility='default' is-declaration-only='yes' id='type-id-487'>
            <member-function access='public'>
              <function-decl name='data' mangled-name='_ZN5mongo12SharedBuffer6Holder4dataEv' filepath='src/mongo/util/shared_buffer.h' line='121' column='1' visibility='default' binding='global' size-in-bits='64'>
                <parameter type-id='type-id-488' is-artificial='yes'/>
                <return type-id='type-id-55'/>
              </function-decl>
            </member-function>
            <member-function access='public'>
              <function-decl name='isShared' mangled-name='_ZNK5mongo12SharedBuffer6Holder8isSharedEv' filepath='src/mongo/util/shared_buffer.h' line='129' column='1' visibility='default' binding='global' size-in-bits='64'>
                <parameter type-id='type-id-550' is-artificial='yes'/>
                <return type-id='type-id-1'/>
              </function-decl>
            </member-function>
            <member-function access='public'>
              <function-decl name='Holder' mangled-name='_ZN5mongo12SharedBuffer6HolderC2Ejm' filepath='src/mongo/util/shared_buffer.h' line='102' column='1' visibility='default' binding='global' size-in-bits='64'>
                <parameter type-id='type-id-488' is-artificial='yes'/>
                <parameter type-id='type-id-239'/>
                <parameter type-id='type-id-39'/>
                <return type-id='type-id-193'/>
              </function-decl>
            </member-function>
          </class-decl>
        </member-type>
        <member-function access='public'>
          <function-decl name='swap' mangled-name='_ZN5mongo12SharedBuffer4swapERS0_' filepath='src/mongo/util/shared_buffer.h' line='46' column='1' visibility='default' binding='global' size-in-bits='64'>
            <parameter type-id='type-id-478' is-artificial='yes'/>
            <parameter type-id='type-id-115'/>
            <return type-id='type-id-193'/>
          </function-decl>
        </member-function>
        <member-function access='public'>
          <function-decl name='get' mangled-name='_ZNK5mongo12SharedBuffer3getEv' filepath='src/mongo/util/shared_buffer.h' line='75' column='1' visibility='default' binding='global' size-in-bits='64'>
            <parameter type-id='type-id-542' is-artificial='yes'/>
            <return type-id='type-id-55'/>
          </function-decl>
        </member-function>
        <member-function access='public'>
          <function-decl name='SharedBuffer' mangled-name='_ZN5mongo12SharedBufferC2Ev' filepath='src/mongo/util/shared_buffer.h' line='44' column='1' visibility='default' binding='global' size-in-bits='64'>
            <parameter type-id='type-id-478' is-artificial='yes'/>
            <return type-id='type-id-193'/>
          </function-decl>
        </member-function>
        <member-function access='public'>
          <function-decl name='realloc' mangled-name='_ZN5mongo12SharedBuffer7reallocEm' filepath='src/mongo/util/shared_buffer.h' line='62' column='1' visibility='default' binding='global' size-in-bits='64'>
            <parameter type-id='type-id-478' is-artificial='yes'/>
            <parameter type-id='type-id-39'/>
            <return type-id='type-id-193'/>
          </function-decl>
        </member-function>
        <member-function access='private' static='yes'>
          <function-decl name='takeOwnership' mangled-name='_ZN5mongo12SharedBuffer13takeOwnershipEPvm' filepath='src/mongo/util/shared_buffer.h' line='149' column='1' visibility='default' binding='global' size-in-bits='64'>
            <parameter type-id='type-id-187'/>
            <parameter type-id='type-id-39'/>
            <return type-id='type-id-477'/>
          </function-decl>
        </member-function>
      </class-decl>
      <class-decl name='__anonymous_struct__12' is-struct='yes' is-anonymous='yes' visibility='default' is-declaration-only='yes' id='type-id-620'>
        <member-type access='public'>
          <class-decl name='__anonymous_struct__' is-struct='yes' is-anonymous='yes' visibility='default' is-declaration-only='yes' id='type-id-621'>
            <member-function access='public' static='yes'>
              <function-decl name='unsafeLoad' mangled-name='_ZN5mongo8DataType7HandlerIivE10unsafeLoadEPiPKcPm' filepath='src/mongo/base/data_type.h' line='59' column='1' visibility='default' binding='global' size-in-bits='64'>
                <parameter type-id='type-id-91'/>
                <parameter type-id='type-id-60'/>
                <parameter type-id='type-id-267'/>
                <return type-id='type-id-193'/>
              </function-decl>
            </member-function>
          </class-decl>
        </member-type>
        <member-type access='public'>
          <class-decl name='__anonymous_struct__1' is-struct='yes' is-anonymous='yes' visibility='default' is-declaration-only='yes' id='type-id-622'>
            <member-function access='public' static='yes'>
              <function-decl name='unsafeLoad' mangled-name='_ZN5mongo8DataType7HandlerINS_12LittleEndianIiEEvE10unsafeLoadEPS3_PKcPm' filepath='src/mongo/base/data_type_endian.h' line='86' column='1' visibility='default' binding='global' size-in-bits='64'>
                <parameter type-id='type-id-584'/>
                <parameter type-id='type-id-60'/>
                <parameter type-id='type-id-267'/>
                <return type-id='type-id-193'/>
              </function-decl>
            </member-function>
          </class-decl>
        </member-type>
        <member-type access='public'>
          <class-decl name='__anonymous_struct__2' is-struct='yes' is-anonymous='yes' visibility='default' is-declaration-only='yes' id='type-id-623'>
            <member-function access='public' static='yes'>
              <function-decl name='unsafeStore' mangled-name='_ZN5mongo8DataType7HandlerIjvE11unsafeStoreERKjPcPm' filepath='src/mongo/base/data_type.h' line='87' column='1' visibility='default' binding='global' size-in-bits='64'>
                <parameter type-id='type-id-438'/>
                <parameter type-id='type-id-55'/>
                <parameter type-id='type-id-267'/>
                <return type-id='type-id-193'/>
              </function-decl>
            </member-function>
          </class-decl>
        </member-type>
        <member-type access='public'>
          <class-decl name='__anonymous_struct__3' is-struct='yes' is-anonymous='yes' visibility='default' is-declaration-only='yes' id='type-id-624'>
            <member-function access='public' static='yes'>
              <function-decl name='unsafeStore' mangled-name='_ZN5mongo8DataType7HandlerINS_12LittleEndianIjEEvE11unsafeStoreERKS3_PcPm' filepath='src/mongo/base/data_type_endian.h' line='112' column='1' visibility='default' binding='global' size-in-bits='64'>
                <parameter type-id='type-id-366'/>
                <parameter type-id='type-id-55'/>
                <parameter type-id='type-id-267'/>
                <return type-id='type-id-193'/>
              </function-decl>
            </member-function>
          </class-decl>
        </member-type>
        <member-function access='public' static='yes'>
          <function-decl name='unsafeLoad&lt;int&gt;' mangled-name='_ZN5mongo8DataType10unsafeLoadIiEEvPT_PKcPm' filepath='src/mongo/base/data_type.h' line='150' column='1' visibility='default' binding='global' size-in-bits='64'>
            <parameter type-id='type-id-91'/>
            <parameter type-id='type-id-60'/>
            <parameter type-id='type-id-267'/>
            <return type-id='type-id-193'/>
          </function-decl>
        </member-function>
        <member-function access='public' static='yes'>
          <function-decl name='unsafeLoad&lt;mongo::LittleEndian&lt;int&gt; &gt;' mangled-name='_ZN5mongo8DataType10unsafeLoadINS_12LittleEndianIiEEEEvPT_PKcPm' filepath='src/mongo/base/data_type.h' line='150' column='1' visibility='default' binding='global' size-in-bits='64'>
            <parameter type-id='type-id-584'/>
            <parameter type-id='type-id-60'/>
            <parameter type-id='type-id-267'/>
            <return type-id='type-id-193'/>
          </function-decl>
        </member-function>
        <member-function access='public' static='yes'>
          <function-decl name='unsafeStore&lt;unsigned int&gt;' mangled-name='_ZN5mongo8DataType11unsafeStoreIjEEvRKT_PcPm' filepath='src/mongo/base/data_type.h' line='155' column='1' visibility='default' binding='global' size-in-bits='64'>
            <parameter type-id='type-id-438'/>
            <parameter type-id='type-id-55'/>
            <parameter type-id='type-id-267'/>
            <return type-id='type-id-193'/>
          </function-decl>
        </member-function>
        <member-function access='public' static='yes'>
          <function-decl name='unsafeStore&lt;mongo::LittleEndian&lt;unsigned int&gt; &gt;' mangled-name='_ZN5mongo8DataType11unsafeStoreINS_12LittleEndianIjEEEEvRKT_PcPm' filepath='src/mongo/base/data_type.h' line='155' column='1' visibility='default' binding='global' size-in-bits='64'>
            <parameter type-id='type-id-366'/>
            <parameter type-id='type-id-55'/>
            <parameter type-id='type-id-267'/>
            <return type-id='type-id-193'/>
          </function-decl>
        </member-function>
        <member-function access='public' static='yes'>
          <function-decl name='store&lt;mongo::FTDCVarInt&gt;' mangled-name='_ZN5mongo8DataType5storeINS_10FTDCVarIntEEENS_6StatusERKT_PcmPml' filepath='src/mongo/base/data_type.h' line='144' column='1' visibility='default' binding='global' size-in-bits='64'>
            <parameter type-id='type-id-366'/>
            <parameter type-id='type-id-55'/>
            <parameter type-id='type-id-39'/>
            <parameter type-id='type-id-267'/>
            <parameter type-id='type-id-198'/>
            <return type-id='type-id-445'/>
          </function-decl>
        </member-function>
      </class-decl>
      <class-decl name='__anonymous_struct__13' is-struct='yes' is-anonymous='yes' visibility='default' is-declaration-only='yes' id='type-id-583'/>
      <class-decl name='__anonymous_struct__16' is-struct='yes' is-anonymous='yes' visibility='default' is-declaration-only='yes' id='type-id-553'/>
      <class-decl name='__anonymous_struct__19' is-struct='yes' is-anonymous='yes' visibility='default' is-declaration-only='yes' id='type-id-555'>
        <member-function access='public'>
          <function-decl name='FTDCVarInt' mangled-name='_ZN5mongo10FTDCVarIntC2Em' filepath='src/mongo/db/ftdc/varint.h' line='53' column='1' visibility='default' binding='global' size-in-bits='64'>
            <parameter type-id='type-id-585' is-artificial='yes'/>
            <parameter type-id='type-id-433'/>
            <return type-id='type-id-193'/>
          </function-decl>
        </member-function>
      </class-decl>
    </namespace-decl>
    <namespace-decl name='boost'>
      <class-decl name='__anonymous_struct__' is-anonymous='yes' visibility='default' is-declaration-only='yes' id='type-id-455'>
        <member-function access='public'>
          <function-decl name='optional' mangled-name='_ZN5boost8optionalISt5tupleIJN5mongo14ConstDataRangeENS2_14FTDCCompressor15CompressorStateENS2_6Date_tEEEEC2EOS8_' filepath='src/third_party/boost-1.60.0/boost/optional/optional.hpp' line='870' column='1' visibility='default' binding='global' size-in-bits='64'>
            <parameter type-id='type-id-456' is-artificial='yes'/>
            <parameter type-id='type-id-116'/>
            <return type-id='type-id-193'/>
          </function-decl>
        </member-function>
      </class-decl>
      <class-decl name='__anonymous_struct__1' is-anonymous='yes' visibility='default' is-declaration-only='yes' id='type-id-459'>
        <member-type access='private'>
          <typedef-decl name='rval_reference_type' type-id='type-id-626' filepath='src/third_party/boost-1.60.0/boost/optional/optional.hpp' line='777' column='1' id='type-id-625'/>
        </member-type>
        <member-function access='public'>
          <function-decl name='optional' mangled-name='_ZN5boost8optionalINS0_ISt5tupleIJN5mongo14ConstDataRangeENS2_14FTDCCompressor15CompressorStateENS2_6Date_tEEEEEEC2EOS8_' filepath='src/third_party/boost-1.60.0/boost/optional/optional.hpp' line='799' column='1' visibility='default' binding='global' size-in-bits='64'>
            <parameter type-id='type-id-460' is-artificial='yes'/>
            <parameter type-id='type-id-625'/>
            <return type-id='type-id-193'/>
          </function-decl>
        </member-function>
        <member-function access='public'>
          <function-decl name='optional' mangled-name='_ZN5boost8optionalINS0_ISt5tupleIJN5mongo14ConstDataRangeENS2_14FTDCCompressor15CompressorStateENS2_6Date_tEEEEEEC2Ev' filepath='src/third_party/boost-1.60.0/boost/optional/optional.hpp' line='786' column='1' visibility='default' binding='global' size-in-bits='64'>
            <parameter type-id='type-id-460' is-artificial='yes'/>
            <return type-id='type-id-193'/>
          </function-decl>
        </member-function>
      </class-decl>
      <class-decl name='__anonymous_struct__2' is-anonymous='yes' visibility='default' is-declaration-only='yes' id='type-id-465'>
        <member-type access='private'>
          <typedef-decl name='reference_type' type-id='type-id-628' filepath='src/third_party/boost-1.60.0/boost/optional/optional.hpp' line='774' column='1' id='type-id-627'/>
        </member-type>
        <member-function access='public'>
          <function-decl name='get' mangled-name='_ZN5boost8optionalIbE3getEv' filepath='src/third_party/boost-1.60.0/boost/optional/optional.hpp' line='1025' column='1' visibility='default' binding='global' size-in-bits='64'>
            <parameter type-id='type-id-466' is-artificial='yes'/>
            <return type-id='type-id-627'/>
          </function-decl>
        </member-function>
        <member-function access='public'>
          <function-decl name='operator*' mangled-name='_ZNR5boost8optionalIbEdeEv' filepath='src/third_party/boost-1.60.0/boost/optional/optional.hpp' line='1042' column='1' visibility='default' binding='global' size-in-bits='64'>
            <parameter type-id='type-id-466' is-artificial='yes'/>
            <return type-id='type-id-627'/>
          </function-decl>
        </member-function>
      </class-decl>
      <class-decl name='__anonymous_struct__3' is-anonymous='yes' visibility='default' is-declaration-only='yes' id='type-id-471'>
        <member-type access='private'>
          <typedef-decl name='reference_type' type-id='type-id-630' filepath='src/third_party/boost-1.60.0/boost/optional/optional.hpp' line='774' column='1' id='type-id-629'/>
        </member-type>
        <member-type access='private'>
          <typedef-decl name='rval_reference_type' type-id='type-id-632' filepath='src/third_party/boost-1.60.0/boost/optional/optional.hpp' line='777' column='1' id='type-id-631'/>
        </member-type>
        <member-function access='public'>
          <function-decl name='get' mangled-name='_ZN5boost8optionalISt5tupleIJN5mongo14ConstDataRangeENS2_6Date_tEEEE3getEv' filepath='src/third_party/boost-1.60.0/boost/optional/optional.hpp' line='1025' column='1' visibility='default' binding='global' size-in-bits='64'>
            <parameter type-id='type-id-472' is-artificial='yes'/>
            <return type-id='type-id-629'/>
          </function-decl>
        </member-function>
        <member-function access='public'>
          <function-decl name='operator*' mangled-name='_ZNR5boost8optionalISt5tupleIJN5mongo14ConstDataRangeENS2_6Date_tEEEEdeEv' filepath='src/third_party/boost-1.60.0/boost/optional/optional.hpp' line='1042' column='1' visibility='default' binding='global' size-in-bits='64'>
            <parameter type-id='type-id-472' is-artificial='yes'/>
            <return type-id='type-id-629'/>
          </function-decl>
        </member-function>
        <member-function access='public'>
          <function-decl name='optional' mangled-name='_ZN5boost8optionalISt5tupleIJN5mongo14ConstDataRangeENS2_6Date_tEEEEC2Ev' filepath='src/third_party/boost-1.60.0/boost/optional/optional.hpp' line='786' column='1' visibility='default' binding='global' size-in-bits='64'>
            <parameter type-id='type-id-472' is-artificial='yes'/>
            <return type-id='type-id-193'/>
          </function-decl>
        </member-function>
        <member-function access='public'>
          <function-decl name='optional' mangled-name='_ZN5boost8optionalISt5tupleIJN5mongo14ConstDataRangeENS2_6Date_tEEEEC2EOS5_' filepath='src/third_party/boost-1.60.0/boost/optional/optional.hpp' line='799' column='1' visibility='default' binding='global' size-in-bits='64'>
            <parameter type-id='type-id-472' is-artificial='yes'/>
            <parameter type-id='type-id-631'/>
            <return type-id='type-id-193'/>
          </function-decl>
        </member-function>
      </class-decl>
      <class-decl name='__anonymous_struct__4' is-anonymous='yes' visibility='default' is-declaration-only='yes' id='type-id-475'>
        <member-function access='public'>
          <function-decl name='swap' mangled-name='_ZN5boost13intrusive_ptrIN5mongo12SharedBuffer6HolderEE4swapERS4_' filepath='src/third_party/boost-1.60.0/boost/smart_ptr/intrusive_ptr.hpp' line='181' column='1' visibility='default' binding='global' size-in-bits='64'>
            <parameter type-id='type-id-476' is-artificial='yes'/>
            <parameter type-id='type-id-115'/>
            <return type-id='type-id-193'/>
          </function-decl>
        </member-function>
        <member-function access='public' destructor='yes'>
          <function-decl name='~intrusive_ptr' mangled-name='_ZN5boost13intrusive_ptrIN5mongo12SharedBuffer6HolderEED2Ev' filepath='src/third_party/boost-1.60.0/boost/smart_ptr/intrusive_ptr.hpp' line='95' column='1' visibility='default' binding='global' size-in-bits='64'>
            <parameter type-id='type-id-476' is-artificial='yes'/>
            <return type-id='type-id-193'/>
          </function-decl>
        </member-function>
        <member-function access='public'>
          <function-decl name='intrusive_ptr' mangled-name='_ZN5boost13intrusive_ptrIN5mongo12SharedBuffer6HolderEEC2ERKS4_' filepath='src/third_party/boost-1.60.0/boost/smart_ptr/intrusive_ptr.hpp' line='90' column='1' visibility='default' binding='global' size-in-bits='64'>
            <parameter type-id='type-id-476' is-artificial='yes'/>
            <parameter type-id='type-id-164'/>
            <return type-id='type-id-193'/>
          </function-decl>
        </member-function>
        <member-function access='public'>
          <function-decl name='operator bool' mangled-name='_ZNK5boost13intrusive_ptrIN5mongo12SharedBuffer6HolderEEcvbEv' filepath='src/third_party/boost-1.60.0/boost/smart_ptr/detail/operator_bool.hpp' line='12' column='1' visibility='default' binding='global' size-in-bits='64'>
            <parameter type-id='type-id-541' is-artificial='yes'/>
            <return type-id='type-id-1'/>
          </function-decl>
        </member-function>
        <member-function access='public'>
          <function-decl name='intrusive_ptr' mangled-name='_ZN5boost13intrusive_ptrIN5mongo12SharedBuffer6HolderEEC2Ev' filepath='src/third_party/boost-1.60.0/boost/smart_ptr/intrusive_ptr.hpp' line='62' column='1' visibility='default' binding='global' size-in-bits='64'>
            <parameter type-id='type-id-476' is-artificial='yes'/>
            <return type-id='type-id-193'/>
          </function-decl>
        </member-function>
        <member-function access='public'>
          <function-decl name='operator!' mangled-name='_ZNK5boost13intrusive_ptrIN5mongo12SharedBuffer6HolderEEntEv' filepath='src/third_party/boost-1.60.0/boost/smart_ptr/detail/operator_bool.hpp' line='61' column='1' visibility='default' binding='global' size-in-bits='64'>
            <parameter type-id='type-id-541' is-artificial='yes'/>
            <return type-id='type-id-1'/>
          </function-decl>
        </member-function>
        <member-function access='public'>
          <function-decl name='get' mangled-name='_ZNK5boost13intrusive_ptrIN5mongo12SharedBuffer6HolderEE3getEv' filepath='src/third_party/boost-1.60.0/boost/smart_ptr/intrusive_ptr.hpp' line='154' column='1' visibility='default' binding='global' size-in-bits='64'>
            <parameter type-id='type-id-541' is-artificial='yes'/>
            <return type-id='type-id-511'/>
          </function-decl>
        </member-function>
        <member-function access='public'>
          <function-decl name='operator=' mangled-name='_ZN5boost13intrusive_ptrIN5mongo12SharedBuffer6HolderEEaSEOS4_' filepath='src/third_party/boost-1.60.0/boost/smart_ptr/intrusive_ptr.hpp' line='119' column='1' visibility='default' binding='global' size-in-bits='64'>
            <parameter type-id='type-id-476' is-artificial='yes'/>
            <parameter type-id='type-id-116'/>
            <return type-id='type-id-115'/>
          </function-decl>
        </member-function>
      </class-decl>
      <class-decl name='__anonymous_struct__5' is-anonymous='yes' visibility='default' is-declaration-only='yes' id='type-id-499'>
        <member-type access='private'>
          <typedef-decl name='reference_type' type-id='type-id-634' filepath='src/third_party/boost-1.60.0/boost/optional/optional.hpp' line='774' column='1' id='type-id-633'/>
        </member-type>
        <member-function access='public'>
          <function-decl name='get' mangled-name='_ZN5boost8optionalIN5mongo14ConstDataRangeEE3getEv' filepath='src/third_party/boost-1.60.0/boost/optional/optional.hpp' line='1025' column='1' visibility='default' binding='global' size-in-bits='64'>
            <parameter type-id='type-id-500' is-artificial='yes'/>
            <return type-id='type-id-633'/>
          </function-decl>
        </member-function>
        <member-function access='public'>
          <function-decl name='operator*' mangled-name='_ZNR5boost8optionalIN5mongo14ConstDataRangeEEdeEv' filepath='src/third_party/boost-1.60.0/boost/optional/optional.hpp' line='1042' column='1' visibility='default' binding='global' size-in-bits='64'>
            <parameter type-id='type-id-500' is-artificial='yes'/>
            <return type-id='type-id-633'/>
          </function-decl>
        </member-function>
      </class-decl>
      <namespace-decl name='optional_detail'>
        <class-decl name='__anonymous_struct__' is-anonymous='yes' visibility='default' is-declaration-only='yes' id='type-id-443'>
          <member-type access='private'>
            <typedef-decl name='reference_type' type-id='type-id-635' filepath='src/third_party/boost-1.60.0/boost/optional/optional.hpp' line='227' column='1' id='type-id-628'/>
          </member-type>
          <member-function access='protected'>
            <function-decl name='destroy' mangled-name='_ZN5boost15optional_detail13optional_baseIbE7destroyEv' filepath='src/third_party/boost-1.60.0/boost/optional/optional.hpp' line='704' column='1' visibility='default' binding='global' size-in-bits='64'>
              <parameter type-id='type-id-444' is-artificial='yes'/>
              <return type-id='type-id-193'/>
            </function-decl>
          </member-function>
          <member-function access='protected' destructor='yes'>
            <function-decl name='~optional_base' mangled-name='_ZN5boost15optional_detail13optional_baseIbED2Ev' filepath='src/third_party/boost-1.60.0/boost/optional/optional.hpp' line='327' column='1' visibility='default' binding='global' size-in-bits='64'>
              <parameter type-id='type-id-444' is-artificial='yes'/>
              <return type-id='type-id-193'/>
            </function-decl>
          </member-function>
          <member-function access='private'>
            <function-decl name='destroy_impl' mangled-name='_ZN5boost15optional_detail13optional_baseIbE12destroy_implEN4mpl_5bool_ILb0EEE' filepath='src/third_party/boost-1.60.0/boost/optional/optional.hpp' line='745' column='1' visibility='default' binding='global' size-in-bits='64'>
              <parameter type-id='type-id-444' is-artificial='yes'/>
              <parameter type-id='type-id-636'/>
              <return type-id='type-id-193'/>
            </function-decl>
          </member-function>
          <member-function access='public'>
            <function-decl name='is_initialized' mangled-name='_ZNK5boost15optional_detail13optional_baseIbE14is_initializedEv' filepath='src/third_party/boost-1.60.0/boost/optional/optional.hpp' line='468' column='1' visibility='default' binding='global' size-in-bits='64'>
              <parameter type-id='type-id-538' is-artificial='yes'/>
              <return type-id='type-id-1'/>
            </function-decl>
          </member-function>
        </class-decl>
        <class-decl name='__anonymous_struct__1' is-anonymous='yes' visibility='default' is-declaration-only='yes' id='type-id-453'>
          <member-type access='private'>
            <typedef-decl name='rval_reference_type' type-id='type-id-638' filepath='src/third_party/boost-1.60.0/boost/optional/optional.hpp' line='230' column='1' id='type-id-637'/>
          </member-type>
          <member-function access='protected'>
            <function-decl name='optional_base' mangled-name='_ZN5boost15optional_detail13optional_baseISt5tupleIJN5mongo14ConstDataRangeENS3_14FTDCCompressor15CompressorStateENS3_6Date_tEEEEC2EOS9_' filepath='src/third_party/boost-1.60.0/boost/optional/optional.hpp' line='292' column='1' visibility='default' binding='global' size-in-bits='64'>
              <parameter type-id='type-id-454' is-artificial='yes'/>
              <parameter type-id='type-id-116'/>
              <return type-id='type-id-193'/>
            </function-decl>
          </member-function>
          <member-function access='protected'>
            <function-decl name='construct' mangled-name='_ZN5boost15optional_detail13optional_baseISt5tupleIJN5mongo14ConstDataRangeENS3_14FTDCCompressor15CompressorStateENS3_6Date_tEEEE9constructEOS8_' filepath='src/third_party/boost-1.60.0/boost/optional/optional.hpp' line='479' column='1' visibility='default' binding='global' size-in-bits='64'>
              <parameter type-id='type-id-454' is-artificial='yes'/>
              <parameter type-id='type-id-637'/>
              <return type-id='type-id-193'/>
            </function-decl>
          </member-function>
        </class-decl>
        <class-decl name='__anonymous_struct__2' is-anonymous='yes' visibility='default' is-declaration-only='yes' id='type-id-457'>
          <member-type access='private'>
            <typedef-decl name='rval_reference_type' type-id='type-id-639' filepath='src/third_party/boost-1.60.0/boost/optional/optional.hpp' line='230' column='1' id='type-id-626'/>
          </member-type>
          <member-function access='protected'>
            <function-decl name='construct' mangled-name='_ZN5boost15optional_detail13optional_baseINS_8optionalISt5tupleIJN5mongo14ConstDataRangeENS4_14FTDCCompressor15CompressorStateENS4_6Date_tEEEEEE9constructEOSA_' filepath='src/third_party/boost-1.60.0/boost/optional/optional.hpp' line='479' column='1' visibility='default' binding='global' size-in-bits='64'>
              <parameter type-id='type-id-458' is-artificial='yes'/>
              <parameter type-id='type-id-626'/>
              <return type-id='type-id-193'/>
            </function-decl>
          </member-function>
          <member-function access='protected'>
            <function-decl name='optional_base' mangled-name='_ZN5boost15optional_detail13optional_baseINS_8optionalISt5tupleIJN5mongo14ConstDataRangeENS4_14FTDCCompressor15CompressorStateENS4_6Date_tEEEEEEC2EOSA_' filepath='src/third_party/boost-1.60.0/boost/optional/optional.hpp' line='261' column='1' visibility='default' binding='global' size-in-bits='64'>
              <parameter type-id='type-id-458' is-artificial='yes'/>
              <parameter type-id='type-id-626'/>
              <return type-id='type-id-193'/>
            </function-decl>
          </member-function>
          <member-function access='protected'>
            <function-decl name='optional_base' mangled-name='_ZN5boost15optional_detail13optional_baseINS_8optionalISt5tupleIJN5mongo14ConstDataRangeENS4_14FTDCCompressor15CompressorStateENS4_6Date_tEEEEEEC2Ev' filepath='src/third_party/boost-1.60.0/boost/optional/optional.hpp' line='239' column='1' visibility='default' binding='global' size-in-bits='64'>
              <parameter type-id='type-id-458' is-artificial='yes'/>
              <return type-id='type-id-193'/>
            </function-decl>
          </member-function>
        </class-decl>
        <class-decl name='__anonymous_struct__5' is-anonymous='yes' visibility='default' is-declaration-only='yes' id='type-id-467'>
          <member-type access='private'>
            <typedef-decl name='reference_type' type-id='type-id-640' filepath='src/third_party/boost-1.60.0/boost/optional/optional.hpp' line='227' column='1' id='type-id-630'/>
          </member-type>
          <member-type access='private'>
            <typedef-decl name='rval_reference_type' type-id='type-id-641' filepath='src/third_party/boost-1.60.0/boost/optional/optional.hpp' line='230' column='1' id='type-id-632'/>
          </member-type>
          <member-function access='protected'>
            <function-decl name='destroy' mangled-name='_ZN5boost15optional_detail13optional_baseISt5tupleIJN5mongo14ConstDataRangeENS3_6Date_tEEEE7destroyEv' filepath='src/third_party/boost-1.60.0/boost/optional/optional.hpp' line='704' column='1' visibility='default' binding='global' size-in-bits='64'>
              <parameter type-id='type-id-468' is-artificial='yes'/>
              <return type-id='type-id-193'/>
            </function-decl>
          </member-function>
          <member-function access='protected' destructor='yes'>
            <function-decl name='~optional_base' mangled-name='_ZN5boost15optional_detail13optional_baseISt5tupleIJN5mongo14ConstDataRangeENS3_6Date_tEEEED2Ev' filepath='src/third_party/boost-1.60.0/boost/optional/optional.hpp' line='327' column='1' visibility='default' binding='global' size-in-bits='64'>
              <parameter type-id='type-id-468' is-artificial='yes'/>
              <return type-id='type-id-193'/>
            </function-decl>
          </member-function>
          <member-function access='private'>
            <function-decl name='destroy_impl' mangled-name='_ZN5boost15optional_detail13optional_baseISt5tupleIJN5mongo14ConstDataRangeENS3_6Date_tEEEE12destroy_implEN4mpl_5bool_ILb0EEE' filepath='src/third_party/boost-1.60.0/boost/optional/optional.hpp' line='745' column='1' visibility='default' binding='global' size-in-bits='64'>
              <parameter type-id='type-id-468' is-artificial='yes'/>
              <parameter type-id='type-id-636'/>
              <return type-id='type-id-193'/>
            </function-decl>
          </member-function>
          <member-function access='protected'>
            <function-decl name='optional_base' mangled-name='_ZN5boost15optional_detail13optional_baseISt5tupleIJN5mongo14ConstDataRangeENS3_6Date_tEEEEC2Ev' filepath='src/third_party/boost-1.60.0/boost/optional/optional.hpp' line='239' column='1' visibility='default' binding='global' size-in-bits='64'>
              <parameter type-id='type-id-468' is-artificial='yes'/>
              <return type-id='type-id-193'/>
            </function-decl>
          </member-function>
          <member-function access='protected'>
            <function-decl name='construct' mangled-name='_ZN5boost15optional_detail13optional_baseISt5tupleIJN5mongo14ConstDataRangeENS3_6Date_tEEEE9constructEOS6_' filepath='src/third_party/boost-1.60.0/boost/optional/optional.hpp' line='479' column='1' visibility='default' binding='global' size-in-bits='64'>
              <parameter type-id='type-id-468' is-artificial='yes'/>
              <parameter type-id='type-id-632'/>
              <return type-id='type-id-193'/>
            </function-decl>
          </member-function>
          <member-function access='protected'>
            <function-decl name='optional_base' mangled-name='_ZN5boost15optional_detail13optional_baseISt5tupleIJN5mongo14ConstDataRangeENS3_6Date_tEEEEC2EOS6_' filepath='src/third_party/boost-1.60.0/boost/optional/optional.hpp' line='261' column='1' visibility='default' binding='global' size-in-bits='64'>
              <parameter type-id='type-id-468' is-artificial='yes'/>
              <parameter type-id='type-id-632'/>
              <return type-id='type-id-193'/>
            </function-decl>
          </member-function>
        </class-decl>
        <class-decl name='__anonymous_struct__8' is-anonymous='yes' visibility='default' is-declaration-only='yes' id='type-id-503'>
          <member-type access='private'>
            <typedef-decl name='reference_type' type-id='type-id-642' filepath='src/third_party/boost-1.60.0/boost/optional/optional.hpp' line='227' column='1' id='type-id-634'/>
          </member-type>
          <member-function access='protected'>
            <function-decl name='destroy' mangled-name='_ZN5boost15optional_detail13optional_baseIN5mongo14ConstDataRangeEE7destroyEv' filepath='src/third_party/boost-1.60.0/boost/optional/optional.hpp' line='704' column='1' visibility='default' binding='global' size-in-bits='64'>
              <parameter type-id='type-id-504' is-artificial='yes'/>
              <return type-id='type-id-193'/>
            </function-decl>
          </member-function>
          <member-function access='protected' destructor='yes'>
            <function-decl name='~optional_base' mangled-name='_ZN5boost15optional_detail13optional_baseIN5mongo14ConstDataRangeEED2Ev' filepath='src/third_party/boost-1.60.0/boost/optional/optional.hpp' line='327' column='1' visibility='default' binding='global' size-in-bits='64'>
              <parameter type-id='type-id-504' is-artificial='yes'/>
              <return type-id='type-id-193'/>
            </function-decl>
          </member-function>
          <member-function access='private'>
            <function-decl name='destroy_impl' mangled-name='_ZN5boost15optional_detail13optional_baseIN5mongo14ConstDataRangeEE12destroy_implEN4mpl_5bool_ILb0EEE' filepath='src/third_party/boost-1.60.0/boost/optional/optional.hpp' line='745' column='1' visibility='default' binding='global' size-in-bits='64'>
              <parameter type-id='type-id-504' is-artificial='yes'/>
              <parameter type-id='type-id-636'/>
              <return type-id='type-id-193'/>
            </function-decl>
          </member-function>
        </class-decl>
        <class-decl name='__anonymous_struct__3' is-struct='yes' is-anonymous='yes' visibility='default' is-declaration-only='yes' id='type-id-643'>
          <member-type access='public'>
            <typedef-decl name='rval_reference_type' type-id='type-id-116' filepath='src/third_party/boost-1.60.0/boost/optional/optional.hpp' line='152' column='1' id='type-id-639'/>
          </member-type>
        </class-decl>
        <class-decl name='__anonymous_struct__4' is-struct='yes' is-anonymous='yes' visibility='default' is-declaration-only='yes' id='type-id-644'>
          <member-type access='public'>
            <typedef-decl name='reference_type' type-id='type-id-436' filepath='src/third_party/boost-1.60.0/boost/optional/optional.hpp' line='150' column='1' id='type-id-635'/>
          </member-type>
        </class-decl>
        <class-decl name='__anonymous_struct__6' is-struct='yes' is-anonymous='yes' visibility='default' is-declaration-only='yes' id='type-id-645'>
          <member-type access='public'>
            <typedef-decl name='reference_type' type-id='type-id-115' filepath='src/third_party/boost-1.60.0/boost/optional/optional.hpp' line='150' column='1' id='type-id-640'/>
          </member-type>
          <member-type access='public'>
            <typedef-decl name='rval_reference_type' type-id='type-id-116' filepath='src/third_party/boost-1.60.0/boost/optional/optional.hpp' line='152' column='1' id='type-id-641'/>
          </member-type>
        </class-decl>
        <class-decl name='__anonymous_struct__7' is-struct='yes' is-anonymous='yes' visibility='default' is-declaration-only='yes' id='type-id-646'>
          <member-type access='public'>
            <typedef-decl name='rval_reference_type' type-id='type-id-116' filepath='src/third_party/boost-1.60.0/boost/optional/optional.hpp' line='152' column='1' id='type-id-638'/>
          </member-type>
        </class-decl>
        <class-decl name='__anonymous_struct__9' is-struct='yes' is-anonymous='yes' visibility='default' is-declaration-only='yes' id='type-id-647'>
          <member-type access='public'>
            <typedef-decl name='reference_type' type-id='type-id-115' filepath='src/third_party/boost-1.60.0/boost/optional/optional.hpp' line='150' column='1' id='type-id-642'/>
          </member-type>
        </class-decl>
      </namespace-decl>
    </namespace-decl>
    <typedef-decl name='is_not_reference_tag' type-id='type-id-648' filepath='src/third_party/boost-1.60.0/boost/optional/optional.hpp' line='219' column='1' id='type-id-636'/>
    <namespace-decl name='mpl_'>
      <class-decl name='false_' is-struct='yes' naming-typedef-id='type-id-648' visibility='default' is-declaration-only='yes' id='type-id-649'/>
      <typedef-decl name='false_' type-id='type-id-649' filepath='src/third_party/boost-1.60.0/boost/mpl/bool_fwd.hpp' line='25' column='1' id='type-id-648'/>
    </namespace-decl>
  </abi-instr>
  <abi-instr address-size='64' path='src/mongo/db/ftdc/controller.cpp' comp-dir-path='/home/andrew/Documents/10gen/dev/src/mongodb' language='LANG_C_plus_plus'>
    <array-type-def dimensions='1' type-id='type-id-2' size-in-bits='832' id='type-id-650'>
      <subrange length='104' lower-bound='0' upper-bound='103' type-id='type-id-4' id='type-id-651'/>
    </array-type-def>
    <array-type-def dimensions='1' type-id='type-id-2' size-in-bits='288' id='type-id-652'>
      <subrange length='36' lower-bound='0' upper-bound='35' type-id='type-id-4' id='type-id-653'/>
    </array-type-def>
    <array-type-def dimensions='1' type-id='type-id-10' size-in-bits='832' id='type-id-654'>
      <subrange length='104' lower-bound='0' upper-bound='103' type-id='type-id-4' id='type-id-651'/>
    </array-type-def>
    <array-type-def dimensions='1' type-id='type-id-10' size-in-bits='288' id='type-id-655'>
      <subrange length='36' lower-bound='0' upper-bound='35' type-id='type-id-4' id='type-id-653'/>
    </array-type-def>
    <class-decl name='div_t' size-in-bits='64' is-struct='yes' naming-typedef-id='type-id-32' visibility='default' id='type-id-25'/>
    <typedef-decl name='ldiv_t' type-id='type-id-25' filepath='/usr/include/stdlib.h' line='109' column='1' id='type-id-656'/>
    <reference-type-def kind='lvalue' type-id='type-id-654' size-in-bits='64' id='type-id-657'/>
    <reference-type-def kind='lvalue' type-id='type-id-655' size-in-bits='64' id='type-id-658'/>
    <reference-type-def kind='lvalue' type-id='type-id-74' size-in-bits='64' id='type-id-229'/>
    <reference-type-def kind='lvalue' type-id='type-id-659' size-in-bits='64' id='type-id-660'/>
    <pointer-type-def type-id='type-id-659' size-in-bits='64' id='type-id-661'/>
    <reference-type-def kind='lvalue' type-id='type-id-73' size-in-bits='64' id='type-id-230'/>
    <reference-type-def kind='lvalue' type-id='type-id-662' size-in-bits='64' id='type-id-663'/>
    <pointer-type-def type-id='type-id-664' size-in-bits='64' id='type-id-665'/>
    <pointer-type-def type-id='type-id-666' size-in-bits='64' id='type-id-667'/>
    <pointer-type-def type-id='type-id-668' size-in-bits='64' id='type-id-669'/>
    <pointer-type-def type-id='type-id-670' size-in-bits='64' id='type-id-671'/>
    <pointer-type-def type-id='type-id-672' size-in-bits='64' id='type-id-673'/>
    <pointer-type-def type-id='type-id-674' size-in-bits='64' id='type-id-675'/>
    <pointer-type-def type-id='type-id-676' size-in-bits='64' id='type-id-677'/>
    <pointer-type-def type-id='type-id-678' size-in-bits='64' id='type-id-679'/>
    <pointer-type-def type-id='type-id-680' size-in-bits='64' id='type-id-681'/>
    <pointer-type-def type-id='type-id-682' size-in-bits='64' id='type-id-683'/>
    <pointer-type-def type-id='type-id-684' size-in-bits='64' id='type-id-685'/>
    <pointer-type-def type-id='type-id-686' size-in-bits='64' id='type-id-687'/>
    <pointer-type-def type-id='type-id-688' size-in-bits='64' id='type-id-689'/>
    <pointer-type-def type-id='type-id-690' size-in-bits='64' id='type-id-691'/>
    <pointer-type-def type-id='type-id-692' size-in-bits='64' id='type-id-693'/>
    <pointer-type-def type-id='type-id-694' size-in-bits='64' id='type-id-695'/>
    <pointer-type-def type-id='type-id-696' size-in-bits='64' id='type-id-697'/>
    <pointer-type-def type-id='type-id-698' size-in-bits='64' id='type-id-699'/>
    <pointer-type-def type-id='type-id-700' size-in-bits='64' id='type-id-701'/>
    <pointer-type-def type-id='type-id-702' size-in-bits='64' id='type-id-703'/>
    <pointer-type-def type-id='type-id-704' size-in-bits='64' id='type-id-705'/>
    <pointer-type-def type-id='type-id-706' size-in-bits='64' id='type-id-707'/>
    <pointer-type-def type-id='type-id-708' size-in-bits='64' id='type-id-709'/>
    <pointer-type-def type-id='type-id-710' size-in-bits='64' id='type-id-711'/>
    <pointer-type-def type-id='type-id-712' size-in-bits='64' id='type-id-713'/>
    <pointer-type-def type-id='type-id-714' size-in-bits='64' id='type-id-715'/>
    <pointer-type-def type-id='type-id-716' size-in-bits='64' id='type-id-717'/>
    <pointer-type-def type-id='type-id-718' size-in-bits='64' id='type-id-719'/>
    <pointer-type-def type-id='type-id-720' size-in-bits='64' id='type-id-721'/>
    <pointer-type-def type-id='type-id-722' size-in-bits='64' id='type-id-723'/>
    <pointer-type-def type-id='type-id-724' size-in-bits='64' id='type-id-725'/>
    <pointer-type-def type-id='type-id-726' size-in-bits='64' id='type-id-727'/>
    <pointer-type-def type-id='type-id-728' size-in-bits='64' id='type-id-729'/>
    <pointer-type-def type-id='type-id-730' size-in-bits='64' id='type-id-731'/>
    <pointer-type-def type-id='type-id-732' size-in-bits='64' id='type-id-733'/>
    <pointer-type-def type-id='type-id-734' size-in-bits='64' id='type-id-735'/>
    <pointer-type-def type-id='type-id-680' size-in-bits='64' id='type-id-736'/>
    <pointer-type-def type-id='type-id-737' size-in-bits='64' id='type-id-738'/>
    <pointer-type-def type-id='type-id-739' size-in-bits='64' id='type-id-740'/>
    <pointer-type-def type-id='type-id-741' size-in-bits='64' id='type-id-742'/>
    <pointer-type-def type-id='type-id-743' size-in-bits='64' id='type-id-744'/>
    <pointer-type-def type-id='type-id-745' size-in-bits='64' id='type-id-746'/>
    <pointer-type-def type-id='type-id-747' size-in-bits='64' id='type-id-748'/>
    <pointer-type-def type-id='type-id-745' size-in-bits='64' id='type-id-749'/>
    <pointer-type-def type-id='type-id-750' size-in-bits='64' id='type-id-751'/>
    <pointer-type-def type-id='type-id-752' size-in-bits='64' id='type-id-753'/>
    <pointer-type-def type-id='type-id-754' size-in-bits='64' id='type-id-755'/>
    <pointer-type-def type-id='type-id-756' size-in-bits='64' id='type-id-757'/>
    <qualified-type-def type-id='type-id-706' const='yes' id='type-id-758'/>
    <qualified-type-def type-id='type-id-668' const='yes' id='type-id-759'/>
    <qualified-type-def type-id='type-id-670' const='yes' id='type-id-760'/>
    <qualified-type-def type-id='type-id-672' const='yes' id='type-id-761'/>
    <qualified-type-def type-id='type-id-684' const='yes' id='type-id-762'/>
    <qualified-type-def type-id='type-id-686' const='yes' id='type-id-763'/>
    <qualified-type-def type-id='type-id-688' const='yes' id='type-id-764'/>
    <qualified-type-def type-id='type-id-765' const='yes' id='type-id-766'/>
    <qualified-type-def type-id='type-id-704' const='yes' id='type-id-767'/>
    <qualified-type-def type-id='type-id-720' const='yes' id='type-id-768'/>
    <qualified-type-def type-id='type-id-726' const='yes' id='type-id-769'/>
    <qualified-type-def type-id='type-id-666' const='yes' id='type-id-770'/>
    <qualified-type-def type-id='type-id-732' const='yes' id='type-id-771'/>
    <qualified-type-def type-id='type-id-678' const='yes' id='type-id-772'/>
    <qualified-type-def type-id='type-id-680' const='yes' id='type-id-773'/>
    <qualified-type-def type-id='type-id-774' const='yes' id='type-id-775'/>
    <pointer-type-def type-id='type-id-759' size-in-bits='64' id='type-id-776'/>
    <pointer-type-def type-id='type-id-760' size-in-bits='64' id='type-id-777'/>
    <pointer-type-def type-id='type-id-761' size-in-bits='64' id='type-id-778'/>
    <pointer-type-def type-id='type-id-762' size-in-bits='64' id='type-id-779'/>
    <pointer-type-def type-id='type-id-763' size-in-bits='64' id='type-id-780'/>
    <pointer-type-def type-id='type-id-764' size-in-bits='64' id='type-id-781'/>
    <pointer-type-def type-id='type-id-766' size-in-bits='64' id='type-id-782'/>
    <pointer-type-def type-id='type-id-767' size-in-bits='64' id='type-id-783'/>
    <pointer-type-def type-id='type-id-768' size-in-bits='64' id='type-id-784'/>
    <pointer-type-def type-id='type-id-769' size-in-bits='64' id='type-id-785'/>
    <pointer-type-def type-id='type-id-770' size-in-bits='64' id='type-id-786'/>
    <pointer-type-def type-id='type-id-772' size-in-bits='64' id='type-id-787'/>
    <pointer-type-def type-id='type-id-773' size-in-bits='64' id='type-id-788'/>
    <pointer-type-def type-id='type-id-775' size-in-bits='64' id='type-id-789'/>
    <qualified-type-def type-id='type-id-790' const='yes' id='type-id-791'/>
    <qualified-type-def type-id='type-id-792' const='yes' id='type-id-793'/>
    <reference-type-def kind='lvalue' type-id='type-id-793' size-in-bits='64' id='type-id-794'/>
    <pointer-type-def type-id='type-id-793' size-in-bits='64' id='type-id-795'/>
    <qualified-type-def type-id='type-id-796' const='yes' id='type-id-797'/>
    <qualified-type-def type-id='type-id-798' const='yes' id='type-id-799'/>
    <qualified-type-def type-id='type-id-800' const='yes' id='type-id-801'/>
    <qualified-type-def type-id='type-id-802' const='yes' id='type-id-803'/>
    <qualified-type-def type-id='type-id-804' const='yes' id='type-id-805'/>
    <qualified-type-def type-id='type-id-806' const='yes' id='type-id-807'/>
    <pointer-type-def type-id='type-id-797' size-in-bits='64' id='type-id-808'/>
    <pointer-type-def type-id='type-id-799' size-in-bits='64' id='type-id-809'/>
    <pointer-type-def type-id='type-id-805' size-in-bits='64' id='type-id-810'/>
    <pointer-type-def type-id='type-id-807' size-in-bits='64' id='type-id-811'/>
    <qualified-type-def type-id='type-id-808' restrict='yes' id='type-id-812'/>
    <pointer-type-def type-id='type-id-813' size-in-bits='64' id='type-id-814'/>
    <pointer-type-def type-id='type-id-813' size-in-bits='64' id='type-id-815'/>
    <reference-type-def kind='rvalue' type-id='type-id-815' size-in-bits='64' id='type-id-816'/>
    <reference-type-def kind='lvalue' type-id='type-id-817' size-in-bits='64' id='type-id-818'/>
    <reference-type-def kind='lvalue' type-id='type-id-819' size-in-bits='64' id='type-id-820'/>
    <reference-type-def kind='lvalue' type-id='type-id-821' size-in-bits='64' id='type-id-822'/>
    <reference-type-def kind='lvalue' type-id='type-id-823' size-in-bits='64' id='type-id-824'/>
    <pointer-type-def type-id='type-id-825' size-in-bits='64' id='type-id-826'/>
    <pointer-type-def type-id='type-id-827' size-in-bits='64' id='type-id-828'/>
    <class-decl name='__anonymous_struct__1' is-struct='yes' is-anonymous='yes' visibility='default' is-declaration-only='yes' id='type-id-796'/>
    <pointer-type-def type-id='type-id-796' size-in-bits='64' id='type-id-829'/>
    <pointer-type-def type-id='type-id-806' size-in-bits='64' id='type-id-830'/>
    <pointer-type-def type-id='type-id-831' size-in-bits='64' id='type-id-832'/>
    <pointer-type-def type-id='type-id-833' size-in-bits='64' id='type-id-834'/>
    <pointer-type-def type-id='type-id-835' size-in-bits='64' id='type-id-836'/>
    <pointer-type-def type-id='type-id-837' size-in-bits='64' id='type-id-838'/>
    <pointer-type-def type-id='type-id-839' size-in-bits='64' id='type-id-840'/>
    <pointer-type-def type-id='type-id-841' size-in-bits='64' id='type-id-842'/>
    <pointer-type-def type-id='type-id-843' size-in-bits='64' id='type-id-844'/>
    <pointer-type-def type-id='type-id-845' size-in-bits='64' id='type-id-846'/>
    <pointer-type-def type-id='type-id-847' size-in-bits='64' id='type-id-848'/>
    <pointer-type-def type-id='type-id-849' size-in-bits='64' id='type-id-850'/>
    <pointer-type-def type-id='type-id-849' size-in-bits='64' id='type-id-851'/>
    <pointer-type-def type-id='type-id-852' size-in-bits='64' id='type-id-853'/>
    <pointer-type-def type-id='type-id-854' size-in-bits='64' id='type-id-855'/>
    <qualified-type-def type-id='type-id-187' restrict='yes' id='type-id-856'/>
    <qualified-type-def type-id='type-id-187' restrict='yes' id='type-id-857'/>
    <namespace-decl name='std'>
      <class-decl name='basic_ostream&lt;char, std::char_traits&lt;char&gt; &gt;' size-in-bits='2176' visibility='default' id='type-id-858'>
        <member-type access='private'>
          <typedef-decl name='__ostream_type' type-id='type-id-858' filepath='/usr/bin/../lib/gcc/x86_64-linux-gnu/5.4.0/../../../../include/c++/5.4.0/ostream' line='71' column='1' id='type-id-859'/>
        </member-type>
        <member-function access='public'>
          <function-decl name='operator&lt;&lt;' mangled-name='_ZNSolsEm' filepath='/usr/bin/../lib/gcc/x86_64-linux-gnu/5.4.0/../../../../include/c++/5.4.0/ostream' line='170' column='1' visibility='default' binding='global' size-in-bits='64'>
            <parameter type-id='type-id-860' is-artificial='yes'/>
            <parameter type-id='type-id-38'/>
            <return type-id='type-id-861'/>
          </function-decl>
        </member-function>
      </class-decl>
      <typedef-decl name='ostream' type-id='type-id-858' filepath='/usr/bin/../lib/gcc/x86_64-linux-gnu/5.4.0/../../../../include/c++/5.4.0/iosfwd' line='141' column='1' id='type-id-662'/>
      <class-decl name='allocator_type' naming-typedef-id='type-id-821' visibility='default' is-declaration-only='yes' id='type-id-790'/>
      <class-decl name='allocator_type' naming-typedef-id='type-id-819' visibility='default' is-declaration-only='yes' id='type-id-862'/>
      <class-decl name='mutex_type' naming-typedef-id='type-id-823' visibility='default' is-declaration-only='yes' id='type-id-827'>
        <member-function access='public'>
          <function-decl name='lock' mangled-name='_ZNSt5mutex4lockEv' filepath='/usr/bin/../lib/gcc/x86_64-linux-gnu/5.4.0/../../../../include/c++/5.4.0/mutex' line='133' column='1' visibility='default' binding='global' size-in-bits='64'>
            <parameter type-id='type-id-828' is-artificial='yes'/>
            <return type-id='type-id-193'/>
          </function-decl>
        </member-function>
        <member-function access='public'>
          <function-decl name='unlock' mangled-name='_ZNSt5mutex6unlockEv' filepath='/usr/bin/../lib/gcc/x86_64-linux-gnu/5.4.0/../../../../include/c++/5.4.0/mutex' line='150' column='1' visibility='default' binding='global' size-in-bits='64'>
            <parameter type-id='type-id-828' is-artificial='yes'/>
            <return type-id='type-id-193'/>
          </function-decl>
        </member-function>
      </class-decl>
      <class-decl name='type_info' visibility='default' is-declaration-only='yes' id='type-id-792'>
        <member-function access='public'>
          <function-decl name='operator==' mangled-name='_ZNKSt9type_infoeqERKS_' filepath='/usr/bin/../lib/gcc/x86_64-linux-gnu/5.4.0/../../../../include/c++/5.4.0/typeinfo' line='120' column='1' visibility='default' binding='global' size-in-bits='64'>
            <parameter type-id='type-id-795' is-artificial='yes'/>
            <parameter type-id='type-id-794'/>
            <return type-id='type-id-1'/>
          </function-decl>
        </member-function>
      </class-decl>
      <class-decl name='__anonymous_struct__' is-anonymous='yes' visibility='default' is-declaration-only='yes' id='type-id-704'>
        <member-type access='private'>
          <class-decl name='__anonymous_struct__' is-anonymous='yes' visibility='default' is-declaration-only='yes' id='type-id-737'>
            <member-function access='public'>
              <function-decl name='id' mangled-name='_ZNSt6thread2idC2Ev' filepath='/usr/bin/../lib/gcc/x86_64-linux-gnu/5.4.0/../../../../include/c++/5.4.0/thread' line='73' column='1' visibility='default' binding='global' size-in-bits='64'>
                <parameter type-id='type-id-738' is-artificial='yes'/>
                <return type-id='type-id-193'/>
              </function-decl>
            </member-function>
          </class-decl>
        </member-type>
        <member-type access='private'>
          <class-decl name='__anonymous_struct__1' is-struct='yes' is-anonymous='yes' visibility='default' is-declaration-only='yes' id='type-id-849'>
            <member-function access='public'>
              <function-decl name='_Impl' mangled-name='_ZNSt6thread5_ImplISt12_Bind_simpleIFSt5_BindIFSt7_Mem_fnIMN5mongo14FTDCControllerEFvvEEPS5_EEvEEEC2EOSD_' filepath='/usr/bin/../lib/gcc/x86_64-linux-gnu/5.4.0/../../../../include/c++/5.4.0/thread' line='111' column='1' visibility='default' binding='global' size-in-bits='64'>
                <parameter type-id='type-id-851' is-artificial='yes'/>
                <parameter type-id='type-id-377'/>
                <return type-id='type-id-193'/>
              </function-decl>
            </member-function>
            <member-function access='public' vtable-offset='2'>
              <function-decl name='_M_run' mangled-name='_ZNSt6thread5_ImplISt12_Bind_simpleIFSt5_BindIFSt7_Mem_fnIMN5mongo14FTDCControllerEFvvEEPS5_EEvEEE6_M_runEv' filepath='/usr/bin/../lib/gcc/x86_64-linux-gnu/5.4.0/../../../../include/c++/5.4.0/thread' line='115' column='1' visibility='default' binding='global' size-in-bits='64' elf-symbol-id='_ZNSt6thread5_ImplISt12_Bind_simpleIFSt5_BindIFSt7_Mem_fnIMN5mongo14FTDCControllerEFvvEEPS5_EEvEEE6_M_runEv'>
                <parameter type-id='type-id-851' is-artificial='yes'/>
                <return type-id='type-id-193'/>
              </function-decl>
            </member-function>
          </class-decl>
        </member-type>
        <member-type access='private'>
          <class-decl name='__anonymous_struct__2' is-struct='yes' is-anonymous='yes' visibility='default' is-declaration-only='yes' id='type-id-854'>
            <member-function access='public' destructor='yes' vtable-offset='0'>
              <function-decl name='~_Impl_base' mangled-name='_ZNSt6thread10_Impl_baseD0Ev' filepath='/usr/bin/../lib/gcc/x86_64-linux-gnu/5.4.0/../../../../include/c++/5.4.0/thread' line='101' column='1' visibility='default' binding='global' size-in-bits='64' elf-symbol-id='_ZNSt6thread10_Impl_baseD2Ev'>
                <parameter type-id='type-id-855' is-artificial='yes'/>
                <return type-id='type-id-193'/>
              </function-decl>
            </member-function>
          </class-decl>
        </member-type>
        <member-function access='public'>
          <function-decl name='joinable' mangled-name='_ZNKSt6thread8joinableEv' filepath='/usr/bin/../lib/gcc/x86_64-linux-gnu/5.4.0/../../../../include/c++/5.4.0/thread' line='169' column='1' visibility='default' binding='global' size-in-bits='64'>
            <parameter type-id='type-id-783' is-artificial='yes'/>
            <return type-id='type-id-1'/>
          </function-decl>
        </member-function>
        <member-function access='public'>
          <function-decl name='operator=' mangled-name='_ZNSt6threadaSEOS_' filepath='/usr/bin/../lib/gcc/x86_64-linux-gnu/5.4.0/../../../../include/c++/5.4.0/thread' line='156' column='1' visibility='default' binding='global' size-in-bits='64'>
            <parameter type-id='type-id-705' is-artificial='yes'/>
            <parameter type-id='type-id-116'/>
            <return type-id='type-id-115'/>
          </function-decl>
        </member-function>
        <member-function access='public'>
          <function-decl name='swap' mangled-name='_ZNSt6thread4swapERS_' filepath='/usr/bin/../lib/gcc/x86_64-linux-gnu/5.4.0/../../../../include/c++/5.4.0/thread' line='165' column='1' visibility='default' binding='global' size-in-bits='64'>
            <parameter type-id='type-id-705' is-artificial='yes'/>
            <parameter type-id='type-id-115'/>
            <return type-id='type-id-193'/>
          </function-decl>
        </member-function>
        <member-function access='private'>
          <function-decl name='_M_make_routine&lt;std::_Bind_simple&lt;std::_Bind&lt;std::_Mem_fn&lt;void (mongo::FTDCController::*)()&gt; (mongo::FTDCController *)&gt; ()&gt; &gt;' mangled-name='_ZNSt6thread15_M_make_routineISt12_Bind_simpleIFSt5_BindIFSt7_Mem_fnIMN5mongo14FTDCControllerEFvvEEPS5_EEvEEEESt10shared_ptrINS_5_ImplIT_EEEOSG_' filepath='/usr/bin/../lib/gcc/x86_64-linux-gnu/5.4.0/../../../../include/c++/5.4.0/thread' line='201' column='1' visibility='default' binding='global' size-in-bits='64'>
            <parameter type-id='type-id-705' is-artificial='yes'/>
            <parameter type-id='type-id-377'/>
            <return type-id='type-id-743'/>
          </function-decl>
        </member-function>
        <member-function access='public'>
          <function-decl name='thread&lt;std::_Bind&lt;std::_Mem_fn&lt;void (mongo::FTDCController::*)()&gt; (mongo::FTDCController *)&gt;&gt;' mangled-name='_ZNSt6threadC2ISt5_BindIFSt7_Mem_fnIMN5mongo14FTDCControllerEFvvEEPS4_EEJEEEOT_DpOT0_' filepath='/usr/bin/../lib/gcc/x86_64-linux-gnu/5.4.0/../../../../include/c++/5.4.0/thread' line='133' column='1' visibility='default' binding='global' size-in-bits='64' elf-symbol-id='_ZNSt6threadC2ISt5_BindIFSt7_Mem_fnIMN5mongo14FTDCControllerEFvvEEPS4_EEJEEEOT_DpOT0_'>
            <parameter type-id='type-id-705' is-artificial='yes'/>
            <parameter type-id='type-id-116'/>
            <return type-id='type-id-193'/>
          </function-decl>
        </member-function>
      </class-decl>
      <class-decl name='__anonymous_struct__1' is-anonymous='yes' visibility='default' is-declaration-only='yes' id='type-id-706'>
        <member-function access='public'>
          <function-decl name='__shared_count' mangled-name='_ZNSt14__shared_countILN9__gnu_cxx12_Lock_policyE2EEC2Ev' filepath='/usr/bin/../lib/gcc/x86_64-linux-gnu/5.4.0/../../../../include/c++/5.4.0/bits/shared_ptr_base.h' line='565' column='1' visibility='default' binding='global' size-in-bits='64'>
            <parameter type-id='type-id-707' is-artificial='yes'/>
            <return type-id='type-id-193'/>
          </function-decl>
        </member-function>
        <member-function access='public' destructor='yes'>
          <function-decl name='~__shared_count' mangled-name='_ZNSt14__shared_countILN9__gnu_cxx12_Lock_policyE2EED2Ev' filepath='/usr/bin/../lib/gcc/x86_64-linux-gnu/5.4.0/../../../../include/c++/5.4.0/bits/shared_ptr_base.h' line='656' column='1' visibility='default' binding='global' size-in-bits='64'>
            <parameter type-id='type-id-707' is-artificial='yes'/>
            <return type-id='type-id-193'/>
          </function-decl>
        </member-function>
        <member-function access='public'>
          <function-decl name='__shared_count&lt;std::thread::_Impl&lt;std::_Bind_simple&lt;std::_Bind&lt;std::_Mem_fn&lt;void (mongo::FTDCController::*)()&gt; (mongo::FTDCController *)&gt; ()&gt; &gt;, std::allocator&lt;std::thread::_Impl&lt;std::_Bind_simple&lt;std::_Bind&lt;std::_Mem_fn&lt;void (mongo::FTDCController::*)()&gt; (mongo::FTDCController *)&gt; ()&gt; &gt; &gt;, std::_Bind_simple&lt;std::_Bind&lt;std::_Mem_fn&lt;void (mongo::FTDCController::*)()&gt; (mongo::FTDCController *)&gt; ()&gt; &gt;' mangled-name='_ZNSt14__shared_countILN9__gnu_cxx12_Lock_policyE2EEC2INSt6thread5_ImplISt12_Bind_simpleIFSt5_BindIFSt7_Mem_fnIMN5mongo14FTDCControllerEFvvEEPSA_EEvEEEESaISJ_EJSI_EEESt19_Sp_make_shared_tagPT_RKT0_DpOT1_' filepath='/usr/bin/../lib/gcc/x86_64-linux-gnu/5.4.0/../../../../include/c++/5.4.0/bits/shared_ptr_base.h' line='609' column='1' visibility='default' binding='global' size-in-bits='64'>
            <parameter type-id='type-id-707' is-artificial='yes'/>
            <parameter type-id='type-id-863'/>
            <parameter type-id='type-id-850'/>
            <parameter type-id='type-id-164'/>
            <parameter type-id='type-id-377'/>
            <return type-id='type-id-193'/>
          </function-decl>
        </member-function>
        <member-function access='public'>
          <function-decl name='_M_swap' mangled-name='_ZNSt14__shared_countILN9__gnu_cxx12_Lock_policyE2EE7_M_swapERS2_' filepath='/usr/bin/../lib/gcc/x86_64-linux-gnu/5.4.0/../../../../include/c++/5.4.0/bits/shared_ptr_base.h' line='685' column='1' visibility='default' binding='global' size-in-bits='64'>
            <parameter type-id='type-id-707' is-artificial='yes'/>
            <parameter type-id='type-id-115'/>
            <return type-id='type-id-193'/>
          </function-decl>
        </member-function>
      </class-decl>
      <class-decl name='__anonymous_struct__10' is-anonymous='yes' visibility='default' is-declaration-only='yes' id='type-id-690'>
        <member-function access='public'>
