<abi-corpus version='2.2' soname='libandroid.so'>
  <elf-needed>
    <dependency name='liblog.so'/>
    <dependency name='libhidlbase.so'/>
    <dependency name='libcutils.so'/>
    <dependency name='libandroidfw.so'/>
    <dependency name='libinput.so'/>
    <dependency name='libutils.so'/>
    <dependency name='libbinder.so'/>
    <dependency name='libui.so'/>
    <dependency name='libgui.so'/>
    <dependency name='libharfbuzz_ng.so'/>
    <dependency name='libsensor.so'/>
    <dependency name='libandroid_runtime.so'/>
    <dependency name='libminikin.so'/>
    <dependency name='libnetd_client.so'/>
    <dependency name='libhwui.so'/>
    <dependency name='libxml2.so'/>
    <dependency name='android.hardware.configstore@1.0.so'/>
    <dependency name='android.hardware.configstore-utils.so'/>
    <dependency name='libc++.so'/>
    <dependency name='libc.so'/>
    <dependency name='libm.so'/>
    <dependency name='libdl.so'/>
  </elf-needed>
  <elf-function-symbols>
    <elf-symbol name='AAssetDir_close' version='LIBANDROID' is-default-version='yes' type='func-type' binding='global-binding' visibility='default-visibility' is-defined='yes'/>
    <elf-symbol name='AAssetDir_getNextFileName' version='LIBANDROID' is-default-version='yes' type='func-type' binding='global-binding' visibility='default-visibility' is-defined='yes'/>
    <elf-symbol name='AAssetDir_rewind' version='LIBANDROID' is-default-version='yes' type='func-type' binding='global-binding' visibility='default-visibility' is-defined='yes'/>
    <elf-symbol name='AAssetManager_fromJava' version='LIBANDROID' is-default-version='yes' type='func-type' binding='global-binding' visibility='default-visibility' is-defined='yes'/>
    <elf-symbol name='AAssetManager_open' version='LIBANDROID' is-default-version='yes' type='func-type' binding='global-binding' visibility='default-visibility' is-defined='yes'/>
    <elf-symbol name='AAssetManager_openDir' version='LIBANDROID' is-default-version='yes' type='func-type' binding='global-binding' visibility='default-visibility' is-defined='yes'/>
    <elf-symbol name='AAsset_close' version='LIBANDROID' is-default-version='yes' type='func-type' binding='global-binding' visibility='default-visibility' is-defined='yes'/>
    <elf-symbol name='AAsset_getBuffer' version='LIBANDROID' is-default-version='yes' type='func-type' binding='global-binding' visibility='default-visibility' is-defined='yes'/>
    <elf-symbol name='AAsset_getLength64' version='LIBANDROID' is-default-version='yes' type='func-type' binding='global-binding' visibility='default-visibility' is-defined='yes'/>
    <elf-symbol name='AAsset_getLength' version='LIBANDROID' is-default-version='yes' type='func-type' binding='global-binding' visibility='default-visibility' is-defined='yes'/>
    <elf-symbol name='AAsset_getRemainingLength64' version='LIBANDROID' is-default-version='yes' type='func-type' binding='global-binding' visibility='default-visibility' is-defined='yes'/>
    <elf-symbol name='AAsset_getRemainingLength' version='LIBANDROID' is-default-version='yes' type='func-type' binding='global-binding' visibility='default-visibility' is-defined='yes'/>
    <elf-symbol name='AAsset_isAllocated' version='LIBANDROID' is-default-version='yes' type='func-type' binding='global-binding' visibility='default-visibility' is-defined='yes'/>
    <elf-symbol name='AAsset_openFileDescriptor64' version='LIBANDROID' is-default-version='yes' type='func-type' binding='global-binding' visibility='default-visibility' is-defined='yes'/>
    <elf-symbol name='AAsset_openFileDescriptor' version='LIBANDROID' is-default-version='yes' type='func-type' binding='global-binding' visibility='default-visibility' is-defined='yes'/>
    <elf-symbol name='AAsset_read' version='LIBANDROID' is-default-version='yes' type='func-type' binding='global-binding' visibility='default-visibility' is-defined='yes'/>
    <elf-symbol name='AAsset_seek64' version='LIBANDROID' is-default-version='yes' type='func-type' binding='global-binding' visibility='default-visibility' is-defined='yes'/>
    <elf-symbol name='AAsset_seek' version='LIBANDROID' is-default-version='yes' type='func-type' binding='global-binding' visibility='default-visibility' is-defined='yes'/>
    <elf-symbol name='AChoreographer_getInstance' version='LIBANDROID' is-default-version='yes' type='func-type' binding='global-binding' visibility='default-visibility' is-defined='yes'/>
    <elf-symbol name='AChoreographer_postFrameCallback64' version='LIBANDROID' is-default-version='yes' type='func-type' binding='global-binding' visibility='default-visibility' is-defined='yes'/>
    <elf-symbol name='AChoreographer_postFrameCallback' version='LIBANDROID' is-default-version='yes' type='func-type' binding='global-binding' visibility='default-visibility' is-defined='yes'/>
    <elf-symbol name='AChoreographer_postFrameCallbackDelayed64' version='LIBANDROID' is-default-version='yes' type='func-type' binding='global-binding' visibility='default-visibility' is-defined='yes'/>
    <elf-symbol name='AChoreographer_postFrameCallbackDelayed' version='LIBANDROID' is-default-version='yes' type='func-type' binding='global-binding' visibility='default-visibility' is-defined='yes'/>
    <elf-symbol name='AConfiguration_copy' version='LIBANDROID' is-default-version='yes' type='func-type' binding='global-binding' visibility='default-visibility' is-defined='yes'/>
    <elf-symbol name='AConfiguration_delete' version='LIBANDROID' is-default-version='yes' type='func-type' binding='global-binding' visibility='default-visibility' is-defined='yes'/>
    <elf-symbol name='AConfiguration_diff' version='LIBANDROID' is-default-version='yes' type='func-type' binding='global-binding' visibility='default-visibility' is-defined='yes'/>
    <elf-symbol name='AConfiguration_fromAssetManager' version='LIBANDROID' is-default-version='yes' type='func-type' binding='global-binding' visibility='default-visibility' is-defined='yes'/>
    <elf-symbol name='AConfiguration_getCountry' version='LIBANDROID' is-default-version='yes' type='func-type' binding='global-binding' visibility='default-visibility' is-defined='yes'/>
    <elf-symbol name='AConfiguration_getDensity' version='LIBANDROID' is-default-version='yes' type='func-type' binding='global-binding' visibility='default-visibility' is-defined='yes'/>
    <elf-symbol name='AConfiguration_getKeyboard' version='LIBANDROID' is-default-version='yes' type='func-type' binding='global-binding' visibility='default-visibility' is-defined='yes'/>
    <elf-symbol name='AConfiguration_getKeysHidden' version='LIBANDROID' is-default-version='yes' type='func-type' binding='global-binding' visibility='default-visibility' is-defined='yes'/>
    <elf-symbol name='AConfiguration_getLanguage' version='LIBANDROID' is-default-version='yes' type='func-type' binding='global-binding' visibility='default-visibility' is-defined='yes'/>
    <elf-symbol name='AConfiguration_getLayoutDirection' version='LIBANDROID' is-default-version='yes' type='func-type' binding='global-binding' visibility='default-visibility' is-defined='yes'/>
    <elf-symbol name='AConfiguration_getMcc' version='LIBANDROID' is-default-version='yes' type='func-type' binding='global-binding' visibility='default-visibility' is-defined='yes'/>
    <elf-symbol name='AConfiguration_getMnc' version='LIBANDROID' is-default-version='yes' type='func-type' binding='global-binding' visibility='default-visibility' is-defined='yes'/>
    <elf-symbol name='AConfiguration_getNavHidden' version='LIBANDROID' is-default-version='yes' type='func-type' binding='global-binding' visibility='default-visibility' is-defined='yes'/>
    <elf-symbol name='AConfiguration_getNavigation' version='LIBANDROID' is-default-version='yes' type='func-type' binding='global-binding' visibility='default-visibility' is-defined='yes'/>
    <elf-symbol name='AConfiguration_getOrientation' version='LIBANDROID' is-default-version='yes' type='func-type' binding='global-binding' visibility='default-visibility' is-defined='yes'/>
    <elf-symbol name='AConfiguration_getScreenHeightDp' version='LIBANDROID' is-default-version='yes' type='func-type' binding='global-binding' visibility='default-visibility' is-defined='yes'/>
    <elf-symbol name='AConfiguration_getScreenLong' version='LIBANDROID' is-default-version='yes' type='func-type' binding='global-binding' visibility='default-visibility' is-defined='yes'/>
    <elf-symbol name='AConfiguration_getScreenRound' version='LIBANDROID' is-default-version='yes' type='func-type' binding='global-binding' visibility='default-visibility' is-defined='yes'/>
    <elf-symbol name='AConfiguration_getScreenSize' version='LIBANDROID' is-default-version='yes' type='func-type' binding='global-binding' visibility='default-visibility' is-defined='yes'/>
    <elf-symbol name='AConfiguration_getScreenWidthDp' version='LIBANDROID' is-default-version='yes' type='func-type' binding='global-binding' visibility='default-visibility' is-defined='yes'/>
    <elf-symbol name='AConfiguration_getSdkVersion' version='LIBANDROID' is-default-version='yes' type='func-type' binding='global-binding' visibility='default-visibility' is-defined='yes'/>
    <elf-symbol name='AConfiguration_getSmallestScreenWidthDp' version='LIBANDROID' is-default-version='yes' type='func-type' binding='global-binding' visibility='default-visibility' is-defined='yes'/>
    <elf-symbol name='AConfiguration_getTouchscreen' version='LIBANDROID' is-default-version='yes' type='func-type' binding='global-binding' visibility='default-visibility' is-defined='yes'/>
    <elf-symbol name='AConfiguration_getUiModeNight' version='LIBANDROID' is-default-version='yes' type='func-type' binding='global-binding' visibility='default-visibility' is-defined='yes'/>
    <elf-symbol name='AConfiguration_getUiModeType' version='LIBANDROID' is-default-version='yes' type='func-type' binding='global-binding' visibility='default-visibility' is-defined='yes'/>
    <elf-symbol name='AConfiguration_isBetterThan' version='LIBANDROID' is-default-version='yes' type='func-type' binding='global-binding' visibility='default-visibility' is-defined='yes'/>
    <elf-symbol name='AConfiguration_match' version='LIBANDROID' is-default-version='yes' type='func-type' binding='global-binding' visibility='default-visibility' is-defined='yes'/>
    <elf-symbol name='AConfiguration_new' version='LIBANDROID' is-default-version='yes' type='func-type' binding='global-binding' visibility='default-visibility' is-defined='yes'/>
    <elf-symbol name='AConfiguration_setCountry' version='LIBANDROID' is-default-version='yes' type='func-type' binding='global-binding' visibility='default-visibility' is-defined='yes'/>
    <elf-symbol name='AConfiguration_setDensity' version='LIBANDROID' is-default-version='yes' type='func-type' binding='global-binding' visibility='default-visibility' is-defined='yes'/>
    <elf-symbol name='AConfiguration_setKeyboard' version='LIBANDROID' is-default-version='yes' type='func-type' binding='global-binding' visibility='default-visibility' is-defined='yes'/>
    <elf-symbol name='AConfiguration_setKeysHidden' version='LIBANDROID' is-default-version='yes' type='func-type' binding='global-binding' visibility='default-visibility' is-defined='yes'/>
    <elf-symbol name='AConfiguration_setLanguage' version='LIBANDROID' is-default-version='yes' type='func-type' binding='global-binding' visibility='default-visibility' is-defined='yes'/>
    <elf-symbol name='AConfiguration_setLayoutDirection' version='LIBANDROID' is-default-version='yes' type='func-type' binding='global-binding' visibility='default-visibility' is-defined='yes'/>
    <elf-symbol name='AConfiguration_setMcc' version='LIBANDROID' is-default-version='yes' type='func-type' binding='global-binding' visibility='default-visibility' is-defined='yes'/>
    <elf-symbol name='AConfiguration_setMnc' version='LIBANDROID' is-default-version='yes' type='func-type' binding='global-binding' visibility='default-visibility' is-defined='yes'/>
    <elf-symbol name='AConfiguration_setNavHidden' version='LIBANDROID' is-default-version='yes' type='func-type' binding='global-binding' visibility='default-visibility' is-defined='yes'/>
    <elf-symbol name='AConfiguration_setNavigation' version='LIBANDROID' is-default-version='yes' type='func-type' binding='global-binding' visibility='default-visibility' is-defined='yes'/>
    <elf-symbol name='AConfiguration_setOrientation' version='LIBANDROID' is-default-version='yes' type='func-type' binding='global-binding' visibility='default-visibility' is-defined='yes'/>
    <elf-symbol name='AConfiguration_setScreenHeightDp' version='LIBANDROID' is-default-version='yes' type='func-type' binding='global-binding' visibility='default-visibility' is-defined='yes'/>
    <elf-symbol name='AConfiguration_setScreenLong' version='LIBANDROID' is-default-version='yes' type='func-type' binding='global-binding' visibility='default-visibility' is-defined='yes'/>
    <elf-symbol name='AConfiguration_setScreenSize' version='LIBANDROID' is-default-version='yes' type='func-type' binding='global-binding' visibility='default-visibility' is-defined='yes'/>
    <elf-symbol name='AConfiguration_setScreenWidthDp' version='LIBANDROID' is-default-version='yes' type='func-type' binding='global-binding' visibility='default-visibility' is-defined='yes'/>
    <elf-symbol name='AConfiguration_setSdkVersion' version='LIBANDROID' is-default-version='yes' type='func-type' binding='global-binding' visibility='default-visibility' is-defined='yes'/>
    <elf-symbol name='AConfiguration_setSmallestScreenWidthDp' version='LIBANDROID' is-default-version='yes' type='func-type' binding='global-binding' visibility='default-visibility' is-defined='yes'/>
    <elf-symbol name='AConfiguration_setTouchscreen' version='LIBANDROID' is-default-version='yes' type='func-type' binding='global-binding' visibility='default-visibility' is-defined='yes'/>
    <elf-symbol name='AConfiguration_setUiModeNight' version='LIBANDROID' is-default-version='yes' type='func-type' binding='global-binding' visibility='default-visibility' is-defined='yes'/>
    <elf-symbol name='AConfiguration_setUiModeType' version='LIBANDROID' is-default-version='yes' type='func-type' binding='global-binding' visibility='default-visibility' is-defined='yes'/>
    <elf-symbol name='AFontMatcher_create' version='LIBANDROID' is-default-version='yes' type='func-type' binding='global-binding' visibility='default-visibility' is-defined='yes'/>
    <elf-symbol name='AFontMatcher_destroy' version='LIBANDROID' is-default-version='yes' type='func-type' binding='global-binding' visibility='default-visibility' is-defined='yes'/>
    <elf-symbol name='AFontMatcher_match' version='LIBANDROID' is-default-version='yes' type='func-type' binding='global-binding' visibility='default-visibility' is-defined='yes'/>
    <elf-symbol name='AFontMatcher_setFamilyVariant' version='LIBANDROID' is-default-version='yes' type='func-type' binding='global-binding' visibility='default-visibility' is-defined='yes'/>
    <elf-symbol name='AFontMatcher_setLocales' version='LIBANDROID' is-default-version='yes' type='func-type' binding='global-binding' visibility='default-visibility' is-defined='yes'/>
    <elf-symbol name='AFontMatcher_setStyle' version='LIBANDROID' is-default-version='yes' type='func-type' binding='global-binding' visibility='default-visibility' is-defined='yes'/>
    <elf-symbol name='AFont_close' version='LIBANDROID' is-default-version='yes' type='func-type' binding='global-binding' visibility='default-visibility' is-defined='yes'/>
    <elf-symbol name='AFont_getAxisCount' version='LIBANDROID' is-default-version='yes' type='func-type' binding='global-binding' visibility='default-visibility' is-defined='yes'/>
    <elf-symbol name='AFont_getAxisTag' version='LIBANDROID' is-default-version='yes' type='func-type' binding='global-binding' visibility='default-visibility' is-defined='yes'/>
    <elf-symbol name='AFont_getAxisValue' version='LIBANDROID' is-default-version='yes' type='func-type' binding='global-binding' visibility='default-visibility' is-defined='yes'/>
    <elf-symbol name='AFont_getCollectionIndex' version='LIBANDROID' is-default-version='yes' type='func-type' binding='global-binding' visibility='default-visibility' is-defined='yes'/>
    <elf-symbol name='AFont_getFontFilePath' version='LIBANDROID' is-default-version='yes' type='func-type' binding='global-binding' visibility='default-visibility' is-defined='yes'/>
    <elf-symbol name='AFont_getLocale' version='LIBANDROID' is-default-version='yes' type='func-type' binding='global-binding' visibility='default-visibility' is-defined='yes'/>
    <elf-symbol name='AFont_getWeight' version='LIBANDROID' is-default-version='yes' type='func-type' binding='global-binding' visibility='default-visibility' is-defined='yes'/>
    <elf-symbol name='AFont_isItalic' version='LIBANDROID' is-default-version='yes' type='func-type' binding='global-binding' visibility='default-visibility' is-defined='yes'/>
    <elf-symbol name='AHardwareBuffer_acquire' version='LIBANDROID' is-default-version='yes' type='func-type' binding='global-binding' visibility='default-visibility' is-defined='yes'/>
    <elf-symbol name='AHardwareBuffer_allocate' version='LIBANDROID' is-default-version='yes' type='func-type' binding='global-binding' visibility='default-visibility' is-defined='yes'/>
    <elf-symbol name='AHardwareBuffer_describe' version='LIBANDROID' is-default-version='yes' type='func-type' binding='global-binding' visibility='default-visibility' is-defined='yes'/>
    <elf-symbol name='AHardwareBuffer_fromHardwareBuffer' version='LIBANDROID' is-default-version='yes' type='func-type' binding='global-binding' visibility='default-visibility' is-defined='yes'/>
    <elf-symbol name='AHardwareBuffer_getNativeHandle' version='LIBANDROID' is-default-version='yes' type='func-type' binding='global-binding' visibility='default-visibility' is-defined='yes'/>
    <elf-symbol name='AHardwareBuffer_isSupported' version='LIBANDROID' is-default-version='yes' type='func-type' binding='global-binding' visibility='default-visibility' is-defined='yes'/>
    <elf-symbol name='AHardwareBuffer_lock' version='LIBANDROID' is-default-version='yes' type='func-type' binding='global-binding' visibility='default-visibility' is-defined='yes'/>
    <elf-symbol name='AHardwareBuffer_lockAndGetInfo' version='LIBANDROID' is-default-version='yes' type='func-type' binding='global-binding' visibility='default-visibility' is-defined='yes'/>
    <elf-symbol name='AHardwareBuffer_lockPlanes' version='LIBANDROID' is-default-version='yes' type='func-type' binding='global-binding' visibility='default-visibility' is-defined='yes'/>
    <elf-symbol name='AHardwareBuffer_recvHandleFromUnixSocket' version='LIBANDROID' is-default-version='yes' type='func-type' binding='global-binding' visibility='default-visibility' is-defined='yes'/>
    <elf-symbol name='AHardwareBuffer_release' version='LIBANDROID' is-default-version='yes' type='func-type' binding='global-binding' visibility='default-visibility' is-defined='yes'/>
    <elf-symbol name='AHardwareBuffer_sendHandleToUnixSocket' version='LIBANDROID' is-default-version='yes' type='func-type' binding='global-binding' visibility='default-visibility' is-defined='yes'/>
    <elf-symbol name='AHardwareBuffer_toHardwareBuffer' version='LIBANDROID' is-default-version='yes' type='func-type' binding='global-binding' visibility='default-visibility' is-defined='yes'/>
    <elf-symbol name='AHardwareBuffer_unlock' version='LIBANDROID' is-default-version='yes' type='func-type' binding='global-binding' visibility='default-visibility' is-defined='yes'/>
    <elf-symbol name='AInputEvent_getDeviceId' version='LIBANDROID' is-default-version='yes' type='func-type' binding='global-binding' visibility='default-visibility' is-defined='yes'/>
    <elf-symbol name='AInputEvent_getSource' version='LIBANDROID' is-default-version='yes' type='func-type' binding='global-binding' visibility='default-visibility' is-defined='yes'/>
    <elf-symbol name='AInputEvent_getType' version='LIBANDROID' is-default-version='yes' type='func-type' binding='global-binding' visibility='default-visibility' is-defined='yes'/>
    <elf-symbol name='AInputQueue_attachLooper' version='LIBANDROID' is-default-version='yes' type='func-type' binding='global-binding' visibility='default-visibility' is-defined='yes'/>
    <elf-symbol name='AInputQueue_detachLooper' version='LIBANDROID' is-default-version='yes' type='func-type' binding='global-binding' visibility='default-visibility' is-defined='yes'/>
    <elf-symbol name='AInputQueue_finishEvent' version='LIBANDROID' is-default-version='yes' type='func-type' binding='global-binding' visibility='default-visibility' is-defined='yes'/>
    <elf-symbol name='AInputQueue_getEvent' version='LIBANDROID' is-default-version='yes' type='func-type' binding='global-binding' visibility='default-visibility' is-defined='yes'/>
    <elf-symbol name='AInputQueue_hasEvents' version='LIBANDROID' is-default-version='yes' type='func-type' binding='global-binding' visibility='default-visibility' is-defined='yes'/>
    <elf-symbol name='AInputQueue_preDispatchEvent' version='LIBANDROID' is-default-version='yes' type='func-type' binding='global-binding' visibility='default-visibility' is-defined='yes'/>
    <elf-symbol name='AKeyEvent_getAction' version='LIBANDROID' is-default-version='yes' type='func-type' binding='global-binding' visibility='default-visibility' is-defined='yes'/>
    <elf-symbol name='AKeyEvent_getDownTime' version='LIBANDROID' is-default-version='yes' type='func-type' binding='global-binding' visibility='default-visibility' is-defined='yes'/>
    <elf-symbol name='AKeyEvent_getEventTime' version='LIBANDROID' is-default-version='yes' type='func-type' binding='global-binding' visibility='default-visibility' is-defined='yes'/>
    <elf-symbol name='AKeyEvent_getFlags' version='LIBANDROID' is-default-version='yes' type='func-type' binding='global-binding' visibility='default-visibility' is-defined='yes'/>
    <elf-symbol name='AKeyEvent_getKeyCode' version='LIBANDROID' is-default-version='yes' type='func-type' binding='global-binding' visibility='default-visibility' is-defined='yes'/>
    <elf-symbol name='AKeyEvent_getMetaState' version='LIBANDROID' is-default-version='yes' type='func-type' binding='global-binding' visibility='default-visibility' is-defined='yes'/>
    <elf-symbol name='AKeyEvent_getRepeatCount' version='LIBANDROID' is-default-version='yes' type='func-type' binding='global-binding' visibility='default-visibility' is-defined='yes'/>
    <elf-symbol name='AKeyEvent_getScanCode' version='LIBANDROID' is-default-version='yes' type='func-type' binding='global-binding' visibility='default-visibility' is-defined='yes'/>
    <elf-symbol name='ALooper_acquire' version='LIBANDROID' is-default-version='yes' type='func-type' binding='global-binding' visibility='default-visibility' is-defined='yes'/>
    <elf-symbol name='ALooper_addFd' version='LIBANDROID' is-default-version='yes' type='func-type' binding='global-binding' visibility='default-visibility' is-defined='yes'/>
    <elf-symbol name='ALooper_forThread' version='LIBANDROID' is-default-version='yes' type='func-type' binding='global-binding' visibility='default-visibility' is-defined='yes'/>
    <elf-symbol name='ALooper_pollAll' version='LIBANDROID' is-default-version='yes' type='func-type' binding='global-binding' visibility='default-visibility' is-defined='yes'/>
    <elf-symbol name='ALooper_pollOnce' version='LIBANDROID' is-default-version='yes' type='func-type' binding='global-binding' visibility='default-visibility' is-defined='yes'/>
    <elf-symbol name='ALooper_prepare' version='LIBANDROID' is-default-version='yes' type='func-type' binding='global-binding' visibility='default-visibility' is-defined='yes'/>
    <elf-symbol name='ALooper_release' version='LIBANDROID' is-default-version='yes' type='func-type' binding='global-binding' visibility='default-visibility' is-defined='yes'/>
    <elf-symbol name='ALooper_removeFd' version='LIBANDROID' is-default-version='yes' type='func-type' binding='global-binding' visibility='default-visibility' is-defined='yes'/>
    <elf-symbol name='ALooper_wake' version='LIBANDROID' is-default-version='yes' type='func-type' binding='global-binding' visibility='default-visibility' is-defined='yes'/>
    <elf-symbol name='AMotionEvent_getAction' version='LIBANDROID' is-default-version='yes' type='func-type' binding='global-binding' visibility='default-visibility' is-defined='yes'/>
    <elf-symbol name='AMotionEvent_getAxisValue' version='LIBANDROID' is-default-version='yes' type='func-type' binding='global-binding' visibility='default-visibility' is-defined='yes'/>
    <elf-symbol name='AMotionEvent_getButtonState' version='LIBANDROID' is-default-version='yes' type='func-type' binding='global-binding' visibility='default-visibility' is-defined='yes'/>
    <elf-symbol name='AMotionEvent_getDownTime' version='LIBANDROID' is-default-version='yes' type='func-type' binding='global-binding' visibility='default-visibility' is-defined='yes'/>
    <elf-symbol name='AMotionEvent_getEdgeFlags' version='LIBANDROID' is-default-version='yes' type='func-type' binding='global-binding' visibility='default-visibility' is-defined='yes'/>
    <elf-symbol name='AMotionEvent_getEventTime' version='LIBANDROID' is-default-version='yes' type='func-type' binding='global-binding' visibility='default-visibility' is-defined='yes'/>
    <elf-symbol name='AMotionEvent_getFlags' version='LIBANDROID' is-default-version='yes' type='func-type' binding='global-binding' visibility='default-visibility' is-defined='yes'/>
    <elf-symbol name='AMotionEvent_getHistoricalAxisValue' version='LIBANDROID' is-default-version='yes' type='func-type' binding='global-binding' visibility='default-visibility' is-defined='yes'/>
    <elf-symbol name='AMotionEvent_getHistoricalEventTime' version='LIBANDROID' is-default-version='yes' type='func-type' binding='global-binding' visibility='default-visibility' is-defined='yes'/>
    <elf-symbol name='AMotionEvent_getHistoricalOrientation' version='LIBANDROID' is-default-version='yes' type='func-type' binding='global-binding' visibility='default-visibility' is-defined='yes'/>
    <elf-symbol name='AMotionEvent_getHistoricalPressure' version='LIBANDROID' is-default-version='yes' type='func-type' binding='global-binding' visibility='default-visibility' is-defined='yes'/>
    <elf-symbol name='AMotionEvent_getHistoricalRawX' version='LIBANDROID' is-default-version='yes' type='func-type' binding='global-binding' visibility='default-visibility' is-defined='yes'/>
    <elf-symbol name='AMotionEvent_getHistoricalRawY' version='LIBANDROID' is-default-version='yes' type='func-type' binding='global-binding' visibility='default-visibility' is-defined='yes'/>
    <elf-symbol name='AMotionEvent_getHistoricalSize' version='LIBANDROID' is-default-version='yes' type='func-type' binding='global-binding' visibility='default-visibility' is-defined='yes'/>
    <elf-symbol name='AMotionEvent_getHistoricalToolMajor' version='LIBANDROID' is-default-version='yes' type='func-type' binding='global-binding' visibility='default-visibility' is-defined='yes'/>
    <elf-symbol name='AMotionEvent_getHistoricalToolMinor' version='LIBANDROID' is-default-version='yes' type='func-type' binding='global-binding' visibility='default-visibility' is-defined='yes'/>
    <elf-symbol name='AMotionEvent_getHistoricalTouchMajor' version='LIBANDROID' is-default-version='yes' type='func-type' binding='global-binding' visibility='default-visibility' is-defined='yes'/>
    <elf-symbol name='AMotionEvent_getHistoricalTouchMinor' version='LIBANDROID' is-default-version='yes' type='func-type' binding='global-binding' visibility='default-visibility' is-defined='yes'/>
    <elf-symbol name='AMotionEvent_getHistoricalX' version='LIBANDROID' is-default-version='yes' type='func-type' binding='global-binding' visibility='default-visibility' is-defined='yes'/>
    <elf-symbol name='AMotionEvent_getHistoricalY' version='LIBANDROID' is-default-version='yes' type='func-type' binding='global-binding' visibility='default-visibility' is-defined='yes'/>
    <elf-symbol name='AMotionEvent_getHistorySize' version='LIBANDROID' is-default-version='yes' type='func-type' binding='global-binding' visibility='default-visibility' is-defined='yes'/>
    <elf-symbol name='AMotionEvent_getMetaState' version='LIBANDROID' is-default-version='yes' type='func-type' binding='global-binding' visibility='default-visibility' is-defined='yes'/>
    <elf-symbol name='AMotionEvent_getOrientation' version='LIBANDROID' is-default-version='yes' type='func-type' binding='global-binding' visibility='default-visibility' is-defined='yes'/>
    <elf-symbol name='AMotionEvent_getPointerCount' version='LIBANDROID' is-default-version='yes' type='func-type' binding='global-binding' visibility='default-visibility' is-defined='yes'/>
    <elf-symbol name='AMotionEvent_getPointerId' version='LIBANDROID' is-default-version='yes' type='func-type' binding='global-binding' visibility='default-visibility' is-defined='yes'/>
    <elf-symbol name='AMotionEvent_getPressure' version='LIBANDROID' is-default-version='yes' type='func-type' binding='global-binding' visibility='default-visibility' is-defined='yes'/>
    <elf-symbol name='AMotionEvent_getRawX' version='LIBANDROID' is-default-version='yes' type='func-type' binding='global-binding' visibility='default-visibility' is-defined='yes'/>
    <elf-symbol name='AMotionEvent_getRawY' version='LIBANDROID' is-default-version='yes' type='func-type' binding='global-binding' visibility='default-visibility' is-defined='yes'/>
    <elf-symbol name='AMotionEvent_getSize' version='LIBANDROID' is-default-version='yes' type='func-type' binding='global-binding' visibility='default-visibility' is-defined='yes'/>
    <elf-symbol name='AMotionEvent_getToolMajor' version='LIBANDROID' is-default-version='yes' type='func-type' binding='global-binding' visibility='default-visibility' is-defined='yes'/>
    <elf-symbol name='AMotionEvent_getToolMinor' version='LIBANDROID' is-default-version='yes' type='func-type' binding='global-binding' visibility='default-visibility' is-defined='yes'/>
    <elf-symbol name='AMotionEvent_getToolType' version='LIBANDROID' is-default-version='yes' type='func-type' binding='global-binding' visibility='default-visibility' is-defined='yes'/>
    <elf-symbol name='AMotionEvent_getTouchMajor' version='LIBANDROID' is-default-version='yes' type='func-type' binding='global-binding' visibility='default-visibility' is-defined='yes'/>
    <elf-symbol name='AMotionEvent_getTouchMinor' version='LIBANDROID' is-default-version='yes' type='func-type' binding='global-binding' visibility='default-visibility' is-defined='yes'/>
    <elf-symbol name='AMotionEvent_getX' version='LIBANDROID' is-default-version='yes' type='func-type' binding='global-binding' visibility='default-visibility' is-defined='yes'/>
    <elf-symbol name='AMotionEvent_getXOffset' version='LIBANDROID' is-default-version='yes' type='func-type' binding='global-binding' visibility='default-visibility' is-defined='yes'/>
    <elf-symbol name='AMotionEvent_getXPrecision' version='LIBANDROID' is-default-version='yes' type='func-type' binding='global-binding' visibility='default-visibility' is-defined='yes'/>
    <elf-symbol name='AMotionEvent_getY' version='LIBANDROID' is-default-version='yes' type='func-type' binding='global-binding' visibility='default-visibility' is-defined='yes'/>
    <elf-symbol name='AMotionEvent_getYOffset' version='LIBANDROID' is-default-version='yes' type='func-type' binding='global-binding' visibility='default-visibility' is-defined='yes'/>
    <elf-symbol name='AMotionEvent_getYPrecision' version='LIBANDROID' is-default-version='yes' type='func-type' binding='global-binding' visibility='default-visibility' is-defined='yes'/>
    <elf-symbol name='ANativeActivity_finish' version='LIBANDROID' is-default-version='yes' type='func-type' binding='global-binding' visibility='default-visibility' is-defined='yes'/>
    <elf-symbol name='ANativeActivity_hideSoftInput' version='LIBANDROID' is-default-version='yes' type='func-type' binding='global-binding' visibility='default-visibility' is-defined='yes'/>
    <elf-symbol name='ANativeActivity_setWindowFlags' version='LIBANDROID' is-default-version='yes' type='func-type' binding='global-binding' visibility='default-visibility' is-defined='yes'/>
    <elf-symbol name='ANativeActivity_setWindowFormat' version='LIBANDROID' is-default-version='yes' type='func-type' binding='global-binding' visibility='default-visibility' is-defined='yes'/>
    <elf-symbol name='ANativeActivity_showSoftInput' version='LIBANDROID' is-default-version='yes' type='func-type' binding='global-binding' visibility='default-visibility' is-defined='yes'/>
    <elf-symbol name='ANativeWindow_acquire' version='LIBANDROID' is-default-version='yes' type='func-type' binding='global-binding' visibility='default-visibility' is-defined='yes'/>
    <elf-symbol name='ANativeWindow_fromSurface' version='LIBANDROID' is-default-version='yes' type='func-type' binding='global-binding' visibility='default-visibility' is-defined='yes'/>
    <elf-symbol name='ANativeWindow_getFormat' version='LIBANDROID' is-default-version='yes' type='func-type' binding='global-binding' visibility='default-visibility' is-defined='yes'/>
    <elf-symbol name='ANativeWindow_getHeight' version='LIBANDROID' is-default-version='yes' type='func-type' binding='global-binding' visibility='default-visibility' is-defined='yes'/>
    <elf-symbol name='ANativeWindow_getWidth' version='LIBANDROID' is-default-version='yes' type='func-type' binding='global-binding' visibility='default-visibility' is-defined='yes'/>
    <elf-symbol name='ANativeWindow_lock' version='LIBANDROID' is-default-version='yes' type='func-type' binding='global-binding' visibility='default-visibility' is-defined='yes'/>
    <elf-symbol name='ANativeWindow_release' version='LIBANDROID' is-default-version='yes' type='func-type' binding='global-binding' visibility='default-visibility' is-defined='yes'/>
    <elf-symbol name='ANativeWindow_setBuffersGeometry' version='LIBANDROID' is-default-version='yes' type='func-type' binding='global-binding' visibility='default-visibility' is-defined='yes'/>
    <elf-symbol name='ANativeWindow_toSurface' version='LIBANDROID' is-default-version='yes' type='func-type' binding='global-binding' visibility='default-visibility' is-defined='yes'/>
    <elf-symbol name='ANativeWindow_unlockAndPost' version='LIBANDROID' is-default-version='yes' type='func-type' binding='global-binding' visibility='default-visibility' is-defined='yes'/>
    <elf-symbol name='AObbInfo_delete' version='LIBANDROID' is-default-version='yes' type='func-type' binding='global-binding' visibility='default-visibility' is-defined='yes'/>
    <elf-symbol name='AObbInfo_getFlags' version='LIBANDROID' is-default-version='yes' type='func-type' binding='global-binding' visibility='default-visibility' is-defined='yes'/>
    <elf-symbol name='AObbInfo_getPackageName' version='LIBANDROID' is-default-version='yes' type='func-type' binding='global-binding' visibility='default-visibility' is-defined='yes'/>
    <elf-symbol name='AObbInfo_getVersion' version='LIBANDROID' is-default-version='yes' type='func-type' binding='global-binding' visibility='default-visibility' is-defined='yes'/>
    <elf-symbol name='AObbScanner_getObbInfo' version='LIBANDROID' is-default-version='yes' type='func-type' binding='global-binding' visibility='default-visibility' is-defined='yes'/>
    <elf-symbol name='ASensorEventQueue_disableSensor' version='LIBANDROID' is-default-version='yes' type='func-type' binding='global-binding' visibility='default-visibility' is-defined='yes'/>
    <elf-symbol name='ASensorEventQueue_enableSensor' version='LIBANDROID' is-default-version='yes' type='func-type' binding='global-binding' visibility='default-visibility' is-defined='yes'/>
    <elf-symbol name='ASensorEventQueue_getEvents' version='LIBANDROID' is-default-version='yes' type='func-type' binding='global-binding' visibility='default-visibility' is-defined='yes'/>
    <elf-symbol name='ASensorEventQueue_hasEvents' version='LIBANDROID' is-default-version='yes' type='func-type' binding='global-binding' visibility='default-visibility' is-defined='yes'/>
    <elf-symbol name='ASensorEventQueue_registerSensor' version='LIBANDROID' is-default-version='yes' type='func-type' binding='global-binding' visibility='default-visibility' is-defined='yes'/>
    <elf-symbol name='ASensorEventQueue_requestAdditionalInfoEvents' version='LIBANDROID' is-default-version='yes' type='func-type' binding='global-binding' visibility='default-visibility' is-defined='yes'/>
    <elf-symbol name='ASensorEventQueue_setEventRate' version='LIBANDROID' is-default-version='yes' type='func-type' binding='global-binding' visibility='default-visibility' is-defined='yes'/>
    <elf-symbol name='ASensorManager_configureDirectReport' version='LIBANDROID' is-default-version='yes' type='func-type' binding='global-binding' visibility='default-visibility' is-defined='yes'/>
    <elf-symbol name='ASensorManager_createEventQueue' version='LIBANDROID' is-default-version='yes' type='func-type' binding='global-binding' visibility='default-visibility' is-defined='yes'/>
    <elf-symbol name='ASensorManager_createHardwareBufferDirectChannel' version='LIBANDROID' is-default-version='yes' type='func-type' binding='global-binding' visibility='default-visibility' is-defined='yes'/>
    <elf-symbol name='ASensorManager_createSharedMemoryDirectChannel' version='LIBANDROID' is-default-version='yes' type='func-type' binding='global-binding' visibility='default-visibility' is-defined='yes'/>
    <elf-symbol name='ASensorManager_destroyDirectChannel' version='LIBANDROID' is-default-version='yes' type='func-type' binding='global-binding' visibility='default-visibility' is-defined='yes'/>
    <elf-symbol name='ASensorManager_destroyEventQueue' version='LIBANDROID' is-default-version='yes' type='func-type' binding='global-binding' visibility='default-visibility' is-defined='yes'/>
    <elf-symbol name='ASensorManager_getDefaultSensor' version='LIBANDROID' is-default-version='yes' type='func-type' binding='global-binding' visibility='default-visibility' is-defined='yes'/>
    <elf-symbol name='ASensorManager_getDefaultSensorEx' version='LIBANDROID' is-default-version='yes' type='func-type' binding='global-binding' visibility='default-visibility' is-defined='yes'/>
    <elf-symbol name='ASensorManager_getInstance' version='LIBANDROID' is-default-version='yes' type='func-type' binding='global-binding' visibility='default-visibility' is-defined='yes'/>
    <elf-symbol name='ASensorManager_getInstanceForPackage' version='LIBANDROID' is-default-version='yes' type='func-type' binding='global-binding' visibility='default-visibility' is-defined='yes'/>
    <elf-symbol name='ASensorManager_getSensorList' version='LIBANDROID' is-default-version='yes' type='func-type' binding='global-binding' visibility='default-visibility' is-defined='yes'/>
    <elf-symbol name='ASensor_getFifoMaxEventCount' version='LIBANDROID' is-default-version='yes' type='func-type' binding='global-binding' visibility='default-visibility' is-defined='yes'/>
    <elf-symbol name='ASensor_getFifoReservedEventCount' version='LIBANDROID' is-default-version='yes' type='func-type' binding='global-binding' visibility='default-visibility' is-defined='yes'/>
    <elf-symbol name='ASensor_getHandle' version='LIBANDROID' is-default-version='yes' type='func-type' binding='global-binding' visibility='default-visibility' is-defined='yes'/>
    <elf-symbol name='ASensor_getHighestDirectReportRateLevel' version='LIBANDROID' is-default-version='yes' type='func-type' binding='global-binding' visibility='default-visibility' is-defined='yes'/>
    <elf-symbol name='ASensor_getMinDelay' version='LIBANDROID' is-default-version='yes' type='func-type' binding='global-binding' visibility='default-visibility' is-defined='yes'/>
    <elf-symbol name='ASensor_getName' version='LIBANDROID' is-default-version='yes' type='func-type' binding='global-binding' visibility='default-visibility' is-defined='yes'/>
    <elf-symbol name='ASensor_getReportingMode' version='LIBANDROID' is-default-version='yes' type='func-type' binding='global-binding' visibility='default-visibility' is-defined='yes'/>
    <elf-symbol name='ASensor_getResolution' version='LIBANDROID' is-default-version='yes' type='func-type' binding='global-binding' visibility='default-visibility' is-defined='yes'/>
    <elf-symbol name='ASensor_getStringType' version='LIBANDROID' is-default-version='yes' type='func-type' binding='global-binding' visibility='default-visibility' is-defined='yes'/>
    <elf-symbol name='ASensor_getType' version='LIBANDROID' is-default-version='yes' type='func-type' binding='global-binding' visibility='default-visibility' is-defined='yes'/>
    <elf-symbol name='ASensor_getVendor' version='LIBANDROID' is-default-version='yes' type='func-type' binding='global-binding' visibility='default-visibility' is-defined='yes'/>
    <elf-symbol name='ASensor_isDirectChannelTypeSupported' version='LIBANDROID' is-default-version='yes' type='func-type' binding='global-binding' visibility='default-visibility' is-defined='yes'/>
    <elf-symbol name='ASensor_isWakeUpSensor' version='LIBANDROID' is-default-version='yes' type='func-type' binding='global-binding' visibility='default-visibility' is-defined='yes'/>
    <elf-symbol name='ASharedMemory_create' version='LIBANDROID' is-default-version='yes' type='func-type' binding='global-binding' visibility='default-visibility' is-defined='yes'/>
    <elf-symbol name='ASharedMemory_dupFromJava' version='LIBANDROID' is-default-version='yes' type='func-type' binding='global-binding' visibility='default-visibility' is-defined='yes'/>
    <elf-symbol name='ASharedMemory_getSize' version='LIBANDROID' is-default-version='yes' type='func-type' binding='global-binding' visibility='default-visibility' is-defined='yes'/>
    <elf-symbol name='ASharedMemory_setProt' version='LIBANDROID' is-default-version='yes' type='func-type' binding='global-binding' visibility='default-visibility' is-defined='yes'/>
    <elf-symbol name='AStorageManager_delete' version='LIBANDROID' is-default-version='yes' type='func-type' binding='global-binding' visibility='default-visibility' is-defined='yes'/>
    <elf-symbol name='AStorageManager_getMountedObbPath' version='LIBANDROID' is-default-version='yes' type='func-type' binding='global-binding' visibility='default-visibility' is-defined='yes'/>
    <elf-symbol name='AStorageManager_isObbMounted' version='LIBANDROID' is-default-version='yes' type='func-type' binding='global-binding' visibility='default-visibility' is-defined='yes'/>
    <elf-symbol name='AStorageManager_mountObb' version='LIBANDROID' is-default-version='yes' type='func-type' binding='global-binding' visibility='default-visibility' is-defined='yes'/>
    <elf-symbol name='AStorageManager_new' version='LIBANDROID' is-default-version='yes' type='func-type' binding='global-binding' visibility='default-visibility' is-defined='yes'/>
    <elf-symbol name='AStorageManager_unmountObb' version='LIBANDROID' is-default-version='yes' type='func-type' binding='global-binding' visibility='default-visibility' is-defined='yes'/>
    <elf-symbol name='ASurfaceControl_create' version='LIBANDROID' is-default-version='yes' type='func-type' binding='global-binding' visibility='default-visibility' is-defined='yes'/>
    <elf-symbol name='ASurfaceControl_createFromWindow' version='LIBANDROID' is-default-version='yes' type='func-type' binding='global-binding' visibility='default-visibility' is-defined='yes'/>
    <elf-symbol name='ASurfaceControl_release' version='LIBANDROID' is-default-version='yes' type='func-type' binding='global-binding' visibility='default-visibility' is-defined='yes'/>
    <elf-symbol name='ASurfaceTexture_acquireANativeWindow' version='LIBANDROID' is-default-version='yes' type='func-type' binding='global-binding' visibility='default-visibility' is-defined='yes'/>
    <elf-symbol name='ASurfaceTexture_attachToGLContext' version='LIBANDROID' is-default-version='yes' type='func-type' binding='global-binding' visibility='default-visibility' is-defined='yes'/>
    <elf-symbol name='ASurfaceTexture_detachFromGLContext' version='LIBANDROID' is-default-version='yes' type='func-type' binding='global-binding' visibility='default-visibility' is-defined='yes'/>
    <elf-symbol name='ASurfaceTexture_fromSurfaceTexture' version='LIBANDROID' is-default-version='yes' type='func-type' binding='global-binding' visibility='default-visibility' is-defined='yes'/>
    <elf-symbol name='ASurfaceTexture_getTimestamp' version='LIBANDROID' is-default-version='yes' type='func-type' binding='global-binding' visibility='default-visibility' is-defined='yes'/>
    <elf-symbol name='ASurfaceTexture_getTransformMatrix' version='LIBANDROID' is-default-version='yes' type='func-type' binding='global-binding' visibility='default-visibility' is-defined='yes'/>
    <elf-symbol name='ASurfaceTexture_release' version='LIBANDROID' is-default-version='yes' type='func-type' binding='global-binding' visibility='default-visibility' is-defined='yes'/>
    <elf-symbol name='ASurfaceTexture_updateTexImage' version='LIBANDROID' is-default-version='yes' type='func-type' binding='global-binding' visibility='default-visibility' is-defined='yes'/>
    <elf-symbol name='ASurfaceTransactionStats_getASurfaceControls' version='LIBANDROID' is-default-version='yes' type='func-type' binding='global-binding' visibility='default-visibility' is-defined='yes'/>
    <elf-symbol name='ASurfaceTransactionStats_getAcquireTime' version='LIBANDROID' is-default-version='yes' type='func-type' binding='global-binding' visibility='default-visibility' is-defined='yes'/>
    <elf-symbol name='ASurfaceTransactionStats_getLatchTime' version='LIBANDROID' is-default-version='yes' type='func-type' binding='global-binding' visibility='default-visibility' is-defined='yes'/>
    <elf-symbol name='ASurfaceTransactionStats_getPresentFenceFd' version='LIBANDROID' is-default-version='yes' type='func-type' binding='global-binding' visibility='default-visibility' is-defined='yes'/>
    <elf-symbol name='ASurfaceTransactionStats_getPreviousReleaseFenceFd' version='LIBANDROID' is-default-version='yes' type='func-type' binding='global-binding' visibility='default-visibility' is-defined='yes'/>
    <elf-symbol name='ASurfaceTransactionStats_releaseASurfaceControls' version='LIBANDROID' is-default-version='yes' type='func-type' binding='global-binding' visibility='default-visibility' is-defined='yes'/>
    <elf-symbol name='ASurfaceTransaction_apply' version='LIBANDROID' is-default-version='yes' type='func-type' binding='global-binding' visibility='default-visibility' is-defined='yes'/>
    <elf-symbol name='ASurfaceTransaction_create' version='LIBANDROID' is-default-version='yes' type='func-type' binding='global-binding' visibility='default-visibility' is-defined='yes'/>
    <elf-symbol name='ASurfaceTransaction_delete' version='LIBANDROID' is-default-version='yes' type='func-type' binding='global-binding' visibility='default-visibility' is-defined='yes'/>
    <elf-symbol name='ASurfaceTransaction_reparent' version='LIBANDROID' is-default-version='yes' type='func-type' binding='global-binding' visibility='default-visibility' is-defined='yes'/>
    <elf-symbol name='ASurfaceTransaction_setBuffer' version='LIBANDROID' is-default-version='yes' type='func-type' binding='global-binding' visibility='default-visibility' is-defined='yes'/>
    <elf-symbol name='ASurfaceTransaction_setBufferAlpha' version='LIBANDROID' is-default-version='yes' type='func-type' binding='global-binding' visibility='default-visibility' is-defined='yes'/>
    <elf-symbol name='ASurfaceTransaction_setBufferDataSpace' version='LIBANDROID' is-default-version='yes' type='func-type' binding='global-binding' visibility='default-visibility' is-defined='yes'/>
    <elf-symbol name='ASurfaceTransaction_setBufferTransparency' version='LIBANDROID' is-default-version='yes' type='func-type' binding='global-binding' visibility='default-visibility' is-defined='yes'/>
    <elf-symbol name='ASurfaceTransaction_setColor' version='LIBANDROID' is-default-version='yes' type='func-type' binding='global-binding' visibility='default-visibility' is-defined='yes'/>
    <elf-symbol name='ASurfaceTransaction_setDamageRegion' version='LIBANDROID' is-default-version='yes' type='func-type' binding='global-binding' visibility='default-visibility' is-defined='yes'/>
    <elf-symbol name='ASurfaceTransaction_setDesiredPresentTime' version='LIBANDROID' is-default-version='yes' type='func-type' binding='global-binding' visibility='default-visibility' is-defined='yes'/>
    <elf-symbol name='ASurfaceTransaction_setGeometry' version='LIBANDROID' is-default-version='yes' type='func-type' binding='global-binding' visibility='default-visibility' is-defined='yes'/>
    <elf-symbol name='ASurfaceTransaction_setHdrMetadata_cta861_3' version='LIBANDROID' is-default-version='yes' type='func-type' binding='global-binding' visibility='default-visibility' is-defined='yes'/>
    <elf-symbol name='ASurfaceTransaction_setHdrMetadata_smpte2086' version='LIBANDROID' is-default-version='yes' type='func-type' binding='global-binding' visibility='default-visibility' is-defined='yes'/>
    <elf-symbol name='ASurfaceTransaction_setOnComplete' version='LIBANDROID' is-default-version='yes' type='func-type' binding='global-binding' visibility='default-visibility' is-defined='yes'/>
    <elf-symbol name='ASurfaceTransaction_setVisibility' version='LIBANDROID' is-default-version='yes' type='func-type' binding='global-binding' visibility='default-visibility' is-defined='yes'/>
    <elf-symbol name='ASurfaceTransaction_setZOrder' version='LIBANDROID' is-default-version='yes' type='func-type' binding='global-binding' visibility='default-visibility' is-defined='yes'/>
    <elf-symbol name='ASystemFontIterator_close' version='LIBANDROID' is-default-version='yes' type='func-type' binding='global-binding' visibility='default-visibility' is-defined='yes'/>
    <elf-symbol name='ASystemFontIterator_next' version='LIBANDROID' is-default-version='yes' type='func-type' binding='global-binding' visibility='default-visibility' is-defined='yes'/>
    <elf-symbol name='ASystemFontIterator_open' version='LIBANDROID' is-default-version='yes' type='func-type' binding='global-binding' visibility='default-visibility' is-defined='yes'/>
    <elf-symbol name='ATrace_beginAsyncSection' version='LIBANDROID' is-default-version='yes' type='func-type' binding='global-binding' visibility='default-visibility' is-defined='yes'/>
    <elf-symbol name='ATrace_beginSection' version='LIBANDROID' is-default-version='yes' type='func-type' binding='global-binding' visibility='default-visibility' is-defined='yes'/>
    <elf-symbol name='ATrace_endAsyncSection' version='LIBANDROID' is-default-version='yes' type='func-type' binding='global-binding' visibility='default-visibility' is-defined='yes'/>
    <elf-symbol name='ATrace_endSection' version='LIBANDROID' is-default-version='yes' type='func-type' binding='global-binding' visibility='default-visibility' is-defined='yes'/>
    <elf-symbol name='ATrace_isEnabled' version='LIBANDROID' is-default-version='yes' type='func-type' binding='global-binding' visibility='default-visibility' is-defined='yes'/>
    <elf-symbol name='ATrace_setCounter' version='LIBANDROID' is-default-version='yes' type='func-type' binding='global-binding' visibility='default-visibility' is-defined='yes'/>
    <elf-symbol name='android_getaddrinfofornetwork' version='LIBANDROID' is-default-version='yes' type='func-type' binding='global-binding' visibility='default-visibility' is-defined='yes'/>
    <elf-symbol name='android_res_cancel' version='LIBANDROID' is-default-version='yes' type='func-type' binding='global-binding' visibility='default-visibility' is-defined='yes'/>
    <elf-symbol name='android_res_nquery' version='LIBANDROID' is-default-version='yes' type='func-type' binding='global-binding' visibility='default-visibility' is-defined='yes'/>
    <elf-symbol name='android_res_nresult' version='LIBANDROID' is-default-version='yes' type='func-type' binding='global-binding' visibility='default-visibility' is-defined='yes'/>
    <elf-symbol name='android_res_nsend' version='LIBANDROID' is-default-version='yes' type='func-type' binding='global-binding' visibility='default-visibility' is-defined='yes'/>
    <elf-symbol name='android_setprocnetwork' version='LIBANDROID' is-default-version='yes' type='func-type' binding='global-binding' visibility='default-visibility' is-defined='yes'/>
    <elf-symbol name='android_setsocknetwork' version='LIBANDROID' is-default-version='yes' type='func-type' binding='global-binding' visibility='default-visibility' is-defined='yes'/>
  </elf-function-symbols>
  <abi-instr address-size='32' path='frameworks/base/libs/storage/IMountService.cpp' language='LANG_C_plus_plus_14'>
    <array-type-def dimensions='1' type-id='801a266d' size-in-bits='560' id='5da7196d'>
      <subrange length='35' lower-bound='0' upper-bound='34' type-id='7ff19f0f' id='6e6845b5'/>
    </array-type-def>
    <pointer-type-def type-id='22d61b29' size-in-bits='32' id='9892ee61'/>
    <pointer-type-def type-id='7807f886' size-in-bits='32' id='27ec51bc'/>
    <qualified-type-def type-id='9cb9149f' const='yes' id='dee60e2c'/>
    <reference-type-def kind='lvalue' type-id='dee60e2c' size-in-bits='32' id='ee2819be'/>
    <reference-type-def kind='lvalue' type-id='9cb9149f' size-in-bits='32' id='705b9f3b'/>
    <reference-type-def kind='lvalue' type-id='26924198' size-in-bits='32' id='763d7e1a'/>
    <pointer-type-def type-id='6807f016' size-in-bits='32' id='ba5970bc'/>
    <reference-type-def kind='lvalue' type-id='a2aa88e3' size-in-bits='32' id='cab8cdd7'/>
    <reference-type-def kind='rvalue' type-id='a2aa88e3' size-in-bits='32' id='11ec3263'/>
    <pointer-type-def type-id='a2aa88e3' size-in-bits='32' id='beb8baf3'/>
    <reference-type-def kind='lvalue' type-id='3f075162' size-in-bits='32' id='4cb59d14'/>
    <reference-type-def kind='rvalue' type-id='3f075162' size-in-bits='32' id='f3e675b6'/>
    <pointer-type-def type-id='3f075162' size-in-bits='32' id='40b58a30'/>
    <qualified-type-def type-id='bf075117' const='yes' id='d11f779a'/>
    <pointer-type-def type-id='d11f779a' size-in-bits='32' id='e4896a10'/>
    <qualified-type-def type-id='6807f016' const='yes' id='6cf1e15d'/>
    <reference-type-def kind='lvalue' type-id='6cf1e15d' size-in-bits='32' id='fbc5f4a1'/>
    <qualified-type-def type-id='a2aa88e3' const='yes' id='e2905de8'/>
    <reference-type-def kind='lvalue' type-id='e2905de8' size-in-bits='32' id='7743ab4a'/>
    <pointer-type-def type-id='e2905de8' size-in-bits='32' id='6b439866'/>
    <qualified-type-def type-id='3f075162' const='yes' id='1a6371f3'/>
    <reference-type-def kind='lvalue' type-id='1a6371f3' size-in-bits='32' id='5f8c324f'/>
    <pointer-type-def type-id='1a6371f3' size-in-bits='32' id='638c389b'/>
    <qualified-type-def type-id='452328e6' const='yes' id='08f75d23'/>
    <pointer-type-def type-id='08f75d23' size-in-bits='32' id='2667752b'/>
    <qualified-type-def type-id='5ddaf272' const='yes' id='0cbf5aab'/>
    <pointer-type-def type-id='0cbf5aab' size-in-bits='32' id='923b7913'/>
    <qualified-type-def type-id='a1aaab37' const='yes' id='5649c4ec'/>
    <pointer-type-def type-id='5649c4ec' size-in-bits='32' id='9c20c3b2'/>
    <qualified-type-def type-id='e4c905b6' const='yes' id='0f556883'/>
    <reference-type-def kind='lvalue' type-id='0f556883' size-in-bits='32' id='c873bbbf'/>
    <pointer-type-def type-id='0f556883' size-in-bits='32' id='cc73c20b'/>
    <qualified-type-def type-id='34e3553c' const='yes' id='9d0984bf'/>
    <reference-type-def kind='lvalue' type-id='9d0984bf' size-in-bits='32' id='cefbbcdb'/>
    <pointer-type-def type-id='9d0984bf' size-in-bits='32' id='cafbb68f'/>
    <qualified-type-def type-id='4547cff8' const='yes' id='fc5a3b88'/>
    <reference-type-def kind='lvalue' type-id='fc5a3b88' size-in-bits='32' id='f00bf2ea'/>
    <pointer-type-def type-id='4aafb922' size-in-bits='32' id='9aa04798'/>
    <reference-type-def kind='lvalue' type-id='452328e6' size-in-bits='32' id='84e43118'/>
    <pointer-type-def type-id='452328e6' size-in-bits='32' id='80e42acc'/>
    <pointer-type-def type-id='5ddaf272' size-in-bits='32' id='606e1a50'/>
    <pointer-type-def type-id='a1aaab37' size-in-bits='32' id='97e1a22f'/>
    <reference-type-def kind='lvalue' type-id='e4c905b6' size-in-bits='32' id='55daf9c8'/>
    <pointer-type-def type-id='e4c905b6' size-in-bits='32' id='51daf37c'/>
    <reference-type-def kind='lvalue' type-id='34e3553c' size-in-bits='32' id='ef24a0d6'/>
    <reference-type-def kind='rvalue' type-id='34e3553c' size-in-bits='32' id='66a959d0'/>
    <pointer-type-def type-id='34e3553c' size-in-bits='32' id='fb24b3ba'/>
    <reference-type-def kind='lvalue' type-id='4547cff8' size-in-bits='32' id='ff242d41'/>
    <pointer-type-def type-id='aa12d1ba' size-in-bits='32' id='822cd80b'/>
    <pointer-type-def type-id='df458ae6' size-in-bits='32' id='621ed18c'/>
    <pointer-type-def type-id='edff7cb3' size-in-bits='32' id='b5a5bc13'/>
    <pointer-type-def type-id='40b6343a' size-in-bits='32' id='6d5a3b78'/>
    <reference-type-def kind='lvalue' type-id='748cb1b7' size-in-bits='32' id='d7c9afdb'/>
    <pointer-type-def type-id='748cb1b7' size-in-bits='32' id='d3c9a98f'/>
    <reference-type-def kind='lvalue' type-id='60976dc0' size-in-bits='32' id='bb0cd27a'/>
    <pointer-type-def type-id='60976dc0' size-in-bits='32' id='af0cbf96'/>
    <namespace-decl name='android'>
      <class-decl name='BpInterface&lt;android::IMountService&gt;' size-in-bits='224' visibility='default' filepath='frameworks/native/libs/binder/include/binder/IInterface.h' line='86' column='1' id='22d61b29'>
        <base-class access='public' layout-offset-in-bits='0' type-id='bf075117'/>
        <base-class access='public' layout-offset-in-bits='32' type-id='df458ae7'/>
        <member-function access='public'>
          <function-decl name='BpInterface' mangled-name='_ZN7android11BpInterfaceINS_13IMountServiceEEC2ERKNS_2spINS_7IBinderEEE' filepath='frameworks/native/libs/binder/include/binder/IInterface.h' line='89' column='1' visibility='default' binding='global' size-in-bits='32'>
            <parameter type-id='9892ee61' is-artificial='yes'/>
            <parameter type-id='83dafb9a'/>
            <return type-id='48b5725f'/>
          </function-decl>
        </member-function>
        <member-function access='protected' vtable-offset='2'>
          <function-decl name='onAsBinder' mangled-name='_ZN7android11BpInterfaceINS_13IMountServiceEE10onAsBinderEv' filepath='frameworks/native/libs/binder/include/binder/IInterface.h' line='93' column='1' visibility='default' binding='global' size-in-bits='32'>
            <parameter type-id='9892ee61' is-artificial='yes'/>
            <return type-id='b5a5bc13'/>
          </function-decl>
        </member-function>
      </class-decl>
      <class-decl name='BpMountService' size-in-bits='224' visibility='default' filepath='frameworks/base/libs/storage/IMountService.cpp' line='55' column='1' id='7807f886'>
        <base-class access='public' layout-offset-in-bits='0' type-id='22d61b29'/>
        <member-function access='public' constructor='yes'>
          <function-decl name='BpMountService' mangled-name='_ZN7android14BpMountServiceC1ERKNS_2spINS_7IBinderEEE' filepath='frameworks/base/libs/storage/IMountService.cpp' line='58' column='1' visibility='default' binding='global' size-in-bits='32'>
            <parameter type-id='27ec51bc' is-artificial='yes'/>
            <parameter type-id='83dafb9a'/>
            <return type-id='48b5725f'/>
          </function-decl>
        </member-function>
        <member-function access='public' vtable-offset='4'>
          <function-decl name='registerListener' mangled-name='_ZN7android14BpMountService16registerListenerERKNS_2spINS_21IMountServiceListenerEEE' filepath='frameworks/base/libs/storage/IMountService.cpp' line='63' column='1' visibility='default' binding='global' size-in-bits='32'>
            <parameter type-id='27ec51bc' is-artificial='yes'/>
            <parameter type-id='7743ab4a'/>
            <return type-id='48b5725f'/>
          </function-decl>
        </member-function>
        <member-function access='public' vtable-offset='5'>
          <function-decl name='unregisterListener' mangled-name='_ZN7android14BpMountService18unregisterListenerERKNS_2spINS_21IMountServiceListenerEEE' filepath='frameworks/base/libs/storage/IMountService.cpp' line='79' column='1' visibility='default' binding='global' size-in-bits='32'>
            <parameter type-id='27ec51bc' is-artificial='yes'/>
            <parameter type-id='7743ab4a'/>
            <return type-id='48b5725f'/>
          </function-decl>
        </member-function>
        <member-function access='public' vtable-offset='6'>
          <function-decl name='isUsbMassStorageConnected' mangled-name='_ZN7android14BpMountService25isUsbMassStorageConnectedEv' filepath='frameworks/base/libs/storage/IMountService.cpp' line='95' column='1' visibility='default' binding='global' size-in-bits='32'>
            <parameter type-id='27ec51bc' is-artificial='yes'/>
            <return type-id='c894953d'/>
          </function-decl>
        </member-function>
        <member-function access='public' vtable-offset='7'>
          <function-decl name='setUsbMassStorageEnabled' mangled-name='_ZN7android14BpMountService24setUsbMassStorageEnabledEb' filepath='frameworks/base/libs/storage/IMountService.cpp' line='111' column='1' visibility='default' binding='global' size-in-bits='32'>
            <parameter type-id='27ec51bc' is-artificial='yes'/>
            <parameter type-id='4ab96a04'/>
            <return type-id='48b5725f'/>
          </function-decl>
        </member-function>
        <member-function access='public' vtable-offset='8'>
          <function-decl name='isUsbMassStorageEnabled' mangled-name='_ZN7android14BpMountService23isUsbMassStorageEnabledEv' filepath='frameworks/base/libs/storage/IMountService.cpp' line='127' column='1' visibility='default' binding='global' size-in-bits='32'>
            <parameter type-id='27ec51bc' is-artificial='yes'/>
            <return type-id='c894953d'/>
          </function-decl>
        </member-function>
        <member-function access='public' vtable-offset='9'>
          <function-decl name='mountVolume' mangled-name='_ZN7android14BpMountService11mountVolumeERKNS_8String16E' filepath='frameworks/base/libs/storage/IMountService.cpp' line='143' column='1' visibility='default' binding='global' size-in-bits='32'>
            <parameter type-id='27ec51bc' is-artificial='yes'/>
            <parameter type-id='157d4f95'/>
            <return type-id='3ff5601b'/>
          </function-decl>
        </member-function>
        <member-function access='public' vtable-offset='10'>
          <function-decl name='unmountVolume' mangled-name='_ZN7android14BpMountService13unmountVolumeERKNS_8String16Ebb' filepath='frameworks/base/libs/storage/IMountService.cpp' line='160' column='1' visibility='default' binding='global' size-in-bits='32'>
            <parameter type-id='27ec51bc' is-artificial='yes'/>
            <parameter type-id='157d4f95'/>
            <parameter type-id='4ab96a04'/>
            <parameter type-id='4ab96a04'/>
            <return type-id='3ff5601b'/>
          </function-decl>
        </member-function>
        <member-function access='public' vtable-offset='11'>
          <function-decl name='formatVolume' mangled-name='_ZN7android14BpMountService12formatVolumeERKNS_8String16E' filepath='frameworks/base/libs/storage/IMountService.cpp' line='179' column='1' visibility='default' binding='global' size-in-bits='32'>
            <parameter type-id='27ec51bc' is-artificial='yes'/>
            <parameter type-id='157d4f95'/>
            <return type-id='3ff5601b'/>
          </function-decl>
        </member-function>
        <member-function access='public' vtable-offset='12'>
          <function-decl name='getStorageUsers' mangled-name='_ZN7android14BpMountService15getStorageUsersERKNS_8String16EPPi' filepath='frameworks/base/libs/storage/IMountService.cpp' line='196' column='1' visibility='default' binding='global' size-in-bits='32'>
            <parameter type-id='27ec51bc' is-artificial='yes'/>
            <parameter type-id='157d4f95'/>
            <parameter type-id='9aa04798'/>
            <return type-id='3ff5601b'/>
          </function-decl>
        </member-function>
        <member-function access='public' vtable-offset='13'>
          <function-decl name='getVolumeState' mangled-name='_ZN7android14BpMountService14getVolumeStateERKNS_8String16E' filepath='frameworks/base/libs/storage/IMountService.cpp' line='225' column='1' visibility='default' binding='global' size-in-bits='32'>
            <parameter type-id='27ec51bc' is-artificial='yes'/>
            <parameter type-id='157d4f95'/>
            <return type-id='3ff5601b'/>
          </function-decl>
        </member-function>
        <member-function access='public' vtable-offset='14'>
          <function-decl name='createSecureContainer' mangled-name='_ZN7android14BpMountService21createSecureContainerERKNS_8String16EiS3_S3_i' filepath='frameworks/base/libs/storage/IMountService.cpp' line='242' column='1' visibility='default' binding='global' size-in-bits='32'>
            <parameter type-id='27ec51bc' is-artificial='yes'/>
            <parameter type-id='157d4f95'/>
            <parameter type-id='922df12b'/>
            <parameter type-id='157d4f95'/>
            <parameter type-id='157d4f95'/>
            <parameter type-id='922df12b'/>
            <return type-id='3ff5601b'/>
          </function-decl>
        </member-function>
        <member-function access='public' vtable-offset='15'>
          <function-decl name='finalizeSecureContainer' mangled-name='_ZN7android14BpMountService23finalizeSecureContainerERKNS_8String16E' filepath='frameworks/base/libs/storage/IMountService.cpp' line='264' column='1' visibility='default' binding='global' size-in-bits='32'>
            <parameter type-id='27ec51bc' is-artificial='yes'/>
            <parameter type-id='157d4f95'/>
            <return type-id='3ff5601b'/>
          </function-decl>
        </member-function>
        <member-function access='public' vtable-offset='16'>
          <function-decl name='destroySecureContainer' mangled-name='_ZN7android14BpMountService22destroySecureContainerERKNS_8String16E' filepath='frameworks/base/libs/storage/IMountService.cpp' line='281' column='1' visibility='default' binding='global' size-in-bits='32'>
            <parameter type-id='27ec51bc' is-artificial='yes'/>
            <parameter type-id='157d4f95'/>
            <return type-id='3ff5601b'/>
          </function-decl>
        </member-function>
        <member-function access='public' vtable-offset='17'>
          <function-decl name='mountSecureContainer' mangled-name='_ZN7android14BpMountService20mountSecureContainerERKNS_8String16ES3_i' filepath='frameworks/base/libs/storage/IMountService.cpp' line='298' column='1' visibility='default' binding='global' size-in-bits='32'>
            <parameter type-id='27ec51bc' is-artificial='yes'/>
            <parameter type-id='157d4f95'/>
            <parameter type-id='157d4f95'/>
            <parameter type-id='922df12b'/>
            <return type-id='3ff5601b'/>
          </function-decl>
        </member-function>
        <member-function access='public' vtable-offset='18'>
          <function-decl name='unmountSecureContainer' mangled-name='_ZN7android14BpMountService22unmountSecureContainerERKNS_8String16Eb' filepath='frameworks/base/libs/storage/IMountService.cpp' line='319' column='1' visibility='default' binding='global' size-in-bits='32'>
            <parameter type-id='27ec51bc' is-artificial='yes'/>
            <parameter type-id='157d4f95'/>
            <parameter type-id='4ab96a04'/>
            <return type-id='3ff5601b'/>
          </function-decl>
        </member-function>
        <member-function access='public' vtable-offset='19'>
          <function-decl name='isSecureContainerMounted' mangled-name='_ZN7android14BpMountService24isSecureContainerMountedERKNS_8String16E' filepath='frameworks/base/libs/storage/IMountService.cpp' line='337' column='1' visibility='default' binding='global' size-in-bits='32'>
            <parameter type-id='27ec51bc' is-artificial='yes'/>
            <parameter type-id='157d4f95'/>
            <return type-id='c894953d'/>
          </function-decl>
        </member-function>
        <member-function access='public' vtable-offset='20'>
          <function-decl name='renameSecureContainer' mangled-name='_ZN7android14BpMountService21renameSecureContainerERKNS_8String16ES3_' filepath='frameworks/base/libs/storage/IMountService.cpp' line='354' column='1' visibility='default' binding='global' size-in-bits='32'>
            <parameter type-id='27ec51bc' is-artificial='yes'/>
            <parameter type-id='157d4f95'/>
            <parameter type-id='157d4f95'/>
            <return type-id='3ff5601b'/>
          </function-decl>
        </member-function>
        <member-function access='public' vtable-offset='21'>
          <function-decl name='getSecureContainerPath' mangled-name='_ZN7android14BpMountService22getSecureContainerPathERKNS_8String16ERS1_' filepath='frameworks/base/libs/storage/IMountService.cpp' line='372' column='1' visibility='default' binding='global' size-in-bits='32'>
            <parameter type-id='27ec51bc' is-artificial='yes'/>
            <parameter type-id='157d4f95'/>
            <parameter type-id='22923b4c'/>
            <return type-id='c894953d'/>
          </function-decl>
        </member-function>
        <member-function access='public' vtable-offset='22'>
          <function-decl name='getSecureContainerList' mangled-name='_ZN7android14BpMountService22getSecureContainerListERKNS_8String16ERPS1_' filepath='frameworks/base/libs/storage/IMountService.cpp' line='390' column='1' visibility='default' binding='global' size-in-bits='32'>
            <parameter type-id='27ec51bc' is-artificial='yes'/>
            <parameter type-id='157d4f95'/>
            <parameter type-id='763d7e1a'/>
            <return type-id='3ff5601b'/>
          </function-decl>
        </member-function>
        <member-function access='public' vtable-offset='23'>
          <function-decl name='shutdown' mangled-name='_ZN7android14BpMountService8shutdownERKNS_2spINS_22IMountShutdownObserverEEE' filepath='frameworks/base/libs/storage/IMountService.cpp' line='412' column='1' visibility='default' binding='global' size-in-bits='32'>
            <parameter type-id='27ec51bc' is-artificial='yes'/>
            <parameter type-id='5f8c324f'/>
            <return type-id='48b5725f'/>
          </function-decl>
        </member-function>
        <member-function access='public' vtable-offset='24'>
          <function-decl name='finishMediaUpdate' mangled-name='_ZN7android14BpMountService17finishMediaUpdateEv' filepath='frameworks/base/libs/storage/IMountService.cpp' line='429' column='1' visibility='default' binding='global' size-in-bits='32'>
            <parameter type-id='27ec51bc' is-artificial='yes'/>
            <return type-id='48b5725f'/>
          </function-decl>
        </member-function>
        <member-function access='public' vtable-offset='25'>
          <function-decl name='mountObb' mangled-name='_ZN7android14BpMountService8mountObbERKNS_8String16ES3_S3_RKNS_2spINS_18IObbActionListenerEEEiRKNS4_INS_7ObbInfoEEE' filepath='frameworks/base/libs/storage/IMountService.cpp' line='445' column='1' visibility='default' binding='global' size-in-bits='32'>
            <parameter type-id='27ec51bc' is-artificial='yes'/>
            <parameter type-id='157d4f95'/>
            <parameter type-id='157d4f95'/>
            <parameter type-id='157d4f95'/>
            <parameter type-id='990ef79d'/>
            <parameter type-id='3ff5601b'/>
            <parameter type-id='0c3db078'/>
            <return type-id='48b5725f'/>
          </function-decl>
        </member-function>
        <member-function access='public' vtable-offset='26'>
          <function-decl name='unmountObb' mangled-name='_ZN7android14BpMountService10unmountObbERKNS_8String16EbRKNS_2spINS_18IObbActionListenerEEEi' filepath='frameworks/base/libs/storage/IMountService.cpp' line='467' column='1' visibility='default' binding='global' size-in-bits='32'>
            <parameter type-id='27ec51bc' is-artificial='yes'/>
            <parameter type-id='157d4f95'/>
            <parameter type-id='4ab96a04'/>
            <parameter type-id='990ef79d'/>
            <parameter type-id='922df12b'/>
            <return type-id='48b5725f'/>
          </function-decl>
        </member-function>
        <member-function access='public' vtable-offset='27'>
          <function-decl name='isObbMounted' mangled-name='_ZN7android14BpMountService12isObbMountedERKNS_8String16E' filepath='frameworks/base/libs/storage/IMountService.cpp' line='487' column='1' visibility='default' binding='global' size-in-bits='32'>
            <parameter type-id='27ec51bc' is-artificial='yes'/>
            <parameter type-id='157d4f95'/>
            <return type-id='c894953d'/>
          </function-decl>
        </member-function>
        <member-function access='public' vtable-offset='28'>
          <function-decl name='getMountedObbPath' mangled-name='_ZN7android14BpMountService17getMountedObbPathERKNS_8String16ERS1_' filepath='frameworks/base/libs/storage/IMountService.cpp' line='504' column='1' visibility='default' binding='global' size-in-bits='32'>
            <parameter type-id='27ec51bc' is-artificial='yes'/>
            <parameter type-id='157d4f95'/>
            <parameter type-id='22923b4c'/>
            <return type-id='c894953d'/>
          </function-decl>
        </member-function>
        <member-function access='public' vtable-offset='29'>
          <function-decl name='decryptStorage' mangled-name='_ZN7android14BpMountService14decryptStorageERKNS_8String16E' filepath='frameworks/base/libs/storage/IMountService.cpp' line='522' column='1' visibility='default' binding='global' size-in-bits='32'>
            <parameter type-id='27ec51bc' is-artificial='yes'/>
            <parameter type-id='157d4f95'/>
            <return type-id='3ff5601b'/>
          </function-decl>
        </member-function>
        <member-function access='public' vtable-offset='30'>
          <function-decl name='encryptStorage' mangled-name='_ZN7android14BpMountService14encryptStorageERKNS_8String16E' filepath='frameworks/base/libs/storage/IMountService.cpp' line='539' column='1' visibility='default' binding='global' size-in-bits='32'>
            <parameter type-id='27ec51bc' is-artificial='yes'/>
            <parameter type-id='157d4f95'/>
            <return type-id='3ff5601b'/>
          </function-decl>
        </member-function>
      </class-decl>
      <class-decl name='IMountService' size-in-bits='96' visibility='default' filepath='frameworks/base/libs/storage/include/storage/IMountService.h' line='32' column='1' id='bf075117'>
        <base-class access='public' layout-offset-in-bits='0' type-id='40b6343b'/>
        <data-member access='public' static='yes'>
          <var-decl name='descriptor' type-id='a3cec311' mangled-name='_ZN7android13IMountService10descriptorE' visibility='default' filepath='frameworks/base/libs/storage/include/storage/IMountService.h' line='34' column='1'/>
        </data-member>
        <data-member access='private' static='yes'>
          <var-decl name='default_impl' type-id='34e3553c' mangled-name='_ZN7android13IMountService12default_implE' visibility='default' filepath='frameworks/base/libs/storage/include/storage/IMountService.h' line='34' column='1'/>
        </data-member>
        <member-function access='public' constructor='yes'>
          <function-decl name='IMountService' mangled-name='_ZN7android13IMountServiceC2Ev' filepath='frameworks/base/libs/storage/include/storage/IMountService.h' line='34' column='1' visibility='default' binding='global' size-in-bits='32'>
            <parameter type-id='9cb9149f' is-artificial='yes'/>
            <return type-id='48b5725f'/>
          </function-decl>
        </member-function>
        <member-function access='public' static='yes'>
          <function-decl name='asInterface' mangled-name='_ZN7android13IMountService11asInterfaceERKNS_2spINS_7IBinderEEE' filepath='frameworks/base/libs/storage/include/storage/IMountService.h' line='34' column='1' visibility='default' binding='global' size-in-bits='32'>
            <parameter type-id='83dafb9a'/>
            <return type-id='f331f373'/>
          </function-decl>
        </member-function>
        <member-function access='public' static='yes'>
          <function-decl name='setDefaultImpl' mangled-name='_ZN7android13IMountService14setDefaultImplENSt3__110unique_ptrIS0_NS1_14default_deleteIS0_EEEE' filepath='frameworks/base/libs/storage/include/storage/IMountService.h' line='34' column='1' visibility='default' binding='global' size-in-bits='32'>
            <parameter type-id='34e3553c'/>
            <return type-id='c894953d'/>
          </function-decl>
        </member-function>
        <member-function access='public' static='yes'>
          <function-decl name='getDefaultImpl' mangled-name='_ZN7android13IMountService14getDefaultImplEv' filepath='frameworks/base/libs/storage/include/storage/IMountService.h' line='34' column='1' visibility='default' binding='global' size-in-bits='32'>
            <return type-id='cefbbcdb'/>
          </function-decl>
        </member-function>
        <member-function access='public' destructor='yes' vtable-offset='0'>
          <function-decl name='~IMountService' mangled-name='_ZN7android13IMountServiceD0Ev' filepath='frameworks/base/libs/storage/include/storage/IMountService.h' line='34' column='1' visibility='default' binding='global' size-in-bits='32'>
            <parameter type-id='9cb9149f' is-artificial='yes'/>
            <return type-id='48b5725f'/>
          </function-decl>
        </member-function>
        <member-function access='public' vtable-offset='3'>
          <function-decl name='getInterfaceDescriptor' mangled-name='_ZNK7android13IMountService22getInterfaceDescriptorEv' filepath='frameworks/base/libs/storage/include/storage/IMountService.h' line='34' column='1' visibility='default' binding='global' size-in-bits='32'>
            <parameter type-id='e4896a10' is-artificial='yes'/>
            <return type-id='157d4f95'/>
          </function-decl>
        </member-function>
        <member-function access='public' vtable-offset='4'>
          <function-decl name='registerListener' mangled-name='_ZN7android13IMountService16registerListenerERKNS_2spINS_21IMountServiceListenerEEE' filepath='frameworks/base/libs/storage/include/storage/IMountService.h' line='36' column='1' visibility='default' binding='global' size-in-bits='32'>
            <parameter type-id='9cb9149f' is-artificial='yes'/>
            <parameter type-id='7743ab4a'/>
            <return type-id='48b5725f'/>
          </function-decl>
        </member-function>
        <member-function access='public' vtable-offset='5'>
          <function-decl name='unregisterListener' mangled-name='_ZN7android13IMountService18unregisterListenerERKNS_2spINS_21IMountServiceListenerEEE' filepath='frameworks/base/libs/storage/include/storage/IMountService.h' line='38' column='1' visibility='default' binding='global' size-in-bits='32'>
            <parameter type-id='9cb9149f' is-artificial='yes'/>
            <parameter type-id='7743ab4a'/>
            <return type-id='48b5725f'/>
          </function-decl>
        </member-function>
        <member-function access='public' vtable-offset='6'>
          <function-decl name='isUsbMassStorageConnected' mangled-name='_ZN7android13IMountService25isUsbMassStorageConnectedEv' filepath='frameworks/base/libs/storage/include/storage/IMountService.h' line='39' column='1' visibility='default' binding='global' size-in-bits='32'>
            <parameter type-id='9cb9149f' is-artificial='yes'/>
            <return type-id='c894953d'/>
          </function-decl>
        </member-function>
        <member-function access='public' vtable-offset='7'>
          <function-decl name='setUsbMassStorageEnabled' mangled-name='_ZN7android13IMountService24setUsbMassStorageEnabledEb' filepath='frameworks/base/libs/storage/include/storage/IMountService.h' line='40' column='1' visibility='default' binding='global' size-in-bits='32'>
            <parameter type-id='9cb9149f' is-artificial='yes'/>
            <parameter type-id='4ab96a04'/>
            <return type-id='48b5725f'/>
          </function-decl>
        </member-function>
        <member-function access='public' vtable-offset='8'>
          <function-decl name='isUsbMassStorageEnabled' mangled-name='_ZN7android13IMountService23isUsbMassStorageEnabledEv' filepath='frameworks/base/libs/storage/include/storage/IMountService.h' line='41' column='1' visibility='default' binding='global' size-in-bits='32'>
            <parameter type-id='9cb9149f' is-artificial='yes'/>
            <return type-id='c894953d'/>
          </function-decl>
        </member-function>
        <member-function access='public' vtable-offset='9'>
          <function-decl name='mountVolume' mangled-name='_ZN7android13IMountService11mountVolumeERKNS_8String16E' filepath='frameworks/base/libs/storage/include/storage/IMountService.h' line='42' column='1' visibility='default' binding='global' size-in-bits='32'>
            <parameter type-id='9cb9149f' is-artificial='yes'/>
            <parameter type-id='157d4f95'/>
            <return type-id='3ff5601b'/>
          </function-decl>
        </member-function>
        <member-function access='public' vtable-offset='10'>
          <function-decl name='unmountVolume' mangled-name='_ZN7android13IMountService13unmountVolumeERKNS_8String16Ebb' filepath='frameworks/base/libs/storage/include/storage/IMountService.h' line='43' column='1' visibility='default' binding='global' size-in-bits='32'>
            <parameter type-id='9cb9149f' is-artificial='yes'/>
            <parameter type-id='157d4f95'/>
            <parameter type-id='4ab96a04'/>
            <parameter type-id='4ab96a04'/>
            <return type-id='3ff5601b'/>
          </function-decl>
        </member-function>
        <member-function access='public' vtable-offset='11'>
          <function-decl name='formatVolume' mangled-name='_ZN7android13IMountService12formatVolumeERKNS_8String16E' filepath='frameworks/base/libs/storage/include/storage/IMountService.h' line='45' column='1' visibility='default' binding='global' size-in-bits='32'>
            <parameter type-id='9cb9149f' is-artificial='yes'/>
            <parameter type-id='157d4f95'/>
            <return type-id='3ff5601b'/>
          </function-decl>
        </member-function>
        <member-function access='public' vtable-offset='12'>
          <function-decl name='getStorageUsers' mangled-name='_ZN7android13IMountService15getStorageUsersERKNS_8String16EPPi' filepath='frameworks/base/libs/storage/include/storage/IMountService.h' line='47' column='1' visibility='default' binding='global' size-in-bits='32'>
            <parameter type-id='9cb9149f' is-artificial='yes'/>
            <parameter type-id='157d4f95'/>
            <parameter type-id='9aa04798'/>
            <return type-id='3ff5601b'/>
          </function-decl>
        </member-function>
        <member-function access='public' vtable-offset='13'>
          <function-decl name='getVolumeState' mangled-name='_ZN7android13IMountService14getVolumeStateERKNS_8String16E' filepath='frameworks/base/libs/storage/include/storage/IMountService.h' line='48' column='1' visibility='default' binding='global' size-in-bits='32'>
            <parameter type-id='9cb9149f' is-artificial='yes'/>
            <parameter type-id='157d4f95'/>
            <return type-id='3ff5601b'/>
          </function-decl>
        </member-function>
        <member-function access='public' vtable-offset='14'>
          <function-decl name='createSecureContainer' mangled-name='_ZN7android13IMountService21createSecureContainerERKNS_8String16EiS3_S3_i' filepath='frameworks/base/libs/storage/include/storage/IMountService.h' line='49' column='1' visibility='default' binding='global' size-in-bits='32'>
            <parameter type-id='9cb9149f' is-artificial='yes'/>
            <parameter type-id='157d4f95'/>
            <parameter type-id='922df12b'/>
            <parameter type-id='157d4f95'/>
            <parameter type-id='157d4f95'/>
            <parameter type-id='922df12b'/>
            <return type-id='3ff5601b'/>
          </function-decl>
        </member-function>
        <member-function access='public' vtable-offset='15'>
          <function-decl name='finalizeSecureContainer' mangled-name='_ZN7android13IMountService23finalizeSecureContainerERKNS_8String16E' filepath='frameworks/base/libs/storage/include/storage/IMountService.h' line='52' column='1' visibility='default' binding='global' size-in-bits='32'>
            <parameter type-id='9cb9149f' is-artificial='yes'/>
            <parameter type-id='157d4f95'/>
            <return type-id='3ff5601b'/>
          </function-decl>
        </member-function>
        <member-function access='public' vtable-offset='16'>
          <function-decl name='destroySecureContainer' mangled-name='_ZN7android13IMountService22destroySecureContainerERKNS_8String16E' filepath='frameworks/base/libs/storage/include/storage/IMountService.h' line='53' column='1' visibility='default' binding='global' size-in-bits='32'>
            <parameter type-id='9cb9149f' is-artificial='yes'/>
            <parameter type-id='157d4f95'/>
            <return type-id='3ff5601b'/>
          </function-decl>
        </member-function>
        <member-function access='public' vtable-offset='17'>
          <function-decl name='mountSecureContainer' mangled-name='_ZN7android13IMountService20mountSecureContainerERKNS_8String16ES3_i' filepath='frameworks/base/libs/storage/include/storage/IMountService.h' line='54' column='1' visibility='default' binding='global' size-in-bits='32'>
            <parameter type-id='9cb9149f' is-artificial='yes'/>
            <parameter type-id='157d4f95'/>
            <parameter type-id='157d4f95'/>
            <parameter type-id='922df12b'/>
            <return type-id='3ff5601b'/>
          </function-decl>
        </member-function>
        <member-function access='public' vtable-offset='18'>
          <function-decl name='unmountSecureContainer' mangled-name='_ZN7android13IMountService22unmountSecureContainerERKNS_8String16Eb' filepath='frameworks/base/libs/storage/include/storage/IMountService.h' line='57' column='1' visibility='default' binding='global' size-in-bits='32'>
            <parameter type-id='9cb9149f' is-artificial='yes'/>
            <parameter type-id='157d4f95'/>
            <parameter type-id='4ab96a04'/>
            <return type-id='3ff5601b'/>
          </function-decl>
        </member-function>
        <member-function access='public' vtable-offset='19'>
          <function-decl name='isSecureContainerMounted' mangled-name='_ZN7android13IMountService24isSecureContainerMountedERKNS_8String16E' filepath='frameworks/base/libs/storage/include/storage/IMountService.h' line='58' column='1' visibility='default' binding='global' size-in-bits='32'>
            <parameter type-id='9cb9149f' is-artificial='yes'/>
            <parameter type-id='157d4f95'/>
            <return type-id='c894953d'/>
          </function-decl>
        </member-function>
        <member-function access='public' vtable-offset='20'>
          <function-decl name='renameSecureContainer' mangled-name='_ZN7android13IMountService21renameSecureContainerERKNS_8String16ES3_' filepath='frameworks/base/libs/storage/include/storage/IMountService.h' line='59' column='1' visibility='default' binding='global' size-in-bits='32'>
            <parameter type-id='9cb9149f' is-artificial='yes'/>
            <parameter type-id='157d4f95'/>
            <parameter type-id='157d4f95'/>
            <return type-id='3ff5601b'/>
          </function-decl>
        </member-function>
        <member-function access='public' vtable-offset='21'>
          <function-decl name='getSecureContainerPath' mangled-name='_ZN7android13IMountService22getSecureContainerPathERKNS_8String16ERS1_' filepath='frameworks/base/libs/storage/include/storage/IMountService.h' line='61' column='1' visibility='default' binding='global' size-in-bits='32'>
            <parameter type-id='9cb9149f' is-artificial='yes'/>
            <parameter type-id='157d4f95'/>
            <parameter type-id='22923b4c'/>
            <return type-id='c894953d'/>
          </function-decl>
        </member-function>
        <member-function access='public' vtable-offset='22'>
          <function-decl name='getSecureContainerList' mangled-name='_ZN7android13IMountService22getSecureContainerListERKNS_8String16ERPS1_' filepath='frameworks/base/libs/storage/include/storage/IMountService.h' line='62' column='1' visibility='default' binding='global' size-in-bits='32'>
            <parameter type-id='9cb9149f' is-artificial='yes'/>
            <parameter type-id='157d4f95'/>
            <parameter type-id='763d7e1a'/>
            <return type-id='3ff5601b'/>
          </function-decl>
        </member-function>
        <member-function access='public' vtable-offset='23'>
          <function-decl name='shutdown' mangled-name='_ZN7android13IMountService8shutdownERKNS_2spINS_22IMountShutdownObserverEEE' filepath='frameworks/base/libs/storage/include/storage/IMountService.h' line='64' column='1' visibility='default' binding='global' size-in-bits='32'>
            <parameter type-id='9cb9149f' is-artificial='yes'/>
            <parameter type-id='5f8c324f'/>
            <return type-id='48b5725f'/>
          </function-decl>
        </member-function>
        <member-function access='public' vtable-offset='24'>
          <function-decl name='finishMediaUpdate' mangled-name='_ZN7android13IMountService17finishMediaUpdateEv' filepath='frameworks/base/libs/storage/include/storage/IMountService.h' line='65' column='1' visibility='default' binding='global' size-in-bits='32'>
            <parameter type-id='9cb9149f' is-artificial='yes'/>
            <return type-id='48b5725f'/>
          </function-decl>
        </member-function>
        <member-function access='public' vtable-offset='25'>
          <function-decl name='mountObb' mangled-name='_ZN7android13IMountService8mountObbERKNS_8String16ES3_S3_RKNS_2spINS_18IObbActionListenerEEEiRKNS4_INS_7ObbInfoEEE' filepath='frameworks/base/libs/storage/include/storage/IMountService.h' line='66' column='1' visibility='default' binding='global' size-in-bits='32'>
            <parameter type-id='9cb9149f' is-artificial='yes'/>
            <parameter type-id='157d4f95'/>
            <parameter type-id='157d4f95'/>
            <parameter type-id='157d4f95'/>
            <parameter type-id='990ef79d'/>
            <parameter type-id='922df12b'/>
            <parameter type-id='0c3db078'/>
            <return type-id='48b5725f'/>
          </function-decl>
        </member-function>
        <member-function access='public' vtable-offset='26'>
          <function-decl name='unmountObb' mangled-name='_ZN7android13IMountService10unmountObbERKNS_8String16EbRKNS_2spINS_18IObbActionListenerEEEi' filepath='frameworks/base/libs/storage/include/storage/IMountService.h' line='69' column='1' visibility='default' binding='global' size-in-bits='32'>
            <parameter type-id='9cb9149f' is-artificial='yes'/>
            <parameter type-id='157d4f95'/>
            <parameter type-id='4ab96a04'/>
            <parameter type-id='990ef79d'/>
            <parameter type-id='922df12b'/>
            <return type-id='48b5725f'/>
          </function-decl>
        </member-function>
        <member-function access='public' vtable-offset='27'>
          <function-decl name='isObbMounted' mangled-name='_ZN7android13IMountService12isObbMountedERKNS_8String16E' filepath='frameworks/base/libs/storage/include/storage/IMountService.h' line='71' column='1' visibility='default' binding='global' size-in-bits='32'>
            <parameter type-id='9cb9149f' is-artificial='yes'/>
            <parameter type-id='157d4f95'/>
            <return type-id='c894953d'/>
          </function-decl>
        </member-function>
        <member-function access='public' vtable-offset='28'>
          <function-decl name='getMountedObbPath' mangled-name='_ZN7android13IMountService17getMountedObbPathERKNS_8String16ERS1_' filepath='frameworks/base/libs/storage/include/storage/IMountService.h' line='72' column='1' visibility='default' binding='global' size-in-bits='32'>
            <parameter type-id='9cb9149f' is-artificial='yes'/>
            <parameter type-id='157d4f95'/>
            <parameter type-id='22923b4c'/>
            <return type-id='c894953d'/>
          </function-decl>
        </member-function>
        <member-function access='public' vtable-offset='29'>
          <function-decl name='decryptStorage' mangled-name='_ZN7android13IMountService14decryptStorageERKNS_8String16E' filepath='frameworks/base/libs/storage/include/storage/IMountService.h' line='73' column='1' visibility='default' binding='global' size-in-bits='32'>
            <parameter type-id='9cb9149f' is-artificial='yes'/>
            <parameter type-id='157d4f95'/>
            <return type-id='3ff5601b'/>
          </function-decl>
        </member-function>
        <member-function access='public' vtable-offset='30'>
          <function-decl name='encryptStorage' mangled-name='_ZN7android13IMountService14encryptStorageERKNS_8String16E' filepath='frameworks/base/libs/storage/include/storage/IMountService.h' line='74' column='1' visibility='default' binding='global' size-in-bits='32'>
            <parameter type-id='9cb9149f' is-artificial='yes'/>
            <parameter type-id='157d4f95'/>
            <return type-id='3ff5601b'/>
          </function-decl>
        </member-function>
      </class-decl>
      <class-decl name='sp&lt;android::IMountServiceListener&gt;' size-in-bits='32' visibility='default' filepath='system/core/libutils/include/utils/StrongPointer.h' line='31' column='1' id='a2aa88e3'>
        <data-member access='private' layout-offset-in-bits='0'>
          <var-decl name='m_ptr' type-id='d3c9a98f' visibility='default' filepath='system/core/libutils/include/utils/StrongPointer.h' line='90' column='1'/>
        </data-member>
        <member-function access='public'>
          <function-decl name='sp' filepath='system/core/libutils/include/utils/StrongPointer.h' line='33' column='1' visibility='default' binding='global' size-in-bits='32'>
            <parameter type-id='beb8baf3' is-artificial='yes'/>
            <return type-id='48b5725f'/>
          </function-decl>
        </member-function>
        <member-function access='public'>
          <function-decl name='sp' filepath='system/core/libutils/include/utils/StrongPointer.h' line='41' column='1' visibility='default' binding='global' size-in-bits='32'>
            <parameter type-id='beb8baf3' is-artificial='yes'/>
            <parameter type-id='d3c9a98f'/>
            <return type-id='48b5725f'/>
          </function-decl>
        </member-function>
        <member-function access='public'>
          <function-decl name='sp' filepath='system/core/libutils/include/utils/StrongPointer.h' line='42' column='1' visibility='default' binding='global' size-in-bits='32'>
            <parameter type-id='beb8baf3' is-artificial='yes'/>
            <parameter type-id='7743ab4a'/>
            <return type-id='48b5725f'/>
          </function-decl>
        </member-function>
        <member-function access='public'>
          <function-decl name='sp' filepath='system/core/libutils/include/utils/StrongPointer.h' line='43' column='1' visibility='default' binding='global' size-in-bits='32'>
            <parameter type-id='beb8baf3' is-artificial='yes'/>
            <parameter type-id='11ec3263'/>
            <return type-id='48b5725f'/>
          </function-decl>
        </member-function>
        <member-function access='public' destructor='yes'>
          <function-decl name='~sp' filepath='system/core/libutils/include/utils/StrongPointer.h' line='48' column='1' visibility='default' binding='global' size-in-bits='32'>
            <parameter type-id='beb8baf3' is-artificial='yes'/>
            <return type-id='48b5725f'/>
          </function-decl>
        </member-function>
      </class-decl>
      <class-decl name='sp&lt;android::IMountShutdownObserver&gt;' size-in-bits='32' visibility='default' filepath='system/core/libutils/include/utils/StrongPointer.h' line='31' column='1' id='3f075162'>
        <data-member access='private' layout-offset-in-bits='0'>
          <var-decl name='m_ptr' type-id='af0cbf96' visibility='default' filepath='system/core/libutils/include/utils/StrongPointer.h' line='90' column='1'/>
        </data-member>
        <member-function access='public'>
          <function-decl name='sp' filepath='system/core/libutils/include/utils/StrongPointer.h' line='33' column='1' visibility='default' binding='global' size-in-bits='32'>
            <parameter type-id='40b58a30' is-artificial='yes'/>
            <return type-id='48b5725f'/>
          </function-decl>
        </member-function>
        <member-function access='public'>
          <function-decl name='sp' filepath='system/core/libutils/include/utils/StrongPointer.h' line='41' column='1' visibility='default' binding='global' size-in-bits='32'>
            <parameter type-id='40b58a30' is-artificial='yes'/>
            <parameter type-id='af0cbf96'/>
            <return type-id='48b5725f'/>
          </function-decl>
        </member-function>
        <member-function access='public'>
          <function-decl name='sp' filepath='system/core/libutils/include/utils/StrongPointer.h' line='42' column='1' visibility='default' binding='global' size-in-bits='32'>
            <parameter type-id='40b58a30' is-artificial='yes'/>
            <parameter type-id='5f8c324f'/>
            <return type-id='48b5725f'/>
          </function-decl>
        </member-function>
        <member-function access='public'>
          <function-decl name='sp' filepath='system/core/libutils/include/utils/StrongPointer.h' line='43' column='1' visibility='default' binding='global' size-in-bits='32'>
            <parameter type-id='40b58a30' is-artificial='yes'/>
            <parameter type-id='f3e675b6'/>
            <return type-id='48b5725f'/>
          </function-decl>
        </member-function>
        <member-function access='public' destructor='yes'>
          <function-decl name='~sp' filepath='system/core/libutils/include/utils/StrongPointer.h' line='48' column='1' visibility='default' binding='global' size-in-bits='32'>
            <parameter type-id='40b58a30' is-artificial='yes'/>
            <return type-id='48b5725f'/>
          </function-decl>
        </member-function>
      </class-decl>
      <class-decl name='BpRefBase' visibility='default' is-declaration-only='yes' id='df458ae6'>
        <member-function access='protected'>
          <function-decl name='remote' mangled-name='_ZN7android9BpRefBase6remoteEv' filepath='frameworks/native/libs/binder/include/binder/Binder.h' line='114' column='1' visibility='default' binding='global' size-in-bits='32'>
            <parameter type-id='621ed18c' is-artificial='yes'/>
            <return type-id='b5a5bc13'/>
          </function-decl>
        </member-function>
      </class-decl>
      <class-decl name='IBinder' visibility='default' is-declaration-only='yes' id='edff7cb3'/>
      <class-decl name='IInterface' visibility='default' is-declaration-only='yes' id='40b6343a'/>
      <class-decl name='IMountServiceListener' visibility='default' is-declaration-only='yes' id='748cb1b7'/>
      <class-decl name='IMountShutdownObserver' visibility='default' is-declaration-only='yes' id='60976dc0'/>
      <class-decl name='IObbActionListener' size-in-bits='96' visibility='default' filepath='frameworks/base/libs/storage/include/storage/IObbActionListener.h' line='27' column='1' id='f7c5ae1e'>
        <base-class access='public' layout-offset-in-bits='0' type-id='40b6343c'/>
        <data-member access='public' static='yes'>
          <var-decl name='descriptor' type-id='a3cec311' mangled-name='_ZN7android18IObbActionListener10descriptorE' visibility='default' filepath='frameworks/base/libs/storage/include/storage/IObbActionListener.h' line='30' column='1'/>
        </data-member>
        <data-member access='private' static='yes'>
          <var-decl name='default_impl' type-id='c722890a' mangled-name='_ZN7android18IObbActionListener12default_implE' visibility='default' filepath='frameworks/base/libs/storage/include/storage/IObbActionListener.h' line='30' column='1'/>
        </data-member>
        <member-function access='public' constructor='yes'>
          <function-decl name='IObbActionListener' mangled-name='_ZN7android18IObbActionListenerC2Ev' filepath='frameworks/base/libs/storage/include/storage/IObbActionListener.h' line='30' column='1' visibility='default' binding='global' size-in-bits='32'>
            <parameter type-id='c70198d4' is-artificial='yes'/>
            <return type-id='48b5725f'/>
          </function-decl>
        </member-function>
        <member-function access='public' static='yes'>
          <function-decl name='asInterface' mangled-name='_ZN7android18IObbActionListener11asInterfaceERKNS_2spINS_7IBinderEEE' filepath='frameworks/base/libs/storage/include/storage/IObbActionListener.h' line='30' column='1' visibility='default' binding='global' size-in-bits='32'>
            <parameter type-id='83dafb9a'/>
            <return type-id='92343ec8'/>
          </function-decl>
        </member-function>
        <member-function access='public' static='yes'>
          <function-decl name='setDefaultImpl' mangled-name='_ZN7android18IObbActionListener14setDefaultImplENSt3__110unique_ptrIS0_NS1_14default_deleteIS0_EEEE' filepath='frameworks/base/libs/storage/include/storage/IObbActionListener.h' line='30' column='1' visibility='default' binding='global' size-in-bits='32'>
            <parameter type-id='c722890a'/>
            <return type-id='c894953d'/>
          </function-decl>
        </member-function>
        <member-function access='public' static='yes'>
          <function-decl name='getDefaultImpl' mangled-name='_ZN7android18IObbActionListener14getDefaultImplEv' filepath='frameworks/base/libs/storage/include/storage/IObbActionListener.h' line='30' column='1' visibility='default' binding='global' size-in-bits='32'>
            <return type-id='fcd3f6e5'/>
          </function-decl>
        </member-function>
        <member-function access='public' destructor='yes' vtable-offset='0'>
          <function-decl name='~IObbActionListener' mangled-name='_ZN7android18IObbActionListenerD0Ev' filepath='frameworks/base/libs/storage/include/storage/IObbActionListener.h' line='30' column='1' visibility='default' binding='global' size-in-bits='32'>
            <parameter type-id='c70198d4' is-artificial='yes'/>
            <return type-id='48b5725f'/>
          </function-decl>
        </member-function>
        <member-function access='public' vtable-offset='3'>
          <function-decl name='getInterfaceDescriptor' mangled-name='_ZNK7android18IObbActionListener22getInterfaceDescriptorEv' filepath='frameworks/base/libs/storage/include/storage/IObbActionListener.h' line='30' column='1' visibility='default' binding='global' size-in-bits='32'>
            <parameter type-id='32d2f295' is-artificial='yes'/>
            <return type-id='157d4f95'/>
          </function-decl>
        </member-function>
        <member-function access='public' vtable-offset='4'>
          <function-decl name='onObbResult' mangled-name='_ZN7android18IObbActionListener11onObbResultERKNS_8String16Eii' filepath='frameworks/base/libs/storage/include/storage/IObbActionListener.h' line='32' column='1' visibility='default' binding='global' size-in-bits='32'>
            <parameter type-id='c70198d4' is-artificial='yes'/>
            <parameter type-id='157d4f95'/>
            <parameter type-id='922df12b'/>
            <parameter type-id='922df12b'/>
            <return type-id='48b5725f'/>
          </function-decl>
        </member-function>
      </class-decl>
      <class-decl name='ObbInfo' size-in-bits='288' visibility='default' filepath='frameworks/base/libs/storage/include/storage/ObbInfo.h' line='27' column='1' id='65c10d3d'>
        <base-class access='public' layout-offset-in-bits='0' type-id='f8f7e309'/>
        <base-class access='public' layout-offset-in-bits='96' is-virtual='yes' type-id='12f619c0'/>
        <data-member access='private' layout-offset-in-bits='32'>
          <var-decl name='mFileName' type-id='a3cec311' visibility='default' filepath='frameworks/base/libs/storage/include/storage/ObbInfo.h' line='38' column='1'/>
        </data-member>
        <data-member access='private' layout-offset-in-bits='64'>
          <var-decl name='mPackageName' type-id='a3cec311' visibility='default' filepath='frameworks/base/libs/storage/include/storage/ObbInfo.h' line='39' column='1'/>
        </data-member>
        <data-member access='private' layout-offset-in-bits='96'>
          <var-decl name='mVersion' type-id='3ff5601b' visibility='default' filepath='frameworks/base/libs/storage/include/storage/ObbInfo.h' line='40' column='1'/>
        </data-member>
        <data-member access='private' layout-offset-in-bits='128'>
          <var-decl name='mFlags' type-id='3ff5601b' visibility='default' filepath='frameworks/base/libs/storage/include/storage/ObbInfo.h' line='41' column='1'/>
        </data-member>
        <data-member access='private' layout-offset-in-bits='160'>
          <var-decl name='mSaltSize' type-id='b59d7dce' visibility='default' filepath='frameworks/base/libs/storage/include/storage/ObbInfo.h' line='42' column='1'/>
        </data-member>
        <data-member access='private' layout-offset-in-bits='192'>
          <var-decl name='mSalt' type-id='9f7200cf' visibility='default' filepath='frameworks/base/libs/storage/include/storage/ObbInfo.h' line='43' column='1'/>
        </data-member>
        <member-function access='public' constructor='yes'>
          <function-decl name='ObbInfo' mangled-name='_ZN7android7ObbInfoC1ENS_8String16ES1_iijPKh' filepath='frameworks/base/libs/storage/include/storage/ObbInfo.h' line='30' column='1' visibility='default' binding='global' size-in-bits='32'>
            <parameter type-id='5a61729d' is-artificial='yes'/>
            <parameter type-id='a3cec311'/>
            <parameter type-id='a3cec311'/>
            <parameter type-id='3ff5601b'/>
            <parameter type-id='3ff5601b'/>
            <parameter type-id='b59d7dce'/>
            <parameter type-id='9f7200cf'/>
            <return type-id='48b5725f'/>
          </function-decl>
        </member-function>
        <member-function access='public' destructor='yes' vtable-offset='0'>
          <function-decl name='~ObbInfo' mangled-name='_ZN7android7ObbInfoD0Ev' filepath='frameworks/base/libs/storage/include/storage/ObbInfo.h' line='32' column='1' visibility='default' binding='global' size-in-bits='32'>
            <parameter type-id='5a61729d' is-artificial='yes'/>
            <return type-id='48b5725f'/>
          </function-decl>
        </member-function>
        <member-function access='public' vtable-offset='2'>
          <function-decl name='writeToParcel' mangled-name='_ZNK7android7ObbInfo13writeToParcelEPNS_6ParcelE' filepath='frameworks/base/libs/storage/include/storage/ObbInfo.h' line='34' column='1' visibility='default' binding='global' size-in-bits='32'>
            <parameter type-id='a5f3e61a' is-artificial='yes'/>
            <parameter type-id='1a1ddb91'/>
            <return type-id='a5a046cd'/>
          </function-decl>
        </member-function>
        <member-function access='public' vtable-offset='3'>
          <function-decl name='readFromParcel' mangled-name='_ZN7android7ObbInfo14readFromParcelEPKNS_6ParcelE' filepath='frameworks/base/libs/storage/include/storage/ObbInfo.h' line='35' column='1' visibility='default' binding='global' size-in-bits='32'>
            <parameter type-id='5a61729d' is-artificial='yes'/>
            <parameter type-id='79927164'/>
            <return type-id='a5a046cd'/>
          </function-decl>
        </member-function>
      </class-decl>
      <typedef-decl name='status_t' type-id='3ff5601b' filepath='system/core/libutils/include/utils/Errors.h' line='30' column='1' id='a5a046cd'/>
    </namespace-decl>
    <namespace-decl name='std'>
      <namespace-decl name='__1'>
        <class-decl name='__compressed_pair&lt;android::IMountService *, std::__1::default_delete&lt;android::IMountService&gt; &gt;' size-in-bits='32' visibility='default' filepath='external/libcxx/include/memory' line='2211' column='1' id='452328e6'>
          <base-class access='private' layout-offset-in-bits='0' type-id='5ddaf272'/>
          <base-class access='private' layout-offset-in-bits='0' type-id='a1aaab37'/>
        </class-decl>
        <class-decl name='unique_ptr&lt;android::IMountService, std::__1::default_delete&lt;android::IMountService&gt; &gt;' size-in-bits='32' visibility='default' filepath='external/libcxx/include/memory' line='2401' column='1' id='34e3553c'>
          <member-type access='private'>
            <typedef-decl name='deleter_type' type-id='e4c905b6' filepath='external/libcxx/include/memory' line='2404' column='1' id='4547cff8'/>
          </member-type>
          <member-type access='private'>
            <typedef-decl name='pointer' type-id='4d462c84' filepath='external/libcxx/include/memory' line='2405' column='1' id='0504b995'/>
          </member-type>
          <data-member access='private' layout-offset-in-bits='0'>
            <var-decl name='__ptr_' type-id='452328e6' visibility='default' filepath='external/libcxx/include/memory' line='2411' column='1'/>
          </data-member>
          <member-function access='public'>
            <function-decl name='unique_ptr' filepath='external/libcxx/include/memory' line='2494' column='1' visibility='default' binding='global' size-in-bits='32'>
              <parameter type-id='fb24b3ba' is-artificial='yes'/>
              <parameter type-id='66a959d0'/>
              <return type-id='48b5725f'/>
            </function-decl>
          </member-function>
          <member-function access='public' destructor='yes'>
            <function-decl name='~unique_ptr' mangled-name='_ZNSt3__110unique_ptrIN7android13IMountServiceENS_14default_deleteIS2_EEED2Ev' filepath='external/libcxx/include/memory' line='2606' column='1' visibility='default' binding='global' size-in-bits='32'>
              <parameter type-id='fb24b3ba' is-artificial='yes'/>
              <return type-id='48b5725f'/>
            </function-decl>
          </member-function>
          <member-function access='public'>
            <function-decl name='reset' mangled-name='_ZNSt3__110unique_ptrIN7android13IMountServiceENS_14default_deleteIS2_EEE5resetEPS2_' filepath='external/libcxx/include/memory' line='2648' column='1' visibility='default' binding='global' size-in-bits='32'>
              <parameter type-id='fb24b3ba' is-artificial='yes'/>
              <parameter type-id='0504b995'/>
              <return type-id='48b5725f'/>
            </function-decl>
          </member-function>
          <member-function access='public'>
            <function-decl name='operator bool' mangled-name='_ZNKSt3__110unique_ptrIN7android13IMountServiceENS_14default_deleteIS2_EEEcvbEv' filepath='external/libcxx/include/memory' line='2636' column='1' visibility='default' binding='global' size-in-bits='32'>
              <parameter type-id='cafbb68f' is-artificial='yes'/>
              <return type-id='c894953d'/>
            </function-decl>
          </member-function>
          <member-function access='public'>
            <function-decl name='release' mangled-name='_ZNSt3__110unique_ptrIN7android13IMountServiceENS_14default_deleteIS2_EEE7releaseEv' filepath='external/libcxx/include/memory' line='2641' column='1' visibility='default' binding='global' size-in-bits='32'>
              <parameter type-id='fb24b3ba' is-artificial='yes'/>
              <return type-id='0504b995'/>
            </function-decl>
          </member-function>
          <member-function access='public'>
            <function-decl name='operator=' mangled-name='_ZNSt3__110unique_ptrIN7android13IMountServiceENS_14default_deleteIS2_EEEaSEOS5_' filepath='external/libcxx/include/memory' line='2517' column='1' visibility='default' binding='global' size-in-bits='32'>
              <parameter type-id='fb24b3ba' is-artificial='yes'/>
              <parameter type-id='66a959d0'/>
              <return type-id='ef24a0d6'/>
            </function-decl>
          </member-function>
        </class-decl>
        <class-decl name='__add_lvalue_reference_impl&lt;android::IMountService, true&gt;' size-in-bits='8' is-struct='yes' visibility='default' filepath='external/libcxx/include/type_traits' line='1125' column='1' id='0503b309'>
          <member-type access='public'>
            <typedef-decl name='type' type-id='a0b91aeb' filepath='external/libcxx/include/type_traits' line='1125' column='1' id='4d462c85'/>
          </member-type>
        </class-decl>
        <class-decl name='__compressed_pair_elem&lt;android::IMountService *, 0, false&gt;' size-in-bits='32' is-struct='yes' visibility='default' filepath='external/libcxx/include/memory' line='2134' column='1' id='5ddaf272'>
          <member-type access='public'>
            <typedef-decl name='const_reference' type-id='ee2819be' filepath='external/libcxx/include/memory' line='2137' column='1' id='63812cad'/>
          </member-type>
          <member-type access='public'>
            <typedef-decl name='reference' type-id='705b9f3b' filepath='external/libcxx/include/memory' line='2136' column='1' id='3a142961'/>
          </member-type>
          <data-member access='private' layout-offset-in-bits='0'>
            <var-decl name='__value_' type-id='9cb9149f' visibility='default' filepath='external/libcxx/include/memory' line='2168' column='1'/>
          </data-member>
          <member-function access='public'>
            <function-decl name='__compressed_pair_elem' filepath='external/libcxx/include/memory' line='2140' column='1' visibility='default' binding='global' size-in-bits='32'>
              <parameter type-id='606e1a50' is-artificial='yes'/>
              <return type-id='48b5725f'/>
            </function-decl>
          </member-function>
        </class-decl>
        <class-decl name='__compressed_pair_elem&lt;std::__1::default_delete&lt;android::IMountService&gt;, 1, true&gt;' size-in-bits='8' is-struct='yes' visibility='default' filepath='external/libcxx/include/memory' line='2172' column='1' id='a1aaab37'>
          <base-class access='private' layout-offset-in-bits='0' type-id='e4c905b6'/>
          <member-type access='public'>
            <typedef-decl name='const_reference' type-id='c873bbbf' filepath='external/libcxx/include/memory' line='2175' column='1' id='63812cae'/>
          </member-type>
          <member-type access='public'>
            <typedef-decl name='reference' type-id='55daf9c8' filepath='external/libcxx/include/memory' line='2174' column='1' id='3a142962'/>
          </member-type>
          <member-function access='public'>
            <function-decl name='__compressed_pair_elem' filepath='external/libcxx/include/memory' line='2179' column='1' visibility='default' binding='global' size-in-bits='32'>
              <parameter type-id='97e1a22f' is-artificial='yes'/>
              <return type-id='48b5725f'/>
            </function-decl>
          </member-function>
        </class-decl>
        <class-decl name='__pointer_type&lt;android::IMountService, std::__1::default_delete&lt;android::IMountService&gt; &gt;' size-in-bits='8' is-struct='yes' visibility='default' filepath='external/libcxx/include/memory' line='1029' column='1' id='5c33a3c6'>
          <member-type access='public'>
            <typedef-decl name='type' type-id='4d462c86' filepath='external/libcxx/include/memory' line='1031' column='1' id='4d462c84'/>
          </member-type>
        </class-decl>
        <class-decl name='add_lvalue_reference&lt;android::IMountService&gt;' size-in-bits='8' is-struct='yes' visibility='default' filepath='external/libcxx/include/type_traits' line='1127' column='1' id='12435004'>
          <member-type access='public'>
            <typedef-decl name='type' type-id='4d462c85' filepath='external/libcxx/include/type_traits' line='1128' column='1' id='4d462c87'/>
          </member-type>
        </class-decl>
        <class-decl name='default_delete&lt;android::IMountService&gt;' size-in-bits='8' is-struct='yes' visibility='default' filepath='external/libcxx/include/memory' line='2320' column='1' id='e4c905b6'>
          <member-function access='public'>
            <function-decl name='default_delete' filepath='external/libcxx/include/memory' line='2324' column='1' visibility='default' binding='global' size-in-bits='32'>
              <parameter type-id='51daf37c' is-artificial='yes'/>
              <return type-id='48b5725f'/>
            </function-decl>
          </member-function>
          <member-function access='public'>
            <function-decl name='operator()' mangled-name='_ZNKSt3__114default_deleteIN7android13IMountServiceEEclEPS2_' filepath='external/libcxx/include/memory' line='2334' column='1' visibility='default' binding='global' size-in-bits='32'>
              <parameter type-id='cc73c20b' is-artificial='yes'/>
              <parameter type-id='9cb9149f'/>
              <return type-id='48b5725f'/>
            </function-decl>
          </member-function>
        </class-decl>
        <class-decl name='basic_string&lt;char, std::__1::char_traits&lt;char&gt;, std::__1::allocator&lt;char&gt; &gt;' visibility='default' is-declaration-only='yes' id='27619c1c'/>
        <namespace-decl name='__pointer_type_imp'>
          <class-decl name='__pointer_type&lt;android::IMountService, std::__1::default_delete&lt;android::IMountService&gt;, false&gt;' size-in-bits='8' is-struct='yes' visibility='default' filepath='external/libcxx/include/memory' line='1021' column='1' id='a5b82b2c'>
            <member-type access='public'>
              <typedef-decl name='type' type-id='9cb9149f' filepath='external/libcxx/include/memory' line='1023' column='1' id='4d462c86'/>
            </member-type>
          </class-decl>
        </namespace-decl>
        <typedef-decl name='string' type-id='27619c1c' filepath='external/libcxx/include/iosfwd' line='211' column='1' id='763f758d'/>
      </namespace-decl>
    </namespace-decl>
    <class-decl name='__sFILE' is-struct='yes' visibility='default' is-declaration-only='yes' id='8d7b2c1e'/>
    <function-decl name='iswalnum' filepath='bionic/libc/include/bits/wctype.h' line='40' column='1' visibility='default' binding='global' size-in-bits='32'>
      <parameter type-id='6dd37369'/>
      <return type-id='95e97e5e'/>
    </function-decl>
    <function-decl name='iswalpha' filepath='bionic/libc/include/bits/wctype.h' line='41' column='1' visibility='default' binding='global' size-in-bits='32'>
      <parameter type-id='6dd37369'/>
      <return type-id='95e97e5e'/>
    </function-decl>
    <function-decl name='iswblank' filepath='bionic/libc/include/bits/wctype.h' line='42' column='1' visibility='default' binding='global' size-in-bits='32'>
      <parameter type-id='6dd37369'/>
      <return type-id='95e97e5e'/>
    </function-decl>
    <function-decl name='iswcntrl' filepath='bionic/libc/include/bits/wctype.h' line='43' column='1' visibility='default' binding='global' size-in-bits='32'>
      <parameter type-id='6dd37369'/>
      <return type-id='95e97e5e'/>
    </function-decl>
    <function-decl name='iswdigit' filepath='bionic/libc/include/bits/wctype.h' line='44' column='1' visibility='default' binding='global' size-in-bits='32'>
      <parameter type-id='6dd37369'/>
      <return type-id='95e97e5e'/>
    </function-decl>
    <function-decl name='iswgraph' filepath='bionic/libc/include/bits/wctype.h' line='45' column='1' visibility='default' binding='global' size-in-bits='32'>
      <parameter type-id='6dd37369'/>
      <return type-id='95e97e5e'/>
    </function-decl>
    <function-decl name='iswlower' filepath='bionic/libc/include/bits/wctype.h' line='46' column='1' visibility='default' binding='global' size-in-bits='32'>
      <parameter type-id='6dd37369'/>
      <return type-id='95e97e5e'/>
    </function-decl>
    <function-decl name='iswprint' filepath='bionic/libc/include/bits/wctype.h' line='47' column='1' visibility='default' binding='global' size-in-bits='32'>
      <parameter type-id='6dd37369'/>
      <return type-id='95e97e5e'/>
    </function-decl>
    <function-decl name='iswpunct' filepath='bionic/libc/include/bits/wctype.h' line='48' column='1' visibility='default' binding='global' size-in-bits='32'>
      <parameter type-id='6dd37369'/>
      <return type-id='95e97e5e'/>
    </function-decl>
    <function-decl name='iswspace' filepath='bionic/libc/include/bits/wctype.h' line='49' column='1' visibility='default' binding='global' size-in-bits='32'>
      <parameter type-id='6dd37369'/>
      <return type-id='95e97e5e'/>
    </function-decl>
    <function-decl name='iswupper' filepath='bionic/libc/include/bits/wctype.h' line='50' column='1' visibility='default' binding='global' size-in-bits='32'>
      <parameter type-id='6dd37369'/>
      <return type-id='95e97e5e'/>
    </function-decl>
    <function-decl name='iswxdigit' filepath='bionic/libc/include/bits/wctype.h' line='51' column='1' visibility='default' binding='global' size-in-bits='32'>
      <parameter type-id='6dd37369'/>
      <return type-id='95e97e5e'/>
    </function-decl>
    <function-decl name='towlower' filepath='bionic/libc/include/bits/wctype.h' line='53' column='1' visibility='default' binding='global' size-in-bits='32'>
      <parameter type-id='6dd37369'/>
      <return type-id='6dd37369'/>
    </function-decl>
    <function-decl name='towupper' filepath='bionic/libc/include/bits/wctype.h' line='54' column='1' visibility='default' binding='global' size-in-bits='32'>
      <parameter type-id='6dd37369'/>
      <return type-id='6dd37369'/>
    </function-decl>
    <function-decl name='wctype' filepath='bionic/libc/include/bits/wctype.h' line='57' column='1' visibility='default' binding='global' size-in-bits='32'>
      <parameter type-id='80f4b756'/>
      <return type-id='ba50424d'/>
    </function-decl>
    <function-decl name='iswctype' filepath='bionic/libc/include/bits/wctype.h' line='58' column='1' visibility='default' binding='global' size-in-bits='32'>
      <parameter type-id='6dd37369'/>
      <parameter type-id='ba50424d'/>
      <return type-id='95e97e5e'/>
    </function-decl>
    <typedef-decl name='wctrans_t' type-id='eaa32e2f' filepath='bionic/libc/include/bits/wctype.h' line='60' column='1' id='183c72c3'/>
    <function-decl name='towctrans' filepath='bionic/libc/include/bits/wctype.h' line='61' column='1' visibility='default' binding='global' size-in-bits='32'>
      <parameter type-id='6dd37369'/>
      <parameter type-id='183c72c3'/>
      <return type-id='6dd37369'/>
    </function-decl>
    <function-decl name='wctrans' filepath='bionic/libc/include/bits/wctype.h' line='62' column='1' visibility='default' binding='global' size-in-bits='32'>
      <parameter type-id='80f4b756'/>
      <return type-id='183c72c3'/>
    </function-decl>
    <function-decl name='malloc' filepath='bionic/libc/include/malloc.h' line='43' column='1' visibility='default' binding='global' size-in-bits='32'>
      <parameter type-id='b59d7dce'/>
      <return type-id='eaa32e2f'/>
    </function-decl>
    <function-decl name='calloc' filepath='bionic/libc/include/malloc.h' line='52' column='1' visibility='default' binding='global' size-in-bits='32'>
      <parameter type-id='b59d7dce'/>
      <parameter type-id='b59d7dce'/>
      <return type-id='eaa32e2f'/>
    </function-decl>
    <function-decl name='realloc' filepath='bionic/libc/include/malloc.h' line='61' column='1' visibility='default' binding='global' size-in-bits='32'>
      <parameter type-id='eaa32e2f'/>
      <parameter type-id='b59d7dce'/>
      <return type-id='eaa32e2f'/>
    </function-decl>
    <function-decl name='free' filepath='bionic/libc/include/malloc.h' line='79' column='1' visibility='default' binding='global' size-in-bits='32'>
      <parameter type-id='eaa32e2f'/>
      <return type-id='48b5725f'/>
    </function-decl>
    <typedef-decl name='FILE' type-id='8d7b2c1e' filepath='bionic/libc/include/stdio.h' line='59' column='1' id='aa12d1ba'/>
    <function-decl name='clearerr' filepath='bionic/libc/include/stdio.h' line='106' column='1' visibility='default' binding='global' size-in-bits='32'>
      <parameter type-id='822cd80b'/>
      <return type-id='48b5725f'/>
    </function-decl>
    <function-decl name='fclose' filepath='bionic/libc/include/stdio.h' line='107' column='1' visibility='default' binding='global' size-in-bits='32'>
      <parameter type-id='822cd80b'/>
      <return type-id='95e97e5e'/>
    </function-decl>
    <function-decl name='feof' filepath='bionic/libc/include/stdio.h' line='108' column='1' visibility='default' binding='global' size-in-bits='32'>
      <parameter type-id='822cd80b'/>
      <return type-id='95e97e5e'/>
    </function-decl>
    <function-decl name='ferror' filepath='bionic/libc/include/stdio.h' line='109' column='1' visibility='default' binding='global' size-in-bits='32'>
      <parameter type-id='822cd80b'/>
      <return type-id='95e97e5e'/>
    </function-decl>
    <function-decl name='fflush' filepath='bionic/libc/include/stdio.h' line='110' column='1' visibility='default' binding='global' size-in-bits='32'>
      <parameter type-id='822cd80b'/>
      <return type-id='95e97e5e'/>
    </function-decl>
    <function-decl name='fgetc' filepath='bionic/libc/include/stdio.h' line='111' column='1' visibility='default' binding='global' size-in-bits='32'>
      <parameter type-id='822cd80b'/>
      <return type-id='95e97e5e'/>
    </function-decl>
    <function-decl name='fprintf' filepath='bionic/libc/include/stdio.h' line='113' column='1' visibility='default' binding='global' size-in-bits='32'>
      <parameter type-id='822cd80b'/>
      <parameter type-id='80f4b756'/>
      <parameter is-variadic='yes'/>
      <return type-id='95e97e5e'/>
    </function-decl>
    <function-decl name='fputc' filepath='bionic/libc/include/stdio.h' line='114' column='1' visibility='default' binding='global' size-in-bits='32'>
      <parameter type-id='95e97e5e'/>
      <parameter type-id='822cd80b'/>
      <return type-id='95e97e5e'/>
    </function-decl>
    <function-decl name='fputs' filepath='bionic/libc/include/stdio.h' line='115' column='1' visibility='default' binding='global' size-in-bits='32'>
      <parameter type-id='80f4b756'/>
      <parameter type-id='822cd80b'/>
      <return type-id='95e97e5e'/>
    </function-decl>
    <function-decl name='fscanf' filepath='bionic/libc/include/stdio.h' line='117' column='1' visibility='default' binding='global' size-in-bits='32'>
      <parameter type-id='822cd80b'/>
      <parameter type-id='80f4b756'/>
      <parameter is-variadic='yes'/>
      <return type-id='95e97e5e'/>
    </function-decl>
    <function-decl name='getc' filepath='bionic/libc/include/stdio.h' line='119' column='1' visibility='default' binding='global' size-in-bits='32'>
      <parameter type-id='822cd80b'/>
      <return type-id='95e97e5e'/>
    </function-decl>
    <function-decl name='getchar' filepath='bionic/libc/include/stdio.h' line='120' column='1' visibility='default' binding='global' size-in-bits='32'>
      <return type-id='95e97e5e'/>
    </function-decl>
    <function-decl name='perror' filepath='bionic/libc/include/stdio.h' line='124' column='1' visibility='default' binding='global' size-in-bits='32'>
      <parameter type-id='80f4b756'/>
      <return type-id='48b5725f'/>
    </function-decl>
    <function-decl name='printf' filepath='bionic/libc/include/stdio.h' line='125' column='1' visibility='default' binding='global' size-in-bits='32'>
      <parameter type-id='80f4b756'/>
      <parameter is-variadic='yes'/>
      <return type-id='95e97e5e'/>
    </function-decl>
    <function-decl name='putc' filepath='bionic/libc/include/stdio.h' line='126' column='1' visibility='default' binding='global' size-in-bits='32'>
      <parameter type-id='95e97e5e'/>
      <parameter type-id='822cd80b'/>
      <return type-id='95e97e5e'/>
    </function-decl>
    <function-decl name='putchar' filepath='bionic/libc/include/stdio.h' line='127' column='1' visibility='default' binding='global' size-in-bits='32'>
      <parameter type-id='95e97e5e'/>
      <return type-id='95e97e5e'/>
    </function-decl>
    <function-decl name='puts' filepath='bionic/libc/include/stdio.h' line='128' column='1' visibility='default' binding='global' size-in-bits='32'>
      <parameter type-id='80f4b756'/>
      <return type-id='95e97e5e'/>
    </function-decl>
    <function-decl name='remove' filepath='bionic/libc/include/stdio.h' line='129' column='1' visibility='default' binding='global' size-in-bits='32'>
      <parameter type-id='80f4b756'/>
      <return type-id='95e97e5e'/>
    </function-decl>
    <function-decl name='rewind' filepath='bionic/libc/include/stdio.h' line='130' column='1' visibility='default' binding='global' size-in-bits='32'>
      <parameter type-id='822cd80b'/>
      <return type-id='48b5725f'/>
    </function-decl>
    <function-decl name='scanf' filepath='bionic/libc/include/stdio.h' line='131' column='1' visibility='default' binding='global' size-in-bits='32'>
      <parameter type-id='80f4b756'/>
      <parameter is-variadic='yes'/>
      <return type-id='95e97e5e'/>
    </function-decl>
    <function-decl name='setbuf' filepath='bionic/libc/include/stdio.h' line='132' column='1' visibility='default' binding='global' size-in-bits='32'>
      <parameter type-id='822cd80b'/>
      <parameter type-id='26a90f95'/>
      <return type-id='48b5725f'/>
    </function-decl>
    <function-decl name='setvbuf' filepath='bionic/libc/include/stdio.h' line='133' column='1' visibility='default' binding='global' size-in-bits='32'>
      <parameter type-id='822cd80b'/>
      <parameter type-id='26a90f95'/>
      <parameter type-id='95e97e5e'/>
      <parameter type-id='b59d7dce'/>
      <return type-id='95e97e5e'/>
    </function-decl>
    <function-decl name='sscanf' filepath='bionic/libc/include/stdio.h' line='134' column='1' visibility='default' binding='global' size-in-bits='32'>
      <parameter type-id='80f4b756'/>
      <parameter type-id='80f4b756'/>
      <parameter is-variadic='yes'/>
      <return type-id='95e97e5e'/>
    </function-decl>
    <function-decl name='ungetc' filepath='bionic/libc/include/stdio.h' line='135' column='1' visibility='default' binding='global' size-in-bits='32'>
      <parameter type-id='95e97e5e'/>
      <parameter type-id='822cd80b'/>
      <return type-id='95e97e5e'/>
    </function-decl>
    <function-decl name='vfprintf' filepath='bionic/libc/include/stdio.h' line='136' column='1' visibility='default' binding='global' size-in-bits='32'>
      <parameter type-id='822cd80b'/>
      <parameter type-id='80f4b756'/>
      <parameter type-id='2aee9912'/>
      <return type-id='95e97e5e'/>
    </function-decl>
    <function-decl name='vprintf' filepath='bionic/libc/include/stdio.h' line='137' column='1' visibility='default' binding='global' size-in-bits='32'>
      <parameter type-id='80f4b756'/>
      <parameter type-id='2aee9912'/>
      <return type-id='95e97e5e'/>
    </function-decl>
    <function-decl name='tmpnam' filepath='bionic/libc/include/stdio.h' line='162' column='1' visibility='default' binding='global' size-in-bits='32'>
      <parameter type-id='26a90f95'/>
      <return type-id='26a90f95'/>
    </function-decl>
    <function-decl name='rename' filepath='bionic/libc/include/stdio.h' line='174' column='1' visibility='default' binding='global' size-in-bits='32'>
      <parameter type-id='80f4b756'/>
      <parameter type-id='80f4b756'/>
      <return type-id='95e97e5e'/>
    </function-decl>
    <function-decl name='fseek' filepath='bionic/libc/include/stdio.h' line='215' column='1' visibility='default' binding='global' size-in-bits='32'>
      <parameter type-id='822cd80b'/>
      <parameter type-id='95e97e5f'/>
      <parameter type-id='95e97e5e'/>
      <return type-id='95e97e5e'/>
    </function-decl>
    <function-decl name='ftell' filepath='bionic/libc/include/stdio.h' line='216' column='1' visibility='default' binding='global' size-in-bits='32'>
      <parameter type-id='822cd80b'/>
      <return type-id='95e97e5f'/>
    </function-decl>
    <function-decl name='fgetpos' filepath='bionic/libc/include/stdio.h' line='232' column='1' visibility='default' binding='global' size-in-bits='32'>
      <parameter type-id='822cd80b'/>
      <parameter type-id='c5f12884'/>
      <return type-id='95e97e5e'/>
    </function-decl>
    <function-decl name='fsetpos' filepath='bionic/libc/include/stdio.h' line='233' column='1' visibility='default' binding='global' size-in-bits='32'>
      <parameter type-id='822cd80b'/>
      <parameter type-id='3b76d94f'/>
      <return type-id='95e97e5e'/>
    </function-decl>
    <function-decl name='fopen' filepath='bionic/libc/include/stdio.h' line='256' column='1' visibility='default' binding='global' size-in-bits='32'>
      <parameter type-id='80f4b756'/>
      <parameter type-id='80f4b756'/>
      <return type-id='822cd80b'/>
    </function-decl>
    <function-decl name='freopen' filepath='bionic/libc/include/stdio.h' line='258' column='1' visibility='default' binding='global' size-in-bits='32'>
      <parameter type-id='80f4b756'/>
      <parameter type-id='80f4b756'/>
      <parameter type-id='822cd80b'/>
      <return type-id='822cd80b'/>
    </function-decl>
    <function-decl name='tmpfile' filepath='bionic/libc/include/stdio.h' line='260' column='1' visibility='default' binding='global' size-in-bits='32'>
      <return type-id='822cd80b'/>
    </function-decl>
    <function-decl name='vfscanf' filepath='bionic/libc/include/stdio.h' line='264' column='1' visibility='default' binding='global' size-in-bits='32'>
      <parameter type-id='822cd80b'/>
      <parameter type-id='80f4b756'/>
      <parameter type-id='2aee9912'/>
      <return type-id='95e97e5e'/>
    </function-decl>
    <function-decl name='vscanf' filepath='bionic/libc/include/stdio.h' line='265' column='1' visibility='default' binding='global' size-in-bits='32'>
      <parameter type-id='80f4b756'/>
      <parameter type-id='2aee9912'/>
      <return type-id='95e97e5e'/>
    </function-decl>
    <function-decl name='vsscanf' filepath='bionic/libc/include/stdio.h' line='267' column='1' visibility='default' binding='global' size-in-bits='32'>
      <parameter type-id='80f4b756'/>
      <parameter type-id='80f4b756'/>
      <parameter type-id='2aee9912'/>
      <return type-id='95e97e5e'/>
    </function-decl>
    <function-decl name='abort' filepath='bionic/libc/include/stdlib.h' line='44' column='1' visibility='default' binding='global' size-in-bits='32'>
      <return type-id='48b5725f'/>
    </function-decl>
    <function-decl name='exit' filepath='bionic/libc/include/stdlib.h' line='45' column='1' visibility='default' binding='global' size-in-bits='32'>
      <parameter type-id='95e97e5e'/>
      <return type-id='48b5725f'/>
    </function-decl>
    <function-decl name='_Exit' filepath='bionic/libc/include/stdlib.h' line='47' column='1' visibility='default' binding='global' size-in-bits='32'>
      <parameter type-id='95e97e5e'/>
      <return type-id='48b5725f'/>
    </function-decl>
    <function-decl name='atexit' filepath='bionic/libc/include/stdlib.h' line='52' column='1' visibility='default' binding='global' size-in-bits='32'>
      <parameter type-id='953b12f8'/>
      <return type-id='95e97e5e'/>
    </function-decl>
    <function-decl name='at_quick_exit' filepath='bionic/libc/include/stdlib.h' line='54' column='1' visibility='default' binding='global' size-in-bits='32'>
      <parameter type-id='953b12f8'/>
      <return type-id='95e97e5e'/>
    </function-decl>
    <function-decl name='quick_exit' filepath='bionic/libc/include/stdlib.h' line='55' column='1' visibility='default' binding='global' size-in-bits='32'>
      <parameter type-id='95e97e5e'/>
      <return type-id='48b5725f'/>
    </function-decl>
    <function-decl name='getenv' filepath='bionic/libc/include/stdlib.h' line='57' column='1' visibility='default' binding='global' size-in-bits='32'>
      <parameter type-id='80f4b756'/>
      <return type-id='26a90f95'/>
    </function-decl>
    <function-decl name='strtol' filepath='bionic/libc/include/stdlib.h' line='75' column='1' visibility='default' binding='global' size-in-bits='32'>
      <parameter type-id='80f4b756'/>
      <parameter type-id='9b23c9ad'/>
      <parameter type-id='95e97e5e'/>
      <return type-id='95e97e5f'/>
    </function-decl>
    <function-decl name='strtoll' filepath='bionic/libc/include/stdlib.h' line='76' column='1' visibility='default' binding='global' size-in-bits='32'>
      <parameter type-id='80f4b756'/>
      <parameter type-id='9b23c9ad'/>
      <parameter type-id='95e97e5e'/>
      <return type-id='95e97e60'/>
    </function-decl>
    <function-decl name='strtoul' filepath='bionic/libc/include/stdlib.h' line='77' column='1' visibility='default' binding='global' size-in-bits='32'>
      <parameter type-id='80f4b756'/>
      <parameter type-id='9b23c9ad'/>
      <parameter type-id='95e97e5e'/>
      <return type-id='f0981eeb'/>
    </function-decl>
    <function-decl name='strtoull' filepath='bionic/libc/include/stdlib.h' line='78' column='1' visibility='default' binding='global' size-in-bits='32'>
      <parameter type-id='80f4b756'/>
      <parameter type-id='9b23c9ad'/>
      <parameter type-id='95e97e5e'/>
      <return type-id='f0981eec'/>
    </function-decl>
    <function-decl name='strtod' filepath='bionic/libc/include/stdlib.h' line='84' column='1' visibility='default' binding='global' size-in-bits='32'>
      <parameter type-id='80f4b756'/>
      <parameter type-id='9b23c9ad'/>
      <return type-id='a0eb0f08'/>
    </function-decl>
    <function-decl name='atoi' filepath='bionic/libc/include/stdlib.h' line='89' column='1' visibility='default' binding='global' size-in-bits='32'>
      <parameter type-id='80f4b756'/>
      <return type-id='95e97e5e'/>
    </function-decl>
    <function-decl name='atol' filepath='bionic/libc/include/stdlib.h' line='90' column='1' visibility='default' binding='global' size-in-bits='32'>
      <parameter type-id='80f4b756'/>
      <return type-id='95e97e5f'/>
    </function-decl>
    <function-decl name='atoll' filepath='bionic/libc/include/stdlib.h' line='91' column='1' visibility='default' binding='global' size-in-bits='32'>
      <parameter type-id='80f4b756'/>
      <return type-id='95e97e60'/>
    </function-decl>
    <function-decl name='system' filepath='bionic/libc/include/stdlib.h' line='94' column='1' visibility='default' binding='global' size-in-bits='32'>
      <parameter type-id='80f4b756'/>
      <return type-id='95e97e5e'/>
    </function-decl>
    <function-decl name='bsearch' filepath='bionic/libc/include/stdlib.h' line='96' column='1' visibility='default' binding='global' size-in-bits='32'>
      <parameter type-id='eaa32e2f'/>
      <parameter type-id='eaa32e2f'/>
      <parameter type-id='b59d7dce'/>
      <parameter type-id='b59d7dce'/>
      <parameter type-id='585e1de9'/>
      <return type-id='eaa32e2f'/>
    </function-decl>
    <function-decl name='qsort' filepath='bionic/libc/include/stdlib.h' line='98' column='1' visibility='default' binding='global' size-in-bits='32'>
      <parameter type-id='eaa32e2f'/>
      <parameter type-id='b59d7dce'/>
      <parameter type-id='b59d7dce'/>
      <parameter type-id='585e1de9'/>
      <return type-id='48b5725f'/>
    </function-decl>
    <function-decl name='ldiv' filepath='bionic/libc/include/stdlib.h' line='141' column='1' visibility='default' binding='global' size-in-bits='32'>
      <parameter type-id='95e97e5f'/>
      <parameter type-id='95e97e5f'/>
      <return type-id='30397bf8'/>
    </function-decl>
    <function-decl name='lldiv' filepath='bionic/libc/include/stdlib.h' line='148' column='1' visibility='default' binding='global' size-in-bits='32'>
      <parameter type-id='95e97e60'/>
      <parameter type-id='95e97e60'/>
      <return type-id='f5fa3b34'/>
    </function-decl>
    <function-decl name='mblen' filepath='bionic/libc/include/stdlib.h' line='163' column='1' visibility='default' binding='global' size-in-bits='32'>
      <parameter type-id='80f4b756'/>
      <parameter type-id='b59d7dce'/>
      <return type-id='95e97e5e'/>
    </function-decl>
    <function-decl name='mbstowcs' filepath='bionic/libc/include/stdlib.h' line='164' column='1' visibility='default' binding='global' size-in-bits='32'>
      <parameter type-id='323d93c1'/>
      <parameter type-id='80f4b756'/>
      <parameter type-id='b59d7dce'/>
      <return type-id='b59d7dce'/>
    </function-decl>
    <function-decl name='mbtowc' filepath='bionic/libc/include/stdlib.h' line='165' column='1' visibility='default' binding='global' size-in-bits='32'>
      <parameter type-id='323d93c1'/>
      <parameter type-id='80f4b756'/>
      <parameter type-id='b59d7dce'/>
      <return type-id='95e97e5e'/>
    </function-decl>
    <function-decl name='wctomb' filepath='bionic/libc/include/stdlib.h' line='166' column='1' visibility='default' binding='global' size-in-bits='32'>
      <parameter type-id='26a90f95'/>
      <parameter type-id='c523b9f1'/>
      <return type-id='95e97e5e'/>
    </function-decl>
    <function-decl name='wcstombs' filepath='bionic/libc/include/stdlib.h' line='168' column='1' visibility='default' binding='global' size-in-bits='32'>
      <parameter type-id='26a90f95'/>
      <parameter type-id='f077d3f8'/>
      <parameter type-id='b59d7dce'/>
      <return type-id='b59d7dce'/>
    </function-decl>
    <function-decl name='labs' filepath='bionic/libc/include/stdlib.h' line='188' column='1' visibility='default' binding='global' size-in-bits='32'>
      <parameter type-id='95e97e5f'/>
      <return type-id='95e97e5f'/>
    </function-decl>
    <function-decl name='llabs' filepath='bionic/libc/include/stdlib.h' line='189' column='1' visibility='default' binding='global' size-in-bits='32'>
      <parameter type-id='95e97e60'/>
      <return type-id='95e97e60'/>
    </function-decl>
    <function-decl name='strtof' filepath='bionic/libc/include/stdlib.h' line='195' column='1' visibility='default' binding='global' size-in-bits='32'>
      <parameter type-id='80f4b756'/>
      <parameter type-id='9b23c9ad'/>
      <return type-id='a6c45d85'/>
    </function-decl>
    <function-decl name='atof' filepath='bionic/libc/include/stdlib.h' line='196' column='1' visibility='default' binding='global' size-in-bits='32'>
      <parameter type-id='80f4b756'/>
      <return type-id='a0eb0f08'/>
    </function-decl>
    <function-decl name='rand' filepath='bionic/libc/include/stdlib.h' line='197' column='1' visibility='default' binding='global' size-in-bits='32'>
      <return type-id='95e97e5e'/>
    </function-decl>
    <function-decl name='srand' filepath='bionic/libc/include/stdlib.h' line='198' column='1' visibility='default' binding='global' size-in-bits='32'>
      <parameter type-id='f0981eed'/>
      <return type-id='48b5725f'/>
    </function-decl>
    <function-decl name='memcmp' filepath='bionic/libc/include/string.h' line='52' column='1' visibility='default' binding='global' size-in-bits='32'>
      <parameter type-id='eaa32e2f'/>
      <parameter type-id='eaa32e2f'/>
      <parameter type-id='b59d7dce'/>
      <return type-id='95e97e5e'/>
    </function-decl>
    <function-decl name='strcmp' filepath='bionic/libc/include/string.h' line='78' column='1' visibility='default' binding='global' size-in-bits='32'>
      <parameter type-id='80f4b756'/>
      <parameter type-id='80f4b756'/>
      <return type-id='95e97e5e'/>
    </function-decl>
    <function-decl name='strtok' filepath='bionic/libc/include/string.h' line='91' column='1' visibility='default' binding='global' size-in-bits='32'>
      <parameter type-id='26a90f95'/>
      <parameter type-id='80f4b756'/>
      <return type-id='26a90f95'/>
    </function-decl>
    <function-decl name='strerror' filepath='bionic/libc/include/string.h' line='94' column='1' visibility='default' binding='global' size-in-bits='32'>
      <parameter type-id='95e97e5e'/>
      <return type-id='26a90f95'/>
    </function-decl>
    <function-decl name='strncmp' filepath='bionic/libc/include/string.h' line='105' column='1' visibility='default' binding='global' size-in-bits='32'>
      <parameter type-id='80f4b756'/>
      <parameter type-id='80f4b756'/>
      <parameter type-id='b59d7dce'/>
      <return type-id='95e97e5e'/>
    </function-decl>
    <function-decl name='strcspn' filepath='bionic/libc/include/string.h' line='112' column='1' visibility='default' binding='global' size-in-bits='32'>
      <parameter type-id='80f4b756'/>
      <parameter type-id='80f4b756'/>
      <return type-id='b59d7dce'/>
    </function-decl>
    <function-decl name='strspn' filepath='bionic/libc/include/string.h' line='115' column='1' visibility='default' binding='global' size-in-bits='32'>
      <parameter type-id='80f4b756'/>
      <parameter type-id='80f4b756'/>
      <return type-id='b59d7dce'/>
    </function-decl>
    <function-decl name='strcoll' filepath='bionic/libc/include/string.h' line='119' column='1' visibility='default' binding='global' size-in-bits='32'>
      <parameter type-id='80f4b756'/>
      <parameter type-id='80f4b756'/>
      <return type-id='95e97e5e'/>
    </function-decl>
    <function-decl name='strxfrm' filepath='bionic/libc/include/string.h' line='120' column='1' visibility='default' binding='global' size-in-bits='32'>
      <parameter type-id='26a90f95'/>
      <parameter type-id='80f4b756'/>
      <parameter type-id='b59d7dce'/>
      <return type-id='b59d7dce'/>
    </function-decl>
    <function-decl name='time' filepath='bionic/libc/include/time.h' line='62' column='1' visibility='default' binding='global' size-in-bits='32'>
      <parameter type-id='b2eb2c3f'/>
      <return type-id='c9d12d66'/>
    </function-decl>
    <function-decl name='asctime' filepath='bionic/libc/include/time.h' line='65' column='1' visibility='default' binding='global' size-in-bits='32'>
      <parameter type-id='d6ad37ff'/>
      <return type-id='26a90f95'/>
    </function-decl>
    <function-decl name='difftime' filepath='bionic/libc/include/time.h' line='68' column='1' visibility='default' binding='global' size-in-bits='32'>
      <parameter type-id='c9d12d66'/>
      <parameter type-id='c9d12d66'/>
      <return type-id='a0eb0f08'/>
    </function-decl>
    <function-decl name='mktime' filepath='bionic/libc/include/time.h' line='69' column='1' visibility='default' binding='global' size-in-bits='32'>
      <parameter type-id='d915a820'/>
      <return type-id='c9d12d66'/>
    </function-decl>
    <function-decl name='localtime' filepath='bionic/libc/include/time.h' line='71' column='1' visibility='default' binding='global' size-in-bits='32'>
      <parameter type-id='9f201474'/>
      <return type-id='d915a820'/>
    </function-decl>
    <function-decl name='gmtime' filepath='bionic/libc/include/time.h' line='74' column='1' visibility='default' binding='global' size-in-bits='32'>
      <parameter type-id='9f201474'/>
      <return type-id='d915a820'/>
    </function-decl>
    <function-decl name='strftime' filepath='bionic/libc/include/time.h' line='80' column='1' visibility='default' binding='global' size-in-bits='32'>
      <parameter type-id='26a90f95'/>
      <parameter type-id='b59d7dce'/>
      <parameter type-id='80f4b756'/>
      <parameter type-id='d6ad37ff'/>
      <return type-id='b59d7dce'/>
    </function-decl>
    <function-decl name='ctime' filepath='bionic/libc/include/time.h' line='87' column='1' visibility='default' binding='global' size-in-bits='32'>
      <parameter type-id='9f201474'/>
      <return type-id='26a90f95'/>
    </function-decl>
    <function-decl name='clock' filepath='bionic/libc/include/time.h' line='92' column='1' visibility='default' binding='global' size-in-bits='32'>
      <return type-id='4c3a2c61'/>
    </function-decl>
    <function-decl name='btowc' filepath='bionic/libc/include/wchar.h' line='46' column='1' visibility='default' binding='global' size-in-bits='32'>
      <parameter type-id='95e97e5e'/>
      <return type-id='6dd37369'/>
    </function-decl>
    <function-decl name='fwprintf' filepath='bionic/libc/include/wchar.h' line='47' column='1' visibility='default' binding='global' size-in-bits='32'>
      <parameter type-id='822cd80b'/>
      <parameter type-id='f077d3f8'/>
      <parameter is-variadic='yes'/>
      <return type-id='95e97e5e'/>
    </function-decl>
    <function-decl name='fwscanf' filepath='bionic/libc/include/wchar.h' line='48' column='1' visibility='default' binding='global' size-in-bits='32'>
      <parameter type-id='822cd80b'/>
      <parameter type-id='f077d3f8'/>
      <parameter is-variadic='yes'/>
      <return type-id='95e97e5e'/>
    </function-decl>
    <function-decl name='fgetwc' filepath='bionic/libc/include/wchar.h' line='49' column='1' visibility='default' binding='global' size-in-bits='32'>
      <parameter type-id='822cd80b'/>
      <return type-id='6dd37369'/>
    </function-decl>
    <function-decl name='fgetws' filepath='bionic/libc/include/wchar.h' line='50' column='1' visibility='default' binding='global' size-in-bits='32'>
      <parameter type-id='323d93c1'/>
      <parameter type-id='95e97e5e'/>
      <parameter type-id='822cd80b'/>
      <return type-id='323d93c1'/>
    </function-decl>
    <function-decl name='fputwc' filepath='bionic/libc/include/wchar.h' line='51' column='1' visibility='default' binding='global' size-in-bits='32'>
      <parameter type-id='c523b9f1'/>
      <parameter type-id='822cd80b'/>
      <return type-id='6dd37369'/>
    </function-decl>
    <function-decl name='fputws' filepath='bionic/libc/include/wchar.h' line='52' column='1' visibility='default' binding='global' size-in-bits='32'>
      <parameter type-id='f077d3f8'/>
      <parameter type-id='822cd80b'/>
      <return type-id='95e97e5e'/>
    </function-decl>
    <function-decl name='fwide' filepath='bionic/libc/include/wchar.h' line='53' column='1' visibility='default' binding='global' size-in-bits='32'>
      <parameter type-id='822cd80b'/>
      <parameter type-id='95e97e5e'/>
      <return type-id='95e97e5e'/>
    </function-decl>
    <function-decl name='getwc' filepath='bionic/libc/include/wchar.h' line='54' column='1' visibility='default' binding='global' size-in-bits='32'>
      <parameter type-id='822cd80b'/>
      <return type-id='6dd37369'/>
    </function-decl>
    <function-decl name='getwchar' filepath='bionic/libc/include/wchar.h' line='55' column='1' visibility='default' binding='global' size-in-bits='32'>
      <return type-id='6dd37369'/>
    </function-decl>
    <function-decl name='mbsinit' filepath='bionic/libc/include/wchar.h' line='56' column='1' visibility='default' binding='global' size-in-bits='32'>
      <parameter type-id='5d006ebf'/>
      <return type-id='95e97e5e'/>
    </function-decl>
    <function-decl name='mbrlen' filepath='bionic/libc/include/wchar.h' line='57' column='1' visibility='default' binding='global' size-in-bits='32'>
      <parameter type-id='80f4b756'/>
      <parameter type-id='b59d7dce'/>
      <parameter type-id='a68021ce'/>
      <return type-id='b59d7dce'/>
    </function-decl>
    <function-decl name='mbrtowc' filepath='bionic/libc/include/wchar.h' line='58' column='1' visibility='default' binding='global' size-in-bits='32'>
      <parameter type-id='323d93c1'/>
      <parameter type-id='80f4b756'/>
      <parameter type-id='b59d7dce'/>
      <parameter type-id='a68021ce'/>
      <return type-id='b59d7dce'/>
    </function-decl>
    <function-decl name='mbsrtowcs' filepath='bionic/libc/include/wchar.h' line='59' column='1' visibility='default' binding='global' size-in-bits='32'>
      <parameter type-id='323d93c1'/>
      <parameter type-id='7d3cd834'/>
      <parameter type-id='b59d7dce'/>
      <parameter type-id='a68021ce'/>
      <return type-id='b59d7dce'/>
    </function-decl>
    <function-decl name='putwc' filepath='bionic/libc/include/wchar.h' line='61' column='1' visibility='default' binding='global' size-in-bits='32'>
      <parameter type-id='c523b9f1'/>
      <parameter type-id='822cd80b'/>
      <return type-id='6dd37369'/>
    </function-decl>
    <function-decl name='putwchar' filepath='bionic/libc/include/wchar.h' line='62' column='1' visibility='default' binding='global' size-in-bits='32'>
      <parameter type-id='c523b9f1'/>
      <return type-id='6dd37369'/>
    </function-decl>
    <function-decl name='swprintf' filepath='bionic/libc/include/wchar.h' line='63' column='1' visibility='default' binding='global' size-in-bits='32'>
      <parameter type-id='323d93c1'/>
      <parameter type-id='b59d7dce'/>
      <parameter type-id='f077d3f8'/>
      <parameter is-variadic='yes'/>
      <return type-id='95e97e5e'/>
    </function-decl>
    <function-decl name='swscanf' filepath='bionic/libc/include/wchar.h' line='64' column='1' visibility='default' binding='global' size-in-bits='32'>
      <parameter type-id='f077d3f8'/>
      <parameter type-id='f077d3f8'/>
      <parameter is-variadic='yes'/>
      <return type-id='95e97e5e'/>
    </function-decl>
    <function-decl name='ungetwc' filepath='bionic/libc/include/wchar.h' line='65' column='1' visibility='default' binding='global' size-in-bits='32'>
      <parameter type-id='6dd37369'/>
      <parameter type-id='822cd80b'/>
      <return type-id='6dd37369'/>
    </function-decl>
    <function-decl name='vfwprintf' filepath='bionic/libc/include/wchar.h' line='66' column='1' visibility='default' binding='global' size-in-bits='32'>
      <parameter type-id='822cd80b'/>
      <parameter type-id='f077d3f8'/>
      <parameter type-id='2aee9912'/>
      <return type-id='95e97e5e'/>
    </function-decl>
    <function-decl name='vfwscanf' filepath='bionic/libc/include/wchar.h' line='67' column='1' visibility='default' binding='global' size-in-bits='32'>
      <parameter type-id='822cd80b'/>
      <parameter type-id='f077d3f8'/>
      <parameter type-id='2aee9912'/>
      <return type-id='95e97e5e'/>
    </function-decl>
    <function-decl name='vswprintf' filepath='bionic/libc/include/wchar.h' line='68' column='1' visibility='default' binding='global' size-in-bits='32'>
      <parameter type-id='323d93c1'/>
      <parameter type-id='b59d7dce'/>
      <parameter type-id='f077d3f8'/>
      <parameter type-id='2aee9912'/>
      <return type-id='95e97e5e'/>
    </function-decl>
    <function-decl name='vswscanf' filepath='bionic/libc/include/wchar.h' line='69' column='1' visibility='default' binding='global' size-in-bits='32'>
      <parameter type-id='f077d3f8'/>
      <parameter type-id='f077d3f8'/>
      <parameter type-id='2aee9912'/>
      <return type-id='95e97e5e'/>
    </function-decl>
    <function-decl name='vwprintf' filepath='bionic/libc/include/wchar.h' line='70' column='1' visibility='default' binding='global' size-in-bits='32'>
      <parameter type-id='f077d3f8'/>
      <parameter type-id='2aee9912'/>
      <return type-id='95e97e5e'/>
    </function-decl>
    <function-decl name='vwscanf' filepath='bionic/libc/include/wchar.h' line='71' column='1' visibility='default' binding='global' size-in-bits='32'>
      <parameter type-id='f077d3f8'/>
      <parameter type-id='2aee9912'/>
      <return type-id='95e97e5e'/>
    </function-decl>
    <function-decl name='wcrtomb' filepath='bionic/libc/include/wchar.h' line='74' column='1' visibility='default' binding='global' size-in-bits='32'>
      <parameter type-id='26a90f95'/>
      <parameter type-id='c523b9f1'/>
      <parameter type-id='a68021ce'/>
      <return type-id='b59d7dce'/>
    </function-decl>
    <function-decl name='wcscat' filepath='bionic/libc/include/wchar.h' line='77' column='1' visibility='default' binding='global' size-in-bits='32'>
      <parameter type-id='323d93c1'/>
      <parameter type-id='f077d3f8'/>
      <return type-id='323d93c1'/>
    </function-decl>
    <function-decl name='wcscmp' filepath='bionic/libc/include/wchar.h' line='79' column='1' visibility='default' binding='global' size-in-bits='32'>
      <parameter type-id='f077d3f8'/>
      <parameter type-id='f077d3f8'/>
      <return type-id='95e97e5e'/>
    </function-decl>
    <function-decl name='wcscoll' filepath='bionic/libc/include/wchar.h' line='80' column='1' visibility='default' binding='global' size-in-bits='32'>
      <parameter type-id='f077d3f8'/>
      <parameter type-id='f077d3f8'/>
      <return type-id='95e97e5e'/>
    </function-decl>
    <function-decl name='wcscpy' filepath='bionic/libc/include/wchar.h' line='81' column='1' visibility='default' binding='global' size-in-bits='32'>
      <parameter type-id='323d93c1'/>
      <parameter type-id='f077d3f8'/>
      <return type-id='323d93c1'/>
    </function-decl>
    <function-decl name='wcscspn' filepath='bionic/libc/include/wchar.h' line='82' column='1' visibility='default' binding='global' size-in-bits='32'>
      <parameter type-id='f077d3f8'/>
      <parameter type-id='f077d3f8'/>
      <return type-id='b59d7dce'/>
    </function-decl>
    <function-decl name='wcsftime' filepath='bionic/libc/include/wchar.h' line='83' column='1' visibility='default' binding='global' size-in-bits='32'>
      <parameter type-id='323d93c1'/>
      <parameter type-id='b59d7dce'/>
      <parameter type-id='f077d3f8'/>
      <parameter type-id='d6ad37ff'/>
      <return type-id='b59d7dce'/>
    </function-decl>
    <function-decl name='wcslen' filepath='bionic/libc/include/wchar.h' line='85' column='1' visibility='default' binding='global' size-in-bits='32'>
      <parameter type-id='f077d3f8'/>
      <return type-id='b59d7dce'/>
    </function-decl>
    <function-decl name='wcsncat' filepath='bionic/libc/include/wchar.h' line='88' column='1' visibility='default' binding='global' size-in-bits='32'>
      <parameter type-id='323d93c1'/>
      <parameter type-id='f077d3f8'/>
      <parameter type-id='b59d7dce'/>
      <return type-id='323d93c1'/>
    </function-decl>
    <function-decl name='wcsncmp' filepath='bionic/libc/include/wchar.h' line='89' column='1' visibility='default' binding='global' size-in-bits='32'>
      <parameter type-id='f077d3f8'/>
      <parameter type-id='f077d3f8'/>
      <parameter type-id='b59d7dce'/>
      <return type-id='95e97e5e'/>
    </function-decl>
    <function-decl name='wcsncpy' filepath='bionic/libc/include/wchar.h' line='90' column='1' visibility='default' binding='global' size-in-bits='32'>
      <parameter type-id='323d93c1'/>
      <parameter type-id='f077d3f8'/>
      <parameter type-id='b59d7dce'/>
      <return type-id='323d93c1'/>
    </function-decl>
    <function-decl name='wcsrtombs' filepath='bionic/libc/include/wchar.h' line='94' column='1' visibility='default' binding='global' size-in-bits='32'>
      <parameter type-id='26a90f95'/>
      <parameter type-id='5ea27396'/>
      <parameter type-id='b59d7dce'/>
      <parameter type-id='a68021ce'/>
      <return type-id='b59d7dce'/>
    </function-decl>
    <function-decl name='wcsspn' filepath='bionic/libc/include/wchar.h' line='95' column='1' visibility='default' binding='global' size-in-bits='32'>
      <parameter type-id='f077d3f8'/>
      <parameter type-id='f077d3f8'/>
      <return type-id='b59d7dce'/>
    </function-decl>
    <function-decl name='wcstod' filepath='bionic/libc/include/wchar.h' line='97' column='1' visibility='default' binding='global' size-in-bits='32'>
      <parameter type-id='f077d3f8'/>
      <parameter type-id='01efdaf1'/>
      <return type-id='a0eb0f08'/>
    </function-decl>
    <function-decl name='wcstof' filepath='bionic/libc/include/wchar.h' line='99' column='1' visibility='default' binding='global' size-in-bits='32'>
      <parameter type-id='f077d3f8'/>
      <parameter type-id='01efdaf1'/>
      <return type-id='a6c45d85'/>
    </function-decl>
    <function-decl name='wcstok' filepath='bionic/libc/include/wchar.h' line='101' column='1' visibility='default' binding='global' size-in-bits='32'>
      <parameter type-id='323d93c1'/>
      <parameter type-id='f077d3f8'/>
      <parameter type-id='01efdaf1'/>
      <return type-id='323d93c1'/>
    </function-decl>
    <function-decl name='wcstol' filepath='bionic/libc/include/wchar.h' line='102' column='1' visibility='default' binding='global' size-in-bits='32'>
      <parameter type-id='f077d3f8'/>
      <parameter type-id='01efdaf1'/>
      <parameter type-id='95e97e5e'/>
      <return type-id='95e97e5f'/>
    </function-decl>
    <function-decl name='wcstoll' filepath='bionic/libc/include/wchar.h' line='104' column='1' visibility='default' binding='global' size-in-bits='32'>
      <parameter type-id='f077d3f8'/>
      <parameter type-id='01efdaf1'/>
      <parameter type-id='95e97e5e'/>
      <return type-id='95e97e60'/>
    </function-decl>
    <function-decl name='wcstoul' filepath='bionic/libc/include/wchar.h' line='106' column='1' visibility='default' binding='global' size-in-bits='32'>
      <parameter type-id='f077d3f8'/>
      <parameter type-id='01efdaf1'/>
      <parameter type-id='95e97e5e'/>
      <return type-id='f0981eeb'/>
    </function-decl>
    <function-decl name='wcstoull' filepath='bionic/libc/include/wchar.h' line='108' column='1' visibility='default' binding='global' size-in-bits='32'>
      <parameter type-id='f077d3f8'/>
      <parameter type-id='01efdaf1'/>
      <parameter type-id='95e97e5e'/>
      <return type-id='f0981eec'/>
    </function-decl>
    <function-decl name='wcsxfrm' filepath='bionic/libc/include/wchar.h' line='110' column='1' visibility='default' binding='global' size-in-bits='32'>
      <parameter type-id='323d93c1'/>
      <parameter type-id='f077d3f8'/>
      <parameter type-id='b59d7dce'/>
      <return type-id='b59d7dce'/>
    </function-decl>
    <function-decl name='wctob' filepath='bionic/libc/include/wchar.h' line='111' column='1' visibility='default' binding='global' size-in-bits='32'>
      <parameter type-id='6dd37369'/>
      <return type-id='95e97e5e'/>
    </function-decl>
    <function-decl name='wmemcmp' filepath='bionic/libc/include/wchar.h' line='114' column='1' visibility='default' binding='global' size-in-bits='32'>
      <parameter type-id='f077d3f8'/>
      <parameter type-id='f077d3f8'/>
      <parameter type-id='b59d7dce'/>
      <return type-id='95e97e5e'/>
    </function-decl>
    <function-decl name='wmemcpy' filepath='bionic/libc/include/wchar.h' line='115' column='1' visibility='default' binding='global' size-in-bits='32'>
      <parameter type-id='323d93c1'/>
      <parameter type-id='f077d3f8'/>
      <parameter type-id='b59d7dce'/>
      <return type-id='323d93c1'/>
    </function-decl>
    <function-decl name='wmemmove' filepath='bionic/libc/include/wchar.h' line='119' column='1' visibility='default' binding='global' size-in-bits='32'>
      <parameter type-id='323d93c1'/>
      <parameter type-id='f077d3f8'/>
      <parameter type-id='b59d7dce'/>
      <return type-id='323d93c1'/>
    </function-decl>
    <function-decl name='wmemset' filepath='bionic/libc/include/wchar.h' line='120' column='1' visibility='default' binding='global' size-in-bits='32'>
      <parameter type-id='323d93c1'/>
      <parameter type-id='c523b9f1'/>
      <parameter type-id='b59d7dce'/>
      <return type-id='323d93c1'/>
    </function-decl>
    <function-decl name='wprintf' filepath='bionic/libc/include/wchar.h' line='121' column='1' visibility='default' binding='global' size-in-bits='32'>
      <parameter type-id='f077d3f8'/>
      <parameter is-variadic='yes'/>
      <return type-id='95e97e5e'/>
    </function-decl>
    <function-decl name='wscanf' filepath='bionic/libc/include/wchar.h' line='122' column='1' visibility='default' binding='global' size-in-bits='32'>
      <parameter type-id='f077d3f8'/>
      <parameter is-variadic='yes'/>
      <return type-id='95e97e5e'/>
    </function-decl>
    <function-type size-in-bits='32' id='ee076206'>
      <return type-id='48b5725f'/>
    </function-type>
  </abi-instr>
  <abi-instr address-size='32' path='frameworks/base/libs/storage/IObbActionListener.cpp' language='LANG_C_plus_plus_14'>
    <array-type-def dimensions='1' type-id='801a266d' size-in-bits='608' id='19b37a54'>
      <subrange length='38' lower-bound='0' upper-bound='37' type-id='7ff19f0f' id='aa4ccdac'/>
    </array-type-def>
    <pointer-type-def type-id='b4c0d64f' size-in-bits='32' id='36e31287'/>
    <pointer-type-def type-id='3224f91e' size-in-bits='32' id='e09894a4'/>
    <pointer-type-def type-id='af342359' size-in-bits='32' id='e1c45961'/>
    <qualified-type-def type-id='c70198d4' const='yes' id='a48c009f'/>
    <reference-type-def kind='lvalue' type-id='a48c009f' size-in-bits='32' id='c165233b'/>
    <reference-type-def kind='lvalue' type-id='c70198d4' size-in-bits='32' id='3983c4f6'/>
    <pointer-type-def type-id='6a14bf2f' size-in-bits='32' id='6ec90c77'/>
    <qualified-type-def type-id='f7c5ae1e' const='yes' id='79f4741d'/>
    <pointer-type-def type-id='79f4741d' size-in-bits='32' id='32d2f295'/>
    <qualified-type-def type-id='6a14bf2f' const='yes' id='eae5dbc4'/>
    <reference-type-def kind='lvalue' type-id='eae5dbc4' size-in-bits='32' id='a9d924c6'/>
    <qualified-type-def type-id='9a8c82c0' const='yes' id='589f2895'/>
    <pointer-type-def type-id='589f2895' size-in-bits='32' id='418d24ad'/>
    <qualified-type-def type-id='15f35f71' const='yes' id='5d62d332'/>
    <pointer-type-def type-id='5d62d332' size-in-bits='32' id='1a924ec8'/>
    <qualified-type-def type-id='17e76a52' const='yes' id='91a7fe13'/>
    <pointer-type-def type-id='91a7fe13' size-in-bits='32' id='847533bb'/>
    <qualified-type-def type-id='0de0b2fb' const='yes' id='990dfc58'/>
    <reference-type-def kind='lvalue' type-id='990dfc58' size-in-bits='32' id='6f047a5a'/>
    <pointer-type-def type-id='990dfc58' size-in-bits='32' id='63046776'/>
    <qualified-type-def type-id='c722890a' const='yes' id='3e775081'/>
    <reference-type-def kind='lvalue' type-id='3e775081' size-in-bits='32' id='fcd3f6e5'/>
    <pointer-type-def type-id='3e775081' size-in-bits='32' id='00d3fd31'/>
    <qualified-type-def type-id='4547cff9' const='yes' id='fc5a3b89'/>
    <reference-type-def kind='lvalue' type-id='fc5a3b89' size-in-bits='32' id='f00bf2eb'/>
    <reference-type-def kind='lvalue' type-id='9a8c82c0' size-in-bits='32' id='83c15dea'/>
    <pointer-type-def type-id='9a8c82c0' size-in-bits='32' id='77c14b06'/>
    <pointer-type-def type-id='15f35f71' size-in-bits='32' id='10cb6749'/>
    <pointer-type-def type-id='17e76a52' size-in-bits='32' id='1e283db0'/>
    <reference-type-def kind='lvalue' type-id='0de0b2fb' size-in-bits='32' id='b43a7bff'/>
    <pointer-type-def type-id='0de0b2fb' size-in-bits='32' id='b83a824b'/>
    <reference-type-def kind='lvalue' type-id='c722890a' size-in-bits='32' id='cfba356c'/>
    <reference-type-def kind='rvalue' type-id='c722890a' size-in-bits='32' id='4c21e37e'/>
    <pointer-type-def type-id='c722890a' size-in-bits='32' id='d3ba3bb8'/>
    <reference-type-def kind='lvalue' type-id='4547cff9' size-in-bits='32' id='ff242d42'/>
    <pointer-type-def type-id='aa12d1bb' size-in-bits='32' id='822cd80c'/>
    <pointer-type-def type-id='df458ae7' size-in-bits='32' id='621ed18d'/>
    <pointer-type-def type-id='edff7cb4' size-in-bits='32' id='b5a5bc14'/>
    <pointer-type-def type-id='40b6343b' size-in-bits='32' id='6d5a3b79'/>
    <pointer-type-def type-id='b5977877' size-in-bits='32' id='0657c1ff'/>
    <pointer-type-def type-id='a87dbeee' size-in-bits='32' id='ce9e5ae4'/>
    <pointer-type-def type-id='259563fa' size-in-bits='32' id='e7293458'/>
    <qualified-type-def type-id='783cc678' const='yes' id='44c384ef'/>
    <qualified-type-def type-id='8fc19046' const='yes' id='d452635d'/>
    <pointer-type-def type-id='d452635d' size-in-bits='32' id='b4b29455'/>
    <qualified-type-def type-id='63080be8' const='yes' id='75a1230f'/>
    <qualified-type-def type-id='dff69842' const='yes' id='5be53127'/>
    <qualified-type-def type-id='b04db2dd' const='yes' id='00633158'/>
    <qualified-type-def type-id='7bb1d8e1' const='yes' id='0e59eb20'/>
    <qualified-type-def type-id='606d2805' const='yes' id='cbdbf7d2'/>
    <qualified-type-def type-id='359485b5' const='yes' id='53334ee2'/>
    <qualified-type-def type-id='2a92430d' const='yes' id='b80399ca'/>
    <qualified-type-def type-id='23f2d06f' const='yes' id='dcc28adc'/>
    <qualified-type-def type-id='8c662fc5' const='yes' id='4db497f2'/>
    <qualified-type-def type-id='482d220b' const='yes' id='06ffb900'/>
    <qualified-type-def type-id='6ba1fceb' const='yes' id='eb2629cc'/>
    <qualified-type-def type-id='3f8702cf' const='yes' id='37aad5fa'/>
    <qualified-type-def type-id='560c92f7' const='yes' id='12d46c22'/>
    <qualified-type-def type-id='49eccd9d' const='yes' id='f53b94fe'/>
    <qualified-type-def type-id='a3295715' const='yes' id='d73e162a'/>
    <qualified-type-def type-id='763f758e' const='yes' id='17a746bd'/>
    <qualified-type-def type-id='427e4b8a' const='yes' id='1dd04bd9'/>
    <qualified-type-def type-id='82a684ba' const='yes' id='03a9204f'/>
    <qualified-type-def type-id='b54229ce' const='yes' id='e1f2fe13'/>
    <qualified-type-def type-id='ff70dc94' const='yes' id='c508b1b1'/>
    <qualified-type-def type-id='0e839744' const='yes' id='95bfe8d1'/>
    <qualified-type-def type-id='cdd69b5c' const='yes' id='fbb12461'/>
    <qualified-type-def type-id='b9fa8f40' const='yes' id='2533de45'/>
    <qualified-type-def type-id='5417a89c' const='yes' id='8fa83ea9'/>
    <qualified-type-def type-id='2f680da0' const='yes' id='224503c5'/>
    <qualified-type-def type-id='9360eadc' const='yes' id='3e9fa921'/>
    <qualified-type-def type-id='a3eca172' const='yes' id='4f54b247'/>
    <qualified-type-def type-id='444756ca' const='yes' id='4729bdff'/>
    <qualified-type-def type-id='9c9ad7b0' const='yes' id='14d1d5fd'/>
    <qualified-type-def type-id='cab02d1c' const='yes' id='99b40a09'/>
    <qualified-type-def type-id='d5fd3ca7' const='yes' id='8dba978e'/>
    <qualified-type-def type-id='4de8320f' const='yes' id='de6e0290'/>
    <qualified-type-def type-id='45e7b03b' const='yes' id='1733cb18'/>
    <qualified-type-def type-id='aa688d0f' const='yes' id='14b1b7ea'/>
    <qualified-type-def type-id='8e24268f' const='yes' id='3e60ea5a'/>
    <qualified-type-def type-id='9f0bbb87' const='yes' id='330d96aa'/>
    <qualified-type-def type-id='255041c5' const='yes' id='5ae3c360'/>
    <qualified-type-def type-id='3c4ae4e9' const='yes' id='e0150e18'/>
    <qualified-type-def type-id='46767cd5' const='yes' id='d8498116'/>
    <namespace-decl name='android'>
      <class-decl name='BnObbActionListener' size-in-bits='192' visibility='default' filepath='frameworks/base/libs/storage/include/storage/IObbActionListener.h' line='37' column='1' id='b4c0d64f'>
        <base-class access='public' layout-offset-in-bits='0' type-id='2144ef38'/>
        <member-function access='public' vtable-offset='6'>
          <function-decl name='onTransact' mangled-name='_ZN7android19BnObbActionListener10onTransactEjRKNS_6ParcelEPS1_j' filepath='frameworks/base/libs/storage/include/storage/IObbActionListener.h' line='40' column='1' visibility='default' binding='global' size-in-bits='32'>
            <parameter type-id='36e31287' is-artificial='yes'/>
            <parameter type-id='8f92235e'/>
            <parameter type-id='6d925e80'/>
            <parameter type-id='1a1ddb91'/>
            <parameter type-id='8f92235e'/>
            <return type-id='a5a046cd'/>
          </function-decl>
        </member-function>
      </class-decl>
      <class-decl name='BpInterface&lt;android::IObbActionListener&gt;' size-in-bits='224' visibility='default' filepath='frameworks/native/libs/binder/include/binder/IInterface.h' line='86' column='1' id='3224f91e'>
        <base-class access='public' layout-offset-in-bits='0' type-id='f7c5ae1e'/>
        <base-class access='public' layout-offset-in-bits='32' type-id='df458ae7'/>
        <member-function access='public'>
          <function-decl name='BpInterface' mangled-name='_ZN7android11BpInterfaceINS_18IObbActionListenerEEC2ERKNS_2spINS_7IBinderEEE' filepath='frameworks/native/libs/binder/include/binder/IInterface.h' line='89' column='1' visibility='default' binding='global' size-in-bits='32'>
            <parameter type-id='e09894a4' is-artificial='yes'/>
            <parameter type-id='83dafb9a'/>
            <return type-id='48b5725f'/>
          </function-decl>
        </member-function>
        <member-function access='protected' vtable-offset='2'>
          <function-decl name='onAsBinder' mangled-name='_ZN7android11BpInterfaceINS_18IObbActionListenerEE10onAsBinderEv' filepath='frameworks/native/libs/binder/include/binder/IInterface.h' line='93' column='1' visibility='default' binding='global' size-in-bits='32'>
            <parameter type-id='e09894a4' is-artificial='yes'/>
            <return type-id='b5a5bc14'/>
          </function-decl>
        </member-function>
      </class-decl>
      <class-decl name='BpObbActionListener' size-in-bits='224' visibility='default' filepath='frameworks/base/libs/storage/IObbActionListener.cpp' line='27' column='1' id='af342359'>
        <base-class access='public' layout-offset-in-bits='0' type-id='3224f91e'/>
        <member-function access='public' constructor='yes'>
          <function-decl name='BpObbActionListener' mangled-name='_ZN7android19BpObbActionListenerC1ERKNS_2spINS_7IBinderEEE' filepath='frameworks/base/libs/storage/IObbActionListener.cpp' line='29' column='1' visibility='default' binding='global' size-in-bits='32'>
            <parameter type-id='e1c45961' is-artificial='yes'/>
            <parameter type-id='83dafb9a'/>
            <return type-id='48b5725f'/>
          </function-decl>
        </member-function>
        <member-function access='public' vtable-offset='4'>
          <function-decl name='onObbResult' mangled-name='_ZN7android19BpObbActionListener11onObbResultERKNS_8String16Eii' filepath='frameworks/base/libs/storage/IObbActionListener.cpp' line='33' column='1' visibility='default' binding='global' size-in-bits='32'>
            <parameter type-id='e1c45961' is-artificial='yes'/>
            <parameter type-id='157d4f95'/>
            <parameter type-id='922df12b'/>
            <parameter type-id='922df12b'/>
            <return type-id='48b5725f'/>
          </function-decl>
        </member-function>
      </class-decl>
      <class-decl name='IObbActionListener' size-in-bits='96' visibility='default' filepath='frameworks/base/libs/storage/include/storage/IObbActionListener.h' line='27' column='1' id='f7c5ae1e'>
        <base-class access='public' layout-offset-in-bits='0' type-id='40b6343c'/>
        <data-member access='public' static='yes'>
          <var-decl name='descriptor' type-id='a3cec311' mangled-name='_ZN7android18IObbActionListener10descriptorE' visibility='default' filepath='frameworks/base/libs/storage/include/storage/IObbActionListener.h' line='30' column='1'/>
        </data-member>
        <data-member access='private' static='yes'>
          <var-decl name='default_impl' type-id='c722890a' mangled-name='_ZN7android18IObbActionListener12default_implE' visibility='default' filepath='frameworks/base/libs/storage/include/storage/IObbActionListener.h' line='30' column='1'/>
        </data-member>
        <member-function access='public' constructor='yes'>
          <function-decl name='IObbActionListener' mangled-name='_ZN7android18IObbActionListenerC2Ev' filepath='frameworks/base/libs/storage/include/storage/IObbActionListener.h' line='30' column='1' visibility='default' binding='global' size-in-bits='32'>
            <parameter type-id='c70198d4' is-artificial='yes'/>
            <return type-id='48b5725f'/>
          </function-decl>
        </member-function>
        <member-function access='public' static='yes'>
          <function-decl name='asInterface' mangled-name='_ZN7android18IObbActionListener11asInterfaceERKNS_2spINS_7IBinderEEE' filepath='frameworks/base/libs/storage/include/storage/IObbActionListener.h' line='30' column='1' visibility='default' binding='global' size-in-bits='32'>
            <parameter type-id='83dafb9a'/>
            <return type-id='92343ec8'/>
          </function-decl>
        </member-function>
        <member-function access='public' static='yes'>
          <function-decl name='setDefaultImpl' mangled-name='_ZN7android18IObbActionListener14setDefaultImplENSt3__110unique_ptrIS0_NS1_14default_deleteIS0_EEEE' filepath='frameworks/base/libs/storage/include/storage/IObbActionListener.h' line='30' column='1' visibility='default' binding='global' size-in-bits='32'>
            <parameter type-id='c722890a'/>
            <return type-id='c894953d'/>
          </function-decl>
        </member-function>
        <member-function access='public' static='yes'>
          <function-decl name='getDefaultImpl' mangled-name='_ZN7android18IObbActionListener14getDefaultImplEv' filepath='frameworks/base/libs/storage/include/storage/IObbActionListener.h' line='30' column='1' visibility='default' binding='global' size-in-bits='32'>
            <return type-id='fcd3f6e5'/>
          </function-decl>
        </member-function>
        <member-function access='public' destructor='yes' vtable-offset='0'>
          <function-decl name='~IObbActionListener' mangled-name='_ZN7android18IObbActionListenerD0Ev' filepath='frameworks/base/libs/storage/include/storage/IObbActionListener.h' line='30' column='1' visibility='default' binding='global' size-in-bits='32'>
            <parameter type-id='c70198d4' is-artificial='yes'/>
            <return type-id='48b5725f'/>
          </function-decl>
        </member-function>
        <member-function access='public' vtable-offset='3'>
          <function-decl name='getInterfaceDescriptor' mangled-name='_ZNK7android18IObbActionListener22getInterfaceDescriptorEv' filepath='frameworks/base/libs/storage/include/storage/IObbActionListener.h' line='30' column='1' visibility='default' binding='global' size-in-bits='32'>
            <parameter type-id='32d2f295' is-artificial='yes'/>
            <return type-id='157d4f95'/>
          </function-decl>
        </member-function>
        <member-function access='public' vtable-offset='4'>
          <function-decl name='onObbResult' mangled-name='_ZN7android18IObbActionListener11onObbResultERKNS_8String16Eii' filepath='frameworks/base/libs/storage/include/storage/IObbActionListener.h' line='32' column='1' visibility='default' binding='global' size-in-bits='32'>
            <parameter type-id='c70198d4' is-artificial='yes'/>
            <parameter type-id='157d4f95'/>
            <parameter type-id='922df12b'/>
            <parameter type-id='922df12b'/>
            <return type-id='48b5725f'/>
          </function-decl>
        </member-function>
      </class-decl>
      <class-decl name='BpRefBase' visibility='default' is-declaration-only='yes' id='df458ae7'>
        <member-function access='protected'>
          <function-decl name='remote' mangled-name='_ZN7android9BpRefBase6remoteEv' filepath='frameworks/native/libs/binder/include/binder/Binder.h' line='114' column='1' visibility='default' binding='global' size-in-bits='32'>
            <parameter type-id='621ed18d' is-artificial='yes'/>
            <return type-id='b5a5bc14'/>
          </function-decl>
        </member-function>
      </class-decl>
      <class-decl name='IBinder' visibility='default' is-declaration-only='yes' id='edff7cb4'/>
      <class-decl name='IInterface' visibility='default' is-declaration-only='yes' id='40b6343b'/>
      <class-decl name='IPCThreadState' visibility='default' is-declaration-only='yes' id='b5977877'/>
      <class-decl name='Parcelable' size-in-bits='32' visibility='default' filepath='frameworks/native/libs/binder/include/binder/Parcelable.h' line='35' column='1' id='f8f7e309'>
        <member-function access='public' constructor='yes'>
          <function-decl name='Parcelable' mangled-name='_ZN7android10ParcelableC2Ev' filepath='frameworks/native/libs/binder/include/binder/Parcelable.h' line='39' column='1' visibility='default' binding='global' size-in-bits='32'>
            <parameter type-id='f7891b51' is-artificial='yes'/>
            <return type-id='48b5725f'/>
          </function-decl>
        </member-function>
        <member-function access='public' constructor='yes'>
          <function-decl name='Parcelable' filepath='frameworks/native/libs/binder/include/binder/Parcelable.h' line='40' column='1' visibility='default' binding='global' size-in-bits='32'>
            <parameter type-id='f7891b51' is-artificial='yes'/>
            <parameter type-id='769dcc84'/>
            <return type-id='48b5725f'/>
          </function-decl>
        </member-function>
        <member-function access='public' destructor='yes' vtable-offset='0'>
          <function-decl name='~Parcelable' mangled-name='_ZN7android10ParcelableD0Ev' filepath='frameworks/native/libs/binder/include/binder/Parcelable.h' line='37' column='1' visibility='default' binding='global' size-in-bits='32'>
            <parameter type-id='f7891b51' is-artificial='yes'/>
            <return type-id='48b5725f'/>
          </function-decl>
        </member-function>
        <member-function access='public' vtable-offset='2'>
          <function-decl name='writeToParcel' mangled-name='_ZNK7android10Parcelable13writeToParcelEPNS_6ParcelE' filepath='frameworks/native/libs/binder/include/binder/Parcelable.h' line='47' column='1' visibility='default' binding='global' size-in-bits='32'>
            <parameter type-id='6a9db9a0' is-artificial='yes'/>
            <parameter type-id='1a1ddb91'/>
            <return type-id='a5a046cd'/>
          </function-decl>
        </member-function>
        <member-function access='public' vtable-offset='3'>
          <function-decl name='readFromParcel' mangled-name='_ZN7android10Parcelable14readFromParcelEPKNS_6ParcelE' filepath='frameworks/native/libs/binder/include/binder/Parcelable.h' line='54' column='1' visibility='default' binding='global' size-in-bits='32'>
            <parameter type-id='f7891b51' is-artificial='yes'/>
            <parameter type-id='79927164'/>
            <return type-id='a5a046cd'/>
          </function-decl>
        </member-function>
        <member-function access='public' vtable-offset='4'>
          <function-decl name='isStable' mangled-name='_ZNK7android10Parcelable8isStableEv' filepath='frameworks/native/libs/binder/include/binder/Parcelable.h' line='60' column='1' visibility='default' binding='global' size-in-bits='32'>
            <parameter type-id='6a9db9a0' is-artificial='yes'/>
            <return type-id='c894953d'/>
          </function-decl>
        </member-function>
      </class-decl>
      <class-decl name='TextOutput' visibility='default' is-declaration-only='yes' id='32215dca'/>
      <namespace-decl name='base'>
        <typedef-decl name='unique_fd' type-id='bd6f4e31' filepath='system/libbase/include/android-base/unique_fd.h' line='178' column='1' id='c8068786'/>
      </namespace-decl>
      <class-decl name='flat_binder_object' is-struct='yes' visibility='default' is-declaration-only='yes' id='8fc19046'/>
    </namespace-decl>
    <namespace-decl name='std'>
      <namespace-decl name='__1'>
        <class-decl name='__compressed_pair&lt;android::IObbActionListener *, std::__1::default_delete&lt;android::IObbActionListener&gt; &gt;' size-in-bits='32' visibility='default' filepath='external/libcxx/include/memory' line='2211' column='1' id='9a8c82c0'>
          <base-class access='private' layout-offset-in-bits='0' type-id='15f35f71'/>
          <base-class access='private' layout-offset-in-bits='0' type-id='17e76a52'/>
        </class-decl>
        <class-decl name='unique_ptr&lt;android::IObbActionListener, std::__1::default_delete&lt;android::IObbActionListener&gt; &gt;' size-in-bits='32' visibility='default' filepath='external/libcxx/include/memory' line='2401' column='1' id='c722890a'>
          <member-type access='private'>
            <typedef-decl name='deleter_type' type-id='0de0b2fb' filepath='external/libcxx/include/memory' line='2404' column='1' id='4547cff9'/>
          </member-type>
          <member-type access='private'>
            <typedef-decl name='pointer' type-id='4d462c88' filepath='external/libcxx/include/memory' line='2405' column='1' id='0504b996'/>
          </member-type>
          <data-member access='private' layout-offset-in-bits='0'>
            <var-decl name='__ptr_' type-id='9a8c82c0' visibility='default' filepath='external/libcxx/include/memory' line='2411' column='1'/>
          </data-member>
          <member-function access='public'>
            <function-decl name='unique_ptr' filepath='external/libcxx/include/memory' line='2494' column='1' visibility='default' binding='global' size-in-bits='32'>
              <parameter type-id='d3ba3bb8' is-artificial='yes'/>
              <parameter type-id='4c21e37e'/>
              <return type-id='48b5725f'/>
            </function-decl>
          </member-function>
          <member-function access='public' destructor='yes'>
            <function-decl name='~unique_ptr' mangled-name='_ZNSt3__110unique_ptrIN7android18IObbActionListenerENS_14default_deleteIS2_EEED2Ev' filepath='external/libcxx/include/memory' line='2606' column='1' visibility='default' binding='global' size-in-bits='32'>
              <parameter type-id='d3ba3bb8' is-artificial='yes'/>
              <return type-id='48b5725f'/>
            </function-decl>
          </member-function>
          <member-function access='public'>
            <function-decl name='reset' mangled-name='_ZNSt3__110unique_ptrIN7android18IObbActionListenerENS_14default_deleteIS2_EEE5resetEPS2_' filepath='external/libcxx/include/memory' line='2648' column='1' visibility='default' binding='global' size-in-bits='32'>
              <parameter type-id='d3ba3bb8' is-artificial='yes'/>
              <parameter type-id='0504b996'/>
              <return type-id='48b5725f'/>
            </function-decl>
          </member-function>
          <member-function access='public'>
            <function-decl name='operator bool' mangled-name='_ZNKSt3__110unique_ptrIN7android18IObbActionListenerENS_14default_deleteIS2_EEEcvbEv' filepath='external/libcxx/include/memory' line='2636' column='1' visibility='default' binding='global' size-in-bits='32'>
              <parameter type-id='00d3fd31' is-artificial='yes'/>
              <return type-id='c894953d'/>
            </function-decl>
          </member-function>
          <member-function access='public'>
            <function-decl name='release' mangled-name='_ZNSt3__110unique_ptrIN7android18IObbActionListenerENS_14default_deleteIS2_EEE7releaseEv' filepath='external/libcxx/include/memory' line='2641' column='1' visibility='default' binding='global' size-in-bits='32'>
              <parameter type-id='d3ba3bb8' is-artificial='yes'/>
              <return type-id='0504b996'/>
            </function-decl>
          </member-function>
          <member-function access='public'>
            <function-decl name='operator=' mangled-name='_ZNSt3__110unique_ptrIN7android18IObbActionListenerENS_14default_deleteIS2_EEEaSEOS5_' filepath='external/libcxx/include/memory' line='2517' column='1' visibility='default' binding='global' size-in-bits='32'>
              <parameter type-id='d3ba3bb8' is-artificial='yes'/>
              <parameter type-id='4c21e37e'/>
              <return type-id='cfba356c'/>
            </function-decl>
          </member-function>
        </class-decl>
        <class-decl name='__add_lvalue_reference_impl&lt;android::IObbActionListener, true&gt;' size-in-bits='8' is-struct='yes' visibility='default' filepath='external/libcxx/include/type_traits' line='1125' column='1' id='9ce38486'>
          <member-type access='public'>
            <typedef-decl name='type' type-id='bb0185f0' filepath='external/libcxx/include/type_traits' line='1125' column='1' id='4d462c89'/>
          </member-type>
        </class-decl>
        <class-decl name='__compressed_pair_elem&lt;android::IObbActionListener *, 0, false&gt;' size-in-bits='32' is-struct='yes' visibility='default' filepath='external/libcxx/include/memory' line='2134' column='1' id='15f35f71'>
          <member-type access='public'>
            <typedef-decl name='const_reference' type-id='c165233b' filepath='external/libcxx/include/memory' line='2137' column='1' id='63812caf'/>
          </member-type>
          <member-type access='public'>
            <typedef-decl name='reference' type-id='3983c4f6' filepath='external/libcxx/include/memory' line='2136' column='1' id='3a142963'/>
          </member-type>
          <data-member access='private' layout-offset-in-bits='0'>
            <var-decl name='__value_' type-id='c70198d4' visibility='default' filepath='external/libcxx/include/memory' line='2168' column='1'/>
          </data-member>
          <member-function access='public'>
            <function-decl name='__compressed_pair_elem' filepath='external/libcxx/include/memory' line='2140' column='1' visibility='default' binding='global' size-in-bits='32'>
              <parameter type-id='10cb6749' is-artificial='yes'/>
              <return type-id='48b5725f'/>
            </function-decl>
          </member-function>
        </class-decl>
        <class-decl name='__compressed_pair_elem&lt;std::__1::default_delete&lt;android::IObbActionListener&gt;, 1, true&gt;' size-in-bits='8' is-struct='yes' visibility='default' filepath='external/libcxx/include/memory' line='2172' column='1' id='17e76a52'>
          <base-class access='private' layout-offset-in-bits='0' type-id='0de0b2fb'/>
          <member-type access='public'>
            <typedef-decl name='const_reference' type-id='6f047a5a' filepath='external/libcxx/include/memory' line='2175' column='1' id='63812cb0'/>
          </member-type>
          <member-type access='public'>
            <typedef-decl name='reference' type-id='b43a7bff' filepath='external/libcxx/include/memory' line='2174' column='1' id='3a142964'/>
          </member-type>
          <member-function access='public'>
            <function-decl name='__compressed_pair_elem' filepath='external/libcxx/include/memory' line='2179' column='1' visibility='default' binding='global' size-in-bits='32'>
              <parameter type-id='1e283db0' is-artificial='yes'/>
              <return type-id='48b5725f'/>
            </function-decl>
          </member-function>
        </class-decl>
        <class-decl name='__pointer_type&lt;android::IObbActionListener, std::__1::default_delete&lt;android::IObbActionListener&gt; &gt;' size-in-bits='8' is-struct='yes' visibility='default' filepath='external/libcxx/include/memory' line='1029' column='1' id='4ef6f3a4'>
          <member-type access='public'>
            <typedef-decl name='type' type-id='4d462c8a' filepath='external/libcxx/include/memory' line='1031' column='1' id='4d462c88'/>
          </member-type>
        </class-decl>
        <class-decl name='add_lvalue_reference&lt;android::IObbActionListener&gt;' size-in-bits='8' is-struct='yes' visibility='default' filepath='external/libcxx/include/type_traits' line='1127' column='1' id='12c60191'>
          <member-type access='public'>
            <typedef-decl name='type' type-id='4d462c89' filepath='external/libcxx/include/type_traits' line='1128' column='1' id='4d462c8b'/>
          </member-type>
        </class-decl>
        <class-decl name='default_delete&lt;android::IObbActionListener&gt;' size-in-bits='8' is-struct='yes' visibility='default' filepath='external/libcxx/include/memory' line='2320' column='1' id='0de0b2fb'>
          <member-function access='public'>
            <function-decl name='default_delete' filepath='external/libcxx/include/memory' line='2324' column='1' visibility='default' binding='global' size-in-bits='32'>
              <parameter type-id='b83a824b' is-artificial='yes'/>
              <return type-id='48b5725f'/>
            </function-decl>
          </member-function>
          <member-function access='public'>
            <function-decl name='operator()' mangled-name='_ZNKSt3__114default_deleteIN7android18IObbActionListenerEEclEPS2_' filepath='external/libcxx/include/memory' line='2334' column='1' visibility='default' binding='global' size-in-bits='32'>
              <parameter type-id='63046776' is-artificial='yes'/>
              <parameter type-id='c70198d4'/>
              <return type-id='48b5725f'/>
            </function-decl>
          </member-function>
        </class-decl>
        <class-decl name='basic_string&lt;char, std::__1::char_traits&lt;char&gt;, std::__1::allocator&lt;char&gt; &gt;' visibility='default' is-declaration-only='yes' id='27619c1d'/>
        <class-decl name='optional&lt;android::String16&gt;' visibility='default' is-declaration-only='yes' id='63080be8'/>
        <class-decl name='optional&lt;std::__1::basic_string&lt;char, std::__1::char_traits&lt;char&gt;, std::__1::allocator&lt;char&gt; &gt; &gt;' visibility='default' is-declaration-only='yes' id='dff69842'/>
        <class-decl name='optional&lt;std::__1::vector&lt;android::base::unique_fd_impl&lt;android::base::DefaultCloser&gt;, std::__1::allocator&lt;android::base::unique_fd_impl&lt;android::base::DefaultCloser&gt; &gt; &gt; &gt;' visibility='default' is-declaration-only='yes' id='b04db2dd'/>
        <class-decl name='optional&lt;std::__1::vector&lt;android::sp&lt;android::IBinder&gt;, std::__1::allocator&lt;android::sp&lt;android::IBinder&gt; &gt; &gt; &gt;' visibility='default' is-declaration-only='yes' id='7bb1d8e1'/>
        <class-decl name='optional&lt;std::__1::vector&lt;bool, std::__1::allocator&lt;bool&gt; &gt; &gt;' visibility='default' is-declaration-only='yes' id='606d2805'/>
        <class-decl name='optional&lt;std::__1::vector&lt;char16_t, std::__1::allocator&lt;char16_t&gt; &gt; &gt;' visibility='default' is-declaration-only='yes' id='359485b5'/>
        <class-decl name='optional&lt;std::__1::vector&lt;double, std::__1::allocator&lt;double&gt; &gt; &gt;' visibility='default' is-declaration-only='yes' id='2a92430d'/>
        <class-decl name='optional&lt;std::__1::vector&lt;float, std::__1::allocator&lt;float&gt; &gt; &gt;' visibility='default' is-declaration-only='yes' id='23f2d06f'/>
        <class-decl name='optional&lt;std::__1::vector&lt;int, std::__1::allocator&lt;int&gt; &gt; &gt;' visibility='default' is-declaration-only='yes' id='8c662fc5'/>
        <class-decl name='optional&lt;std::__1::vector&lt;long long, std::__1::allocator&lt;long long&gt; &gt; &gt;' visibility='default' is-declaration-only='yes' id='482d220b'/>
        <class-decl name='optional&lt;std::__1::vector&lt;signed char, std::__1::allocator&lt;signed char&gt; &gt; &gt;' visibility='default' is-declaration-only='yes' id='6ba1fceb'/>
        <class-decl name='optional&lt;std::__1::vector&lt;std::__1::optional&lt;android::String16&gt;, std::__1::allocator&lt;std::__1::optional&lt;android::String16&gt; &gt; &gt; &gt;' visibility='default' is-declaration-only='yes' id='3f8702cf'/>
        <class-decl name='optional&lt;std::__1::vector&lt;std::__1::optional&lt;std::__1::basic_string&lt;char, std::__1::char_traits&lt;char&gt;, std::__1::allocator&lt;char&gt; &gt; &gt;, std::__1::allocator&lt;std::__1::optional&lt;std::__1::basic_string&lt;char, std::__1::char_traits&lt;char&gt;, std::__1::allocator&lt;char&gt; &gt; &gt; &gt; &gt; &gt;' visibility='default' is-declaration-only='yes' id='560c92f7'/>
        <class-decl name='optional&lt;std::__1::vector&lt;unsigned char, std::__1::allocator&lt;unsigned char&gt; &gt; &gt;' visibility='default' is-declaration-only='yes' id='49eccd9d'/>
        <class-decl name='optional&lt;std::__1::vector&lt;unsigned long long, std::__1::allocator&lt;unsigned long long&gt; &gt; &gt;' visibility='default' is-declaration-only='yes' id='a3295715'/>
        <class-decl name='unique_ptr&lt;android::String16, std::__1::default_delete&lt;android::String16&gt; &gt;' visibility='default' is-declaration-only='yes' id='427e4b8a'/>
        <class-decl name='unique_ptr&lt;std::__1::basic_string&lt;char, std::__1::char_traits&lt;char&gt;, std::__1::allocator&lt;char&gt; &gt;, std::__1::default_delete&lt;std::__1::basic_string&lt;char, std::__1::char_traits&lt;char&gt;, std::__1::allocator&lt;char&gt; &gt; &gt; &gt;' size-in-bits='32' visibility='default' filepath='external/libcxx/include/memory' line='2401' column='1' id='ee11ffd6'>
          <member-type access='private'>
            <typedef-decl name='deleter_type' type-id='523e1257' filepath='external/libcxx/include/memory' line='2404' column='1' id='4547cffa'/>
          </member-type>
          <member-type access='private'>
            <typedef-decl name='pointer' type-id='4d462c8c' filepath='external/libcxx/include/memory' line='2405' column='1' id='0504b997'/>
          </member-type>
          <data-member access='private' layout-offset-in-bits='0'>
            <var-decl name='__ptr_' type-id='dc8bc990' visibility='default' filepath='external/libcxx/include/memory' line='2411' column='1'/>
          </data-member>
          <member-function access='public'>
            <function-decl name='unique_ptr' filepath='external/libcxx/include/memory' line='2494' column='1' visibility='default' binding='global' size-in-bits='32'>
              <parameter type-id='7d0d8c7c' is-artificial='yes'/>
              <parameter type-id='165e4caa'/>
              <return type-id='48b5725f'/>
            </function-decl>
          </member-function>
          <member-function access='public' destructor='yes'>
            <function-decl name='~unique_ptr' mangled-name='_ZNSt3__110unique_ptrINS_12basic_stringIcNS_11char_traitsIcEENS_9allocatorIcEEEENS_14default_deleteIS6_EEED2Ev' filepath='external/libcxx/include/memory' line='2606' column='1' visibility='default' binding='global' size-in-bits='32'>
              <parameter type-id='7d0d8c7c' is-artificial='yes'/>
              <return type-id='48b5725f'/>
            </function-decl>
          </member-function>
          <member-function access='public'>
            <function-decl name='unique_ptr&lt;true, void&gt;' mangled-name='_ZNSt3__110unique_ptrINS_12basic_stringIcNS_11char_traitsIcEENS_9allocatorIcEEEENS_14default_deleteIS6_EEEC2ILb1EvEEv' filepath='external/libcxx/include/memory' line='2461' column='1' visibility='default' binding='global' size-in-bits='32'>
              <parameter type-id='7d0d8c7c' is-artificial='yes'/>
              <return type-id='48b5725f'/>
            </function-decl>
          </member-function>
          <member-function access='public'>
            <function-decl name='reset' mangled-name='_ZNSt3__110unique_ptrINS_12basic_stringIcNS_11char_traitsIcEENS_9allocatorIcEEEENS_14default_deleteIS6_EEE5resetEPS6_' filepath='external/libcxx/include/memory' line='2648' column='1' visibility='default' binding='global' size-in-bits='32'>
              <parameter type-id='7d0d8c7c' is-artificial='yes'/>
              <parameter type-id='0504b997'/>
              <return type-id='48b5725f'/>
            </function-decl>
          </member-function>
          <member-function access='public'>
            <function-decl name='operator bool' mangled-name='_ZNKSt3__110unique_ptrINS_12basic_stringIcNS_11char_traitsIcEENS_9allocatorIcEEEENS_14default_deleteIS6_EEEcvbEv' filepath='external/libcxx/include/memory' line='2636' column='1' visibility='default' binding='global' size-in-bits='32'>
              <parameter type-id='0fdc8ffb' is-artificial='yes'/>
              <return type-id='c894953d'/>
            </function-decl>
          </member-function>
        </class-decl>
        <class-decl name='unique_ptr&lt;std::__1::vector&lt;android::base::unique_fd_impl&lt;android::base::DefaultCloser&gt;, std::__1::allocator&lt;android::base::unique_fd_impl&lt;android::base::DefaultCloser&gt; &gt; &gt;, std::__1::default_delete&lt;std::__1::vector&lt;android::base::unique_fd_impl&lt;android::base::DefaultCloser&gt;, std::__1::allocator&lt;android::base::unique_fd_impl&lt;android::base::DefaultCloser&gt; &gt; &gt; &gt; &gt;' visibility='default' is-declaration-only='yes' id='82a684ba'/>
        <class-decl name='unique_ptr&lt;std::__1::vector&lt;android::sp&lt;android::IBinder&gt;, std::__1::allocator&lt;android::sp&lt;android::IBinder&gt; &gt; &gt;, std::__1::default_delete&lt;std::__1::vector&lt;android::sp&lt;android::IBinder&gt;, std::__1::allocator&lt;android::sp&lt;android::IBinder&gt; &gt; &gt; &gt; &gt;' visibility='default' is-declaration-only='yes' id='b54229ce'/>
        <class-decl name='unique_ptr&lt;std::__1::vector&lt;bool, std::__1::allocator&lt;bool&gt; &gt;, std::__1::default_delete&lt;std::__1::vector&lt;bool, std::__1::allocator&lt;bool&gt; &gt; &gt; &gt;' visibility='default' is-declaration-only='yes' id='ff70dc94'/>
        <class-decl name='unique_ptr&lt;std::__1::vector&lt;char16_t, std::__1::allocator&lt;char16_t&gt; &gt;, std::__1::default_delete&lt;std::__1::vector&lt;char16_t, std::__1::allocator&lt;char16_t&gt; &gt; &gt; &gt;' visibility='default' is-declaration-only='yes' id='0e839744'/>
        <class-decl name='unique_ptr&lt;std::__1::vector&lt;double, std::__1::allocator&lt;double&gt; &gt;, std::__1::default_delete&lt;std::__1::vector&lt;double, std::__1::allocator&lt;double&gt; &gt; &gt; &gt;' visibility='default' is-declaration-only='yes' id='cdd69b5c'/>
        <class-decl name='unique_ptr&lt;std::__1::vector&lt;float, std::__1::allocator&lt;float&gt; &gt;, std::__1::default_delete&lt;std::__1::vector&lt;float, std::__1::allocator&lt;float&gt; &gt; &gt; &gt;' visibility='default' is-declaration-only='yes' id='b9fa8f40'/>
        <class-decl name='unique_ptr&lt;std::__1::vector&lt;int, std::__1::allocator&lt;int&gt; &gt;, std::__1::default_delete&lt;std::__1::vector&lt;int, std::__1::allocator&lt;int&gt; &gt; &gt; &gt;' visibility='default' is-declaration-only='yes' id='5417a89c'/>
        <class-decl name='unique_ptr&lt;std::__1::vector&lt;long long, std::__1::allocator&lt;long long&gt; &gt;, std::__1::default_delete&lt;std::__1::vector&lt;long long, std::__1::allocator&lt;long long&gt; &gt; &gt; &gt;' visibility='default' is-declaration-only='yes' id='2f680da0'/>
        <class-decl name='unique_ptr&lt;std::__1::vector&lt;signed char, std::__1::allocator&lt;signed char&gt; &gt;, std::__1::default_delete&lt;std::__1::vector&lt;signed char, std::__1::allocator&lt;signed char&gt; &gt; &gt; &gt;' visibility='default' is-declaration-only='yes' id='9360eadc'/>
        <class-decl name='unique_ptr&lt;std::__1::vector&lt;std::__1::unique_ptr&lt;android::String16, std::__1::default_delete&lt;android::String16&gt; &gt;, std::__1::allocator&lt;std::__1::unique_ptr&lt;android::String16, std::__1::default_delete&lt;android::String16&gt; &gt; &gt; &gt;, std::__1::default_delete&lt;std::__1::vector&lt;std::__1::unique_ptr&lt;android::String16, std::__1::default_delete&lt;android::String16&gt; &gt;, std::__1::allocator&lt;std::__1::unique_ptr&lt;android::String16, std::__1::default_delete&lt;android::String16&gt; &gt; &gt; &gt; &gt; &gt;' visibility='default' is-declaration-only='yes' id='a3eca172'/>
        <class-decl name='unique_ptr&lt;std::__1::vector&lt;std::__1::unique_ptr&lt;std::__1::basic_string&lt;char, std::__1::char_traits&lt;char&gt;, std::__1::allocator&lt;char&gt; &gt;, std::__1::default_delete&lt;std::__1::basic_string&lt;char, std::__1::char_traits&lt;char&gt;, std::__1::allocator&lt;char&gt; &gt; &gt; &gt;, std::__1::allocator&lt;std::__1::unique_ptr&lt;std::__1::basic_string&lt;char, std::__1::char_traits&lt;char&gt;, std::__1::allocator&lt;char&gt; &gt;, std::__1::default_delete&lt;std::__1::basic_string&lt;char, std::__1::char_traits&lt;char&gt;, std::__1::allocator&lt;char&gt; &gt; &gt; &gt; &gt; &gt;, std::__1::default_delete&lt;std::__1::vector&lt;std::__1::unique_ptr&lt;std::__1::basic_string&lt;char, std::__1::char_traits&lt;char&gt;, std::__1::allocator&lt;char&gt; &gt;, std::__1::default_delete&lt;std::__1::basic_string&lt;char, std::__1::char_traits&lt;char&gt;, std::__1::allocator&lt;char&gt; &gt; &gt; &gt;, std::__1::allocator&lt;std::__1::unique_ptr&lt;std::__1::basic_string&lt;char, std::__1::char_traits&lt;char&gt;, std::__1::allocator&lt;char&gt; &gt;, std::__1::default_delete&lt;std::__1::basic_string&lt;char, std::__1::char_traits&lt;char&gt;, std::__1::allocator&lt;char&gt; &gt; &gt; &gt; &gt; &gt; &gt; &gt;' visibility='default' is-declaration-only='yes' id='444756ca'/>
        <class-decl name='unique_ptr&lt;std::__1::vector&lt;unsigned char, std::__1::allocator&lt;unsigned char&gt; &gt;, std::__1::default_delete&lt;std::__1::vector&lt;unsigned char, std::__1::allocator&lt;unsigned char&gt; &gt; &gt; &gt;' visibility='default' is-declaration-only='yes' id='9c9ad7b0'/>
        <class-decl name='unique_ptr&lt;std::__1::vector&lt;unsigned long long, std::__1::allocator&lt;unsigned long long&gt; &gt;, std::__1::default_delete&lt;std::__1::vector&lt;unsigned long long, std::__1::allocator&lt;unsigned long long&gt; &gt; &gt; &gt;' visibility='default' is-declaration-only='yes' id='cab02d1c'/>
        <class-decl name='vector&lt;android::String16, std::__1::allocator&lt;android::String16&gt; &gt;' visibility='default' is-declaration-only='yes' id='d5fd3ca7'/>
        <class-decl name='vector&lt;android::base::unique_fd_impl&lt;android::base::DefaultCloser&gt;, std::__1::allocator&lt;android::base::unique_fd_impl&lt;android::base::DefaultCloser&gt; &gt; &gt;' visibility='default' is-declaration-only='yes' id='4de8320f'/>
        <class-decl name='vector&lt;android::sp&lt;android::IBinder&gt;, std::__1::allocator&lt;android::sp&lt;android::IBinder&gt; &gt; &gt;' visibility='default' is-declaration-only='yes' id='45e7b03b'/>
        <class-decl name='vector&lt;bool, std::__1::allocator&lt;bool&gt; &gt;' visibility='default' is-declaration-only='yes' id='aa688d0f'/>
        <class-decl name='vector&lt;char16_t, std::__1::allocator&lt;char16_t&gt; &gt;' visibility='default' is-declaration-only='yes' id='8e24268f'/>
        <class-decl name='vector&lt;double, std::__1::allocator&lt;double&gt; &gt;' visibility='default' is-declaration-only='yes' id='9f0bbb87'/>
        <class-decl name='vector&lt;float, std::__1::allocator&lt;float&gt; &gt;' visibility='default' is-declaration-only='yes' id='255041c5'/>
        <class-decl name='vector&lt;int, std::__1::allocator&lt;int&gt; &gt;' size-in-bits='96' visibility='default' filepath='external/libcxx/include/vector' line='470' column='1' id='21156a1f'>
          <base-class access='private' layout-offset-in-bits='0' type-id='ccc1a701'/>
          <member-type access='private'>
            <typedef-decl name='const_pointer' type-id='b57f8f12' filepath='external/libcxx/include/vector' line='486' column='1' id='b57f8f11'/>
          </member-type>
          <member-type access='private'>
            <typedef-decl name='const_reference' type-id='63812cb2' filepath='external/libcxx/include/vector' line='482' column='1' id='63812cb1'/>
          </member-type>
          <member-type access='private'>
            <typedef-decl name='pointer' type-id='0504b999' filepath='external/libcxx/include/vector' line='485' column='1' id='0504b998'/>
          </member-type>
          <member-type access='private'>
            <typedef-decl name='reference' type-id='3a142966' filepath='external/libcxx/include/vector' line='481' column='1' id='3a142965'/>
          </member-type>
          <member-type access='private'>
            <typedef-decl name='const_iterator' type-id='27a9a4b2' filepath='external/libcxx/include/vector' line='488' column='1' id='9d183c7a'/>
          </member-type>
          <member-type access='private'>
            <typedef-decl name='const_reverse_iterator' type-id='d9249d9b' filepath='external/libcxx/include/vector' line='490' column='1' id='9a1d8b11'/>
          </member-type>
          <member-type access='private'>
            <typedef-decl name='iterator' type-id='a55d0f63' filepath='external/libcxx/include/vector' line='487' column='1' id='80427be6'/>
          </member-type>
          <member-type access='private'>
            <typedef-decl name='reverse_iterator' type-id='f6e567a6' filepath='external/libcxx/include/vector' line='489' column='1' id='233754d5'/>
          </member-type>
          <member-function access='public'>
            <function-decl name='vector' filepath='external/libcxx/include/vector' line='496' column='1' visibility='default' binding='global' size-in-bits='32'>
              <parameter type-id='0a8caa67' is-artificial='yes'/>
              <return type-id='48b5725f'/>
            </function-decl>
          </member-function>
          <member-function access='public'>
            <function-decl name='vector' filepath='external/libcxx/include/vector' line='502' column='1' visibility='default' binding='global' size-in-bits='32'>
              <parameter type-id='0a8caa67' is-artificial='yes'/>
              <parameter type-id='049802b4'/>
              <return type-id='48b5725f'/>
            </function-decl>
          </member-function>
          <member-function access='public'>
            <function-decl name='vector' filepath='external/libcxx/include/vector' line='514' column='1' visibility='default' binding='global' size-in-bits='32'>
              <parameter type-id='0a8caa67' is-artificial='yes'/>
              <parameter type-id='143a6b6e'/>
              <return type-id='48b5725f'/>
            </function-decl>
          </member-function>
          <member-function access='public'>
            <function-decl name='vector' filepath='external/libcxx/include/vector' line='516' column='1' visibility='default' binding='global' size-in-bits='32'>
              <parameter type-id='0a8caa67' is-artificial='yes'/>
              <parameter type-id='143a6b6e'/>
              <parameter type-id='049802b4'/>
              <return type-id='48b5725f'/>
            </function-decl>
          </member-function>
          <member-function access='public'>
            <function-decl name='vector' filepath='external/libcxx/include/vector' line='518' column='1' visibility='default' binding='global' size-in-bits='32'>
              <parameter type-id='0a8caa67' is-artificial='yes'/>
              <parameter type-id='143a6b6e'/>
              <parameter type-id='a2c458c8'/>
              <return type-id='48b5725f'/>
            </function-decl>
          </member-function>
          <member-function access='public'>
            <function-decl name='vector' filepath='external/libcxx/include/vector' line='519' column='1' visibility='default' binding='global' size-in-bits='32'>
              <parameter type-id='0a8caa67' is-artificial='yes'/>
              <parameter type-id='143a6b6e'/>
              <parameter type-id='a2c458c8'/>
              <parameter type-id='049802b4'/>
              <return type-id='48b5725f'/>
            </function-decl>
          </member-function>
          <member-function access='public' destructor='yes'>
            <function-decl name='~vector' filepath='external/libcxx/include/vector' line='550' column='1' visibility='default' binding='global' size-in-bits='32'>
              <parameter type-id='0a8caa67' is-artificial='yes'/>
              <return type-id='48b5725f'/>
            </function-decl>
          </member-function>
          <member-function access='public'>
            <function-decl name='vector' filepath='external/libcxx/include/vector' line='558' column='1' visibility='default' binding='global' size-in-bits='32'>
              <parameter type-id='0a8caa67' is-artificial='yes'/>
              <parameter type-id='0cc525a4'/>
              <return type-id='48b5725f'/>
            </function-decl>
          </member-function>
          <member-function access='public'>
            <function-decl name='vector' filepath='external/libcxx/include/vector' line='559' column='1' visibility='default' binding='global' size-in-bits='32'>
              <parameter type-id='0a8caa67' is-artificial='yes'/>
              <parameter type-id='0cc525a4'/>
              <parameter type-id='049802b4'/>
              <return type-id='48b5725f'/>
            </function-decl>
          </member-function>
          <member-function access='public'>
            <function-decl name='vector' filepath='external/libcxx/include/vector' line='565' column='1' visibility='default' binding='global' size-in-bits='32'>
              <parameter type-id='0a8caa67' is-artificial='yes'/>
              <parameter type-id='1b16c61c'/>
              <return type-id='48b5725f'/>
            </function-decl>
          </member-function>
          <member-function access='public'>
            <function-decl name='vector' filepath='external/libcxx/include/vector' line='568' column='1' visibility='default' binding='global' size-in-bits='32'>
              <parameter type-id='0a8caa67' is-artificial='yes'/>
              <parameter type-id='1b16c61c'/>
              <parameter type-id='049802b4'/>
              <return type-id='48b5725f'/>
            </function-decl>
          </member-function>
          <member-function access='public'>
            <function-decl name='vector' filepath='external/libcxx/include/vector' line='571' column='1' visibility='default' binding='global' size-in-bits='32'>
              <parameter type-id='0a8caa67' is-artificial='yes'/>
              <parameter type-id='5c52b8bf'/>
              <return type-id='48b5725f'/>
            </function-decl>
          </member-function>
          <member-function access='public'>
            <function-decl name='vector' filepath='external/libcxx/include/vector' line='579' column='1' visibility='default' binding='global' size-in-bits='32'>
              <parameter type-id='0a8caa67' is-artificial='yes'/>
              <parameter type-id='5c52b8bf'/>
              <parameter type-id='049802b4'/>
              <return type-id='48b5725f'/>
            </function-decl>
          </member-function>
        </class-decl>
        <class-decl name='vector&lt;long long, std::__1::allocator&lt;long long&gt; &gt;' size-in-bits='96' visibility='default' filepath='external/libcxx/include/vector' line='470' column='1' id='1e253049'>
          <base-class access='private' layout-offset-in-bits='0' type-id='721e3983'/>
          <member-type access='private'>
            <typedef-decl name='const_pointer' type-id='b57f8f14' filepath='external/libcxx/include/vector' line='486' column='1' id='b57f8f13'/>
          </member-type>
          <member-type access='private'>
            <typedef-decl name='const_reference' type-id='63812cb4' filepath='external/libcxx/include/vector' line='482' column='1' id='63812cb3'/>
          </member-type>
          <member-type access='private'>
            <typedef-decl name='pointer' type-id='0504b99b' filepath='external/libcxx/include/vector' line='485' column='1' id='0504b99a'/>
          </member-type>
          <member-type access='private'>
            <typedef-decl name='reference' type-id='3a142968' filepath='external/libcxx/include/vector' line='481' column='1' id='3a142967'/>
          </member-type>
          <member-type access='private'>
            <typedef-decl name='const_iterator' type-id='2d3a5701' filepath='external/libcxx/include/vector' line='488' column='1' id='9d183c7b'/>
          </member-type>
          <member-type access='private'>
            <typedef-decl name='const_reverse_iterator' type-id='0a83870c' filepath='external/libcxx/include/vector' line='490' column='1' id='9a1d8b12'/>
          </member-type>
          <member-type access='private'>
            <typedef-decl name='iterator' type-id='efded478' filepath='external/libcxx/include/vector' line='487' column='1' id='80427be7'/>
          </member-type>
          <member-type access='private'>
            <typedef-decl name='reverse_iterator' type-id='bab30871' filepath='external/libcxx/include/vector' line='489' column='1' id='233754d6'/>
          </member-type>
          <member-function access='public'>
            <function-decl name='vector' filepath='external/libcxx/include/vector' line='496' column='1' visibility='default' binding='global' size-in-bits='32'>
              <parameter type-id='c96d0971' is-artificial='yes'/>
              <return type-id='48b5725f'/>
            </function-decl>
          </member-function>
          <member-function access='public'>
            <function-decl name='vector' filepath='external/libcxx/include/vector' line='502' column='1' visibility='default' binding='global' size-in-bits='32'>
              <parameter type-id='c96d0971' is-artificial='yes'/>
              <parameter type-id='049802b5'/>
              <return type-id='48b5725f'/>
            </function-decl>
          </member-function>
          <member-function access='public'>
            <function-decl name='vector' filepath='external/libcxx/include/vector' line='514' column='1' visibility='default' binding='global' size-in-bits='32'>
              <parameter type-id='c96d0971' is-artificial='yes'/>
              <parameter type-id='143a6b6e'/>
              <return type-id='48b5725f'/>
            </function-decl>
          </member-function>
          <member-function access='public'>
            <function-decl name='vector' filepath='external/libcxx/include/vector' line='516' column='1' visibility='default' binding='global' size-in-bits='32'>
              <parameter type-id='c96d0971' is-artificial='yes'/>
              <parameter type-id='143a6b6e'/>
              <parameter type-id='049802b5'/>
              <return type-id='48b5725f'/>
            </function-decl>
          </member-function>
          <member-function access='public'>
            <function-decl name='vector' filepath='external/libcxx/include/vector' line='518' column='1' visibility='default' binding='global' size-in-bits='32'>
              <parameter type-id='c96d0971' is-artificial='yes'/>
              <parameter type-id='143a6b6e'/>
              <parameter type-id='a2c458c9'/>
              <return type-id='48b5725f'/>
            </function-decl>
          </member-function>
          <member-function access='public'>
            <function-decl name='vector' filepath='external/libcxx/include/vector' line='519' column='1' visibility='default' binding='global' size-in-bits='32'>
              <parameter type-id='c96d0971' is-artificial='yes'/>
              <parameter type-id='143a6b6e'/>
              <parameter type-id='a2c458c9'/>
              <parameter type-id='049802b5'/>
              <return type-id='48b5725f'/>
            </function-decl>
          </member-function>
          <member-function access='public' destructor='yes'>
            <function-decl name='~vector' filepath='external/libcxx/include/vector' line='550' column='1' visibility='default' binding='global' size-in-bits='32'>
              <parameter type-id='c96d0971' is-artificial='yes'/>
              <return type-id='48b5725f'/>
            </function-decl>
          </member-function>
          <member-function access='public'>
            <function-decl name='vector' filepath='external/libcxx/include/vector' line='558' column='1' visibility='default' binding='global' size-in-bits='32'>
              <parameter type-id='c96d0971' is-artificial='yes'/>
              <parameter type-id='7707f03e'/>
              <return type-id='48b5725f'/>
            </function-decl>
          </member-function>
          <member-function access='public'>
            <function-decl name='vector' filepath='external/libcxx/include/vector' line='559' column='1' visibility='default' binding='global' size-in-bits='32'>
              <parameter type-id='c96d0971' is-artificial='yes'/>
              <parameter type-id='7707f03e'/>
              <parameter type-id='049802b5'/>
              <return type-id='48b5725f'/>
            </function-decl>
          </member-function>
          <member-function access='public'>
            <function-decl name='vector' filepath='external/libcxx/include/vector' line='565' column='1' visibility='default' binding='global' size-in-bits='32'>
              <parameter type-id='c96d0971' is-artificial='yes'/>
              <parameter type-id='b5ce4ba7'/>
              <return type-id='48b5725f'/>
            </function-decl>
          </member-function>
          <member-function access='public'>
            <function-decl name='vector' filepath='external/libcxx/include/vector' line='568' column='1' visibility='default' binding='global' size-in-bits='32'>
              <parameter type-id='c96d0971' is-artificial='yes'/>
              <parameter type-id='b5ce4ba7'/>
              <parameter type-id='049802b5'/>
              <return type-id='48b5725f'/>
            </function-decl>
          </member-function>
          <member-function access='public'>
            <function-decl name='vector' filepath='external/libcxx/include/vector' line='571' column='1' visibility='default' binding='global' size-in-bits='32'>
              <parameter type-id='c96d0971' is-artificial='yes'/>
              <parameter type-id='cd9bbdb9'/>
              <return type-id='48b5725f'/>
            </function-decl>
          </member-function>
          <member-function access='public'>
            <function-decl name='vector' filepath='external/libcxx/include/vector' line='579' column='1' visibility='default' binding='global' size-in-bits='32'>
              <parameter type-id='c96d0971' is-artificial='yes'/>
              <parameter type-id='cd9bbdb9'/>
              <parameter type-id='049802b5'/>
              <return type-id='48b5725f'/>
            </function-decl>
          </member-function>
        </class-decl>
        <class-decl name='vector&lt;signed char, std::__1::allocator&lt;signed char&gt; &gt;' visibility='default' is-declaration-only='yes' id='3c4ae4e9'/>
        <class-decl name='vector&lt;std::__1::basic_string&lt;char, std::__1::char_traits&lt;char&gt;, std::__1::allocator&lt;char&gt; &gt;, std::__1::allocator&lt;std::__1::basic_string&lt;char, std::__1::char_traits&lt;char&gt;, std::__1::allocator&lt;char&gt; &gt; &gt; &gt;' visibility='default' is-declaration-only='yes' id='46767cd5'/>
        <class-decl name='vector&lt;unsigned char, std::__1::allocator&lt;unsigned char&gt; &gt;' size-in-bits='96' visibility='default' filepath='external/libcxx/include/vector' line='470' column='1' id='b05cdcb7'>
          <base-class access='private' layout-offset-in-bits='0' type-id='d5b8afe1'/>
          <member-type access='private'>
            <typedef-decl name='const_pointer' type-id='b57f8f16' filepath='external/libcxx/include/vector' line='486' column='1' id='b57f8f15'/>
          </member-type>
          <member-type access='private'>
            <typedef-decl name='const_reference' type-id='63812cb6' filepath='external/libcxx/include/vector' line='482' column='1' id='63812cb5'/>
          </member-type>
          <member-type access='private'>
            <typedef-decl name='pointer' type-id='0504b99d' filepath='external/libcxx/include/vector' line='485' column='1' id='0504b99c'/>
          </member-type>
          <member-type access='private'>
            <typedef-decl name='reference' type-id='3a14296a' filepath='external/libcxx/include/vector' line='481' column='1' id='3a142969'/>
          </member-type>
          <member-type access='private'>
            <typedef-decl name='const_iterator' type-id='5ec92c0a' filepath='external/libcxx/include/vector' line='488' column='1' id='9d183c7c'/>
          </member-type>
          <member-type access='private'>
            <typedef-decl name='const_iterator' type-id='5ec92c0b' filepath='external/libcxx/include/vector' line='488' column='1' id='9d183c7d'/>
          </member-type>
          <member-type access='private'>
            <typedef-decl name='const_reverse_iterator' type-id='5f2bceeb' filepath='external/libcxx/include/vector' line='490' column='1' id='9a1d8b13'/>
          </member-type>
          <member-type access='private'>
            <typedef-decl name='const_reverse_iterator' type-id='5f2bceec' filepath='external/libcxx/include/vector' line='490' column='1' id='9a1d8b14'/>
          </member-type>
          <member-type access='private'>
            <typedef-decl name='iterator' type-id='68fdf037' filepath='external/libcxx/include/vector' line='487' column='1' id='80427be8'/>
          </member-type>
          <member-type access='private'>
            <typedef-decl name='iterator' type-id='68fdf038' filepath='external/libcxx/include/vector' line='487' column='1' id='80427be9'/>
          </member-type>
          <member-type access='private'>
            <typedef-decl name='reverse_iterator' type-id='b0b63972' filepath='external/libcxx/include/vector' line='489' column='1' id='233754d7'/>
          </member-type>
          <member-type access='private'>
            <typedef-decl name='reverse_iterator' type-id='b0b63973' filepath='external/libcxx/include/vector' line='489' column='1' id='233754d8'/>
          </member-type>
          <member-function access='public'>
            <function-decl name='vector' filepath='external/libcxx/include/vector' line='496' column='1' visibility='default' binding='global' size-in-bits='32'>
              <parameter type-id='94829ddf' is-artificial='yes'/>
              <return type-id='48b5725f'/>
            </function-decl>
          </member-function>
          <member-function access='public'>
            <function-decl name='vector' filepath='external/libcxx/include/vector' line='502' column='1' visibility='default' binding='global' size-in-bits='32'>
              <parameter type-id='94829ddf' is-artificial='yes'/>
              <parameter type-id='049802b6'/>
              <return type-id='48b5725f'/>
            </function-decl>
          </member-function>
          <member-function access='public'>
            <function-decl name='vector' filepath='external/libcxx/include/vector' line='514' column='1' visibility='default' binding='global' size-in-bits='32'>
              <parameter type-id='94829ddf' is-artificial='yes'/>
              <parameter type-id='143a6b6e'/>
              <return type-id='48b5725f'/>
            </function-decl>
          </member-function>
          <member-function access='public'>
            <function-decl name='vector' filepath='external/libcxx/include/vector' line='516' column='1' visibility='default' binding='global' size-in-bits='32'>
              <parameter type-id='94829ddf' is-artificial='yes'/>
              <parameter type-id='143a6b6e'/>
              <parameter type-id='049802b6'/>
              <return type-id='48b5725f'/>
            </function-decl>
          </member-function>
          <member-function access='public'>
            <function-decl name='vector' filepath='external/libcxx/include/vector' line='518' column='1' visibility='default' binding='global' size-in-bits='32'>
              <parameter type-id='94829ddf' is-artificial='yes'/>
              <parameter type-id='143a6b6e'/>
              <parameter type-id='a2c458ca'/>
              <return type-id='48b5725f'/>
            </function-decl>
          </member-function>
          <member-function access='public'>
            <function-decl name='vector' filepath='external/libcxx/include/vector' line='519' column='1' visibility='default' binding='global' size-in-bits='32'>
              <parameter type-id='94829ddf' is-artificial='yes'/>
              <parameter type-id='143a6b6e'/>
              <parameter type-id='a2c458ca'/>
              <parameter type-id='049802b6'/>
              <return type-id='48b5725f'/>
            </function-decl>
          </member-function>
          <member-function access='public' destructor='yes'>
            <function-decl name='~vector' mangled-name='_ZNSt3__16vectorIhNS_9allocatorIhEEED2Ev' filepath='external/libcxx/include/vector' line='550' column='1' visibility='default' binding='global' size-in-bits='32'>
              <parameter type-id='94829ddf' is-artificial='yes'/>
              <return type-id='48b5725f'/>
            </function-decl>
          </member-function>
          <member-function access='public'>
            <function-decl name='vector' filepath='external/libcxx/include/vector' line='558' column='1' visibility='default' binding='global' size-in-bits='32'>
              <parameter type-id='94829ddf' is-artificial='yes'/>
              <parameter type-id='bf3fae58'/>
              <return type-id='48b5725f'/>
            </function-decl>
          </member-function>
          <member-function access='public'>
            <function-decl name='vector' filepath='external/libcxx/include/vector' line='559' column='1' visibility='default' binding='global' size-in-bits='32'>
              <parameter type-id='94829ddf' is-artificial='yes'/>
              <parameter type-id='bf3fae58'/>
              <parameter type-id='049802b6'/>
              <return type-id='48b5725f'/>
            </function-decl>
          </member-function>
          <member-function access='public'>
            <function-decl name='vector' filepath='external/libcxx/include/vector' line='565' column='1' visibility='default' binding='global' size-in-bits='32'>
              <parameter type-id='94829ddf' is-artificial='yes'/>
              <parameter type-id='8723cba4'/>
              <return type-id='48b5725f'/>
            </function-decl>
          </member-function>
          <member-function access='public'>
            <function-decl name='vector' filepath='external/libcxx/include/vector' line='568' column='1' visibility='default' binding='global' size-in-bits='32'>
              <parameter type-id='94829ddf' is-artificial='yes'/>
              <parameter type-id='8723cba4'/>
              <parameter type-id='049802b6'/>
              <return type-id='48b5725f'/>
            </function-decl>
          </member-function>
          <member-function access='public'>
            <function-decl name='vector' filepath='external/libcxx/include/vector' line='571' column='1' visibility='default' binding='global' size-in-bits='32'>
              <parameter type-id='94829ddf' is-artificial='yes'/>
              <parameter type-id='22a84077'/>
              <return type-id='48b5725f'/>
            </function-decl>
          </member-function>
          <member-function access='public'>
            <function-decl name='vector' filepath='external/libcxx/include/vector' line='579' column='1' visibility='default' binding='global' size-in-bits='32'>
              <parameter type-id='94829ddf' is-artificial='yes'/>
              <parameter type-id='22a84077'/>
              <parameter type-id='049802b6'/>
              <return type-id='48b5725f'/>
            </function-decl>
          </member-function>
          <member-function access='public'>
            <function-decl name='vector' filepath='external/libcxx/include/vector' line='496' column='1' visibility='default' binding='global' size-in-bits='32'>
              <parameter type-id='94829ddf' is-artificial='yes'/>
              <return type-id='48b5725f'/>
            </function-decl>
          </member-function>
          <member-function access='public'>
            <function-decl name='vector' filepath='external/libcxx/include/vector' line='502' column='1' visibility='default' binding='global' size-in-bits='32'>
              <parameter type-id='94829ddf' is-artificial='yes'/>
              <parameter type-id='049802b6'/>
              <return type-id='48b5725f'/>
            </function-decl>
          </member-function>
          <member-function access='public'>
            <function-decl name='vector' filepath='external/libcxx/include/vector' line='514' column='1' visibility='default' binding='global' size-in-bits='32'>
              <parameter type-id='94829ddf' is-artificial='yes'/>
              <parameter type-id='143a6b6e'/>
              <return type-id='48b5725f'/>
            </function-decl>
          </member-function>
          <member-function access='public'>
            <function-decl name='vector' filepath='external/libcxx/include/vector' line='516' column='1' visibility='default' binding='global' size-in-bits='32'>
              <parameter type-id='94829ddf' is-artificial='yes'/>
              <parameter type-id='143a6b6e'/>
              <parameter type-id='049802b6'/>
              <return type-id='48b5725f'/>
            </function-decl>
          </member-function>
          <member-function access='public'>
            <function-decl name='vector' filepath='external/libcxx/include/vector' line='518' column='1' visibility='default' binding='global' size-in-bits='32'>
              <parameter type-id='94829ddf' is-artificial='yes'/>
              <parameter type-id='143a6b6e'/>
              <parameter type-id='a2c458ca'/>
              <return type-id='48b5725f'/>
            </function-decl>
          </member-function>
          <member-function access='public'>
            <function-decl name='vector' filepath='external/libcxx/include/vector' line='519' column='1' visibility='default' binding='global' size-in-bits='32'>
              <parameter type-id='94829ddf' is-artificial='yes'/>
              <parameter type-id='143a6b6e'/>
              <parameter type-id='a2c458ca'/>
              <parameter type-id='049802b6'/>
              <return type-id='48b5725f'/>
            </function-decl>
          </member-function>
          <member-function access='public' destructor='yes'>
            <function-decl name='~vector' filepath='external/libcxx/include/vector' line='550' column='1' visibility='default' binding='global' size-in-bits='32'>
              <parameter type-id='94829ddf' is-artificial='yes'/>
              <return type-id='48b5725f'/>
            </function-decl>
          </member-function>
          <member-function access='public'>
            <function-decl name='vector' filepath='external/libcxx/include/vector' line='558' column='1' visibility='default' binding='global' size-in-bits='32'>
              <parameter type-id='94829ddf' is-artificial='yes'/>
              <parameter type-id='bf3fae58'/>
              <return type-id='48b5725f'/>
            </function-decl>
          </member-function>
          <member-function access='public'>
            <function-decl name='vector' filepath='external/libcxx/include/vector' line='559' column='1' visibility='default' binding='global' size-in-bits='32'>
              <parameter type-id='94829ddf' is-artificial='yes'/>
              <parameter type-id='bf3fae58'/>
              <parameter type-id='049802b6'/>
              <return type-id='48b5725f'/>
            </function-decl>
          </member-function>
          <member-function access='public'>
            <function-decl name='vector' filepath='external/libcxx/include/vector' line='565' column='1' visibility='default' binding='global' size-in-bits='32'>
              <parameter type-id='94829ddf' is-artificial='yes'/>
              <parameter type-id='8723cba5'/>
              <return type-id='48b5725f'/>
            </function-decl>
          </member-function>
          <member-function access='public'>
            <function-decl name='vector' filepath='external/libcxx/include/vector' line='568' column='1' visibility='default' binding='global' size-in-bits='32'>
              <parameter type-id='94829ddf' is-artificial='yes'/>
              <parameter type-id='8723cba5'/>
              <parameter type-id='049802b6'/>
              <return type-id='48b5725f'/>
            </function-decl>
          </member-function>
          <member-function access='public'>
            <function-decl name='vector' filepath='external/libcxx/include/vector' line='571' column='1' visibility='default' binding='global' size-in-bits='32'>
              <parameter type-id='94829ddf' is-artificial='yes'/>
              <parameter type-id='22a84077'/>
              <return type-id='48b5725f'/>
            </function-decl>
          </member-function>
          <member-function access='public'>
            <function-decl name='vector' filepath='external/libcxx/include/vector' line='579' column='1' visibility='default' binding='global' size-in-bits='32'>
              <parameter type-id='94829ddf' is-artificial='yes'/>
              <parameter type-id='22a84077'/>
              <parameter type-id='049802b6'/>
              <return type-id='48b5725f'/>
            </function-decl>
          </member-function>
        </class-decl>
        <class-decl name='vector&lt;unsigned long long, std::__1::allocator&lt;unsigned long long&gt; &gt;' size-in-bits='96' visibility='default' filepath='external/libcxx/include/vector' line='470' column='1' id='2d13208f'>
          <base-class access='private' layout-offset-in-bits='0' type-id='fd1a2199'/>
          <member-type access='private'>
            <typedef-decl name='const_pointer' type-id='b57f8f18' filepath='external/libcxx/include/vector' line='486' column='1' id='b57f8f17'/>
          </member-type>
          <member-type access='private'>
            <typedef-decl name='const_reference' type-id='63812cb8' filepath='external/libcxx/include/vector' line='482' column='1' id='63812cb7'/>
          </member-type>
          <member-type access='private'>
            <typedef-decl name='pointer' type-id='0504b99f' filepath='external/libcxx/include/vector' line='485' column='1' id='0504b99e'/>
          </member-type>
          <member-type access='private'>
            <typedef-decl name='reference' type-id='3a14296c' filepath='external/libcxx/include/vector' line='481' column='1' id='3a14296b'/>
          </member-type>
          <member-type access='private'>
            <typedef-decl name='const_iterator' type-id='82d2f516' filepath='external/libcxx/include/vector' line='488' column='1' id='9d183c7e'/>
          </member-type>
          <member-type access='private'>
            <typedef-decl name='const_reverse_iterator' type-id='8ae647e9' filepath='external/libcxx/include/vector' line='490' column='1' id='9a1d8b15'/>
          </member-type>
          <member-type access='private'>
            <typedef-decl name='iterator' type-id='998e238d' filepath='external/libcxx/include/vector' line='487' column='1' id='80427bea'/>
          </member-type>
          <member-type access='private'>
            <typedef-decl name='reverse_iterator' type-id='83076282' filepath='external/libcxx/include/vector' line='489' column='1' id='233754d9'/>
          </member-type>
          <member-function access='public'>
            <function-decl name='vector' filepath='external/libcxx/include/vector' line='496' column='1' visibility='default' binding='global' size-in-bits='32'>
              <parameter type-id='b712c097' is-artificial='yes'/>
              <return type-id='48b5725f'/>
            </function-decl>
          </member-function>
          <member-function access='public'>
            <function-decl name='vector' filepath='external/libcxx/include/vector' line='502' column='1' visibility='default' binding='global' size-in-bits='32'>
              <parameter type-id='b712c097' is-artificial='yes'/>
              <parameter type-id='049802b7'/>
              <return type-id='48b5725f'/>
            </function-decl>
          </member-function>
          <member-function access='public'>
            <function-decl name='vector' filepath='external/libcxx/include/vector' line='514' column='1' visibility='default' binding='global' size-in-bits='32'>
              <parameter type-id='b712c097' is-artificial='yes'/>
              <parameter type-id='143a6b6e'/>
              <return type-id='48b5725f'/>
            </function-decl>
          </member-function>
          <member-function access='public'>
            <function-decl name='vector' filepath='external/libcxx/include/vector' line='516' column='1' visibility='default' binding='global' size-in-bits='32'>
              <parameter type-id='b712c097' is-artificial='yes'/>
              <parameter type-id='143a6b6e'/>
              <parameter type-id='049802b7'/>
              <return type-id='48b5725f'/>
            </function-decl>
          </member-function>
          <member-function access='public'>
            <function-decl name='vector' filepath='external/libcxx/include/vector' line='518' column='1' visibility='default' binding='global' size-in-bits='32'>
              <parameter type-id='b712c097' is-artificial='yes'/>
              <parameter type-id='143a6b6e'/>
              <parameter type-id='a2c458cb'/>
              <return type-id='48b5725f'/>
            </function-decl>
          </member-function>
          <member-function access='public'>
            <function-decl name='vector' filepath='external/libcxx/include/vector' line='519' column='1' visibility='default' binding='global' size-in-bits='32'>
              <parameter type-id='b712c097' is-artificial='yes'/>
              <parameter type-id='143a6b6e'/>
              <parameter type-id='a2c458cb'/>
              <parameter type-id='049802b7'/>
              <return type-id='48b5725f'/>
            </function-decl>
          </member-function>
          <member-function access='public' destructor='yes'>
            <function-decl name='~vector' filepath='external/libcxx/include/vector' line='550' column='1' visibility='default' binding='global' size-in-bits='32'>
              <parameter type-id='b712c097' is-artificial='yes'/>
              <return type-id='48b5725f'/>
            </function-decl>
          </member-function>
          <member-function access='public'>
            <function-decl name='vector' filepath='external/libcxx/include/vector' line='558' column='1' visibility='default' binding='global' size-in-bits='32'>
              <parameter type-id='b712c097' is-artificial='yes'/>
              <parameter type-id='8c60215c'/>
              <return type-id='48b5725f'/>
            </function-decl>
          </member-function>
          <member-function access='public'>
            <function-decl name='vector' filepath='external/libcxx/include/vector' line='559' column='1' visibility='default' binding='global' size-in-bits='32'>
              <parameter type-id='b712c097' is-artificial='yes'/>
              <parameter type-id='8c60215c'/>
              <parameter type-id='049802b7'/>
              <return type-id='48b5725f'/>
            </function-decl>
          </member-function>
          <member-function access='public'>
            <function-decl name='vector' filepath='external/libcxx/include/vector' line='565' column='1' visibility='default' binding='global' size-in-bits='32'>
              <parameter type-id='b712c097' is-artificial='yes'/>
              <parameter type-id='fa76a338'/>
              <return type-id='48b5725f'/>
            </function-decl>
          </member-function>
          <member-function access='public'>
            <function-decl name='vector' filepath='external/libcxx/include/vector' line='568' column='1' visibility='default' binding='global' size-in-bits='32'>
              <parameter type-id='b712c097' is-artificial='yes'/>
              <parameter type-id='fa76a338'/>
              <parameter type-id='049802b7'/>
              <return type-id='48b5725f'/>
            </function-decl>
          </member-function>
          <member-function access='public'>
            <function-decl name='vector' filepath='external/libcxx/include/vector' line='571' column='1' visibility='default' binding='global' size-in-bits='32'>
              <parameter type-id='b712c097' is-artificial='yes'/>
              <parameter type-id='e367418f'/>
              <return type-id='48b5725f'/>
            </function-decl>
          </member-function>
          <member-function access='public'>
            <function-decl name='vector' filepath='external/libcxx/include/vector' line='579' column='1' visibility='default' binding='global' size-in-bits='32'>
              <parameter type-id='b712c097' is-artificial='yes'/>
              <parameter type-id='e367418f'/>
              <parameter type-id='049802b7'/>
              <return type-id='48b5725f'/>
            </function-decl>
          </member-function>
        </class-decl>
        <namespace-decl name='__pointer_type_imp'>
          <class-decl name='__pointer_type&lt;android::IObbActionListener, std::__1::default_delete&lt;android::IObbActionListener&gt;, false&gt;' size-in-bits='8' is-struct='yes' visibility='default' filepath='external/libcxx/include/memory' line='1021' column='1' id='123fea2e'>
            <member-type access='public'>
              <typedef-decl name='type' type-id='c70198d4' filepath='external/libcxx/include/memory' line='1023' column='1' id='4d462c8a'/>
            </member-type>
          </class-decl>
        </namespace-decl>
        <typedef-decl name='string' type-id='27619c1d' filepath='external/libcxx/include/iosfwd' line='211' column='1' id='763f758e'/>
      </namespace-decl>
    </namespace-decl>
    <pointer-type-def type-id='63080be8' size-in-bits='32' id='82a8162e'/>
    <pointer-type-def type-id='dff69842' size-in-bits='32' id='b83994e0'/>
    <pointer-type-def type-id='b04db2dd' size-in-bits='32' id='1465dabd'/>
    <pointer-type-def type-id='7bb1d8e1' size-in-bits='32' id='adb8b339'/>
    <pointer-type-def type-id='606d2805' size-in-bits='32' id='0cc07935'/>
    <pointer-type-def type-id='359485b5' size-in-bits='32' id='a499e5c5'/>
    <pointer-type-def type-id='2a92430d' size-in-bits='32' id='4ed8b0dd'/>
    <pointer-type-def type-id='23f2d06f' size-in-bits='32' id='6ae37fb7'/>
    <pointer-type-def type-id='8c662fc5' size-in-bits='32' id='2fde1255'/>
    <pointer-type-def type-id='482d220b' size-in-bits='32' id='47d1f2cb'/>
    <pointer-type-def type-id='6ba1fceb' size-in-bits='32' id='0d40426b'/>
    <pointer-type-def type-id='3f8702cf' size-in-bits='32' id='8ca5b7e7'/>
    <pointer-type-def type-id='560c92f7' size-in-bits='32' id='be42202f'/>
    <pointer-type-def type-id='49eccd9d' size-in-bits='32' id='37ed344d'/>
    <pointer-type-def type-id='a3295715' size-in-bits='32' id='307ae6a5'/>
    <pointer-type-def type-id='763f758e' size-in-bits='32' id='77721b56'/>
    <pointer-type-def type-id='427e4b8a' size-in-bits='32' id='f79cba78'/>
    <pointer-type-def type-id='82a684ba' size-in-bits='32' id='21b84758'/>
    <pointer-type-def type-id='b54229ce' size-in-bits='32' id='2cc2a2b4'/>
    <pointer-type-def type-id='ff70dc94' size-in-bits='32' id='fbd34862'/>
    <pointer-type-def type-id='0e839744' size-in-bits='32' id='d32daf72'/>
    <pointer-type-def type-id='cdd69b5c' size-in-bits='32' id='a1bcde0a'/>
    <pointer-type-def type-id='b9fa8f40' size-in-bits='32' id='38ec2026'/>
    <pointer-type-def type-id='5417a89c' size-in-bits='32' id='f0e86b2a'/>
    <pointer-type-def type-id='2f680da0' size-in-bits='32' id='efee7846'/>
    <pointer-type-def type-id='9360eadc' size-in-bits='32' id='719a934a'/>
    <pointer-type-def type-id='a3eca172' size-in-bits='32' id='46ab91d0'/>
    <pointer-type-def type-id='444756ca' size-in-bits='32' id='56fab488'/>
    <pointer-type-def type-id='9c9ad7b0' size-in-bits='32' id='f160fb56'/>
    <pointer-type-def type-id='cab02d1c' size-in-bits='32' id='bd7ee60a'/>
    <pointer-type-def type-id='d5fd3ca7' size-in-bits='32' id='35865e6f'/>
    <pointer-type-def type-id='4de8320f' size-in-bits='32' id='82ceaaa7'/>
    <pointer-type-def type-id='45e7b03b' size-in-bits='32' id='40eba30b'/>
    <pointer-type-def type-id='aa688d0f' size-in-bits='32' id='4dcecd77'/>
    <pointer-type-def type-id='8e24268f' size-in-bits='32' id='763f4b97'/>
    <pointer-type-def type-id='9f0bbb87' size-in-bits='32' id='f84d584f'/>
    <pointer-type-def type-id='255041c5' size-in-bits='32' id='afa37b15'/>
    <pointer-type-def type-id='3c4ae4e9' size-in-bits='32' id='892d0ff1'/>
    <pointer-type-def type-id='46767cd5' size-in-bits='32' id='9d474d15'/>
    <class-decl name='__sFILE' is-struct='yes' visibility='default' is-declaration-only='yes' id='8d7b2c1f'/>
    <class-decl name='native_handle' size-in-bits='96' is-struct='yes' visibility='default' filepath='system/core/libcutils/include/cutils/native_handle.h' line='34' column='1' id='3181ea79'>
      <data-member access='public' layout-offset-in-bits='0'>
        <var-decl name='version' type-id='95e97e5e' visibility='default' filepath='system/core/libcutils/include/cutils/native_handle.h' line='36' column='1'/>
      </data-member>
      <data-member access='public' layout-offset-in-bits='32'>
        <var-decl name='numFds' type-id='95e97e5e' visibility='default' filepath='system/core/libcutils/include/cutils/native_handle.h' line='37' column='1'/>
      </data-member>
      <data-member access='public' layout-offset-in-bits='64'>
        <var-decl name='numInts' type-id='95e97e5e' visibility='default' filepath='system/core/libcutils/include/cutils/native_handle.h' line='38' column='1'/>
      </data-member>
      <data-member access='public' layout-offset-in-bits='96'>
        <var-decl name='data' type-id='1fdc7fa6' visibility='default' filepath='system/core/libcutils/include/cutils/native_handle.h' line='43' column='1'/>
      </data-member>
    </class-decl>
    <typedef-decl name='wctrans_t' type-id='eaa32e2f' filepath='bionic/libc/include/bits/wctype.h' line='60' column='1' id='183c72c4'/>
    <typedef-decl name='FILE' type-id='8d7b2c1f' filepath='bionic/libc/include/stdio.h' line='59' column='1' id='aa12d1bb'/>
  </abi-instr>
  <abi-instr address-size='32' path='frameworks/base/libs/storage/ObbInfo.cpp' language='LANG_C_plus_plus_14'>
    <qualified-type-def type-id='65c10d3d' const='yes' id='dda33994'/>
    <pointer-type-def type-id='dda33994' size-in-bits='32' id='a5f3e61a'/>
    <pointer-type-def type-id='aa12d1bc' size-in-bits='32' id='822cd80d'/>
    <pointer-type-def type-id='edff7cb5' size-in-bits='32' id='b5a5bc15'/>
    <pointer-type-def type-id='b5977878' size-in-bits='32' id='0657c200'/>
    <pointer-type-def type-id='a87dbeef' size-in-bits='32' id='ce9e5ae5'/>
    <pointer-type-def type-id='259563fb' size-in-bits='32' id='e7293459'/>
    <qualified-type-def type-id='783cc679' const='yes' id='44c384f0'/>
    <qualified-type-def type-id='8fc19047' const='yes' id='d452635e'/>
    <pointer-type-def type-id='d452635e' size-in-bits='32' id='b4b29456'/>
    <qualified-type-def type-id='63080be9' const='yes' id='75a12310'/>
    <qualified-type-def type-id='dff69843' const='yes' id='5be53128'/>
    <qualified-type-def type-id='b04db2de' const='yes' id='00633159'/>
    <qualified-type-def type-id='7bb1d8e2' const='yes' id='0e59eb21'/>
    <qualified-type-def type-id='606d2806' const='yes' id='cbdbf7d3'/>
    <qualified-type-def type-id='359485b6' const='yes' id='53334ee3'/>
    <qualified-type-def type-id='2a92430e' const='yes' id='b80399cb'/>
    <qualified-type-def type-id='23f2d070' const='yes' id='dcc28add'/>
    <qualified-type-def type-id='8c662fc6' const='yes' id='4db497f3'/>
    <qualified-type-def type-id='482d220c' const='yes' id='06ffb901'/>
    <qualified-type-def type-id='6ba1fcec' const='yes' id='eb2629cd'/>
    <qualified-type-def type-id='3f8702d0' const='yes' id='37aad5fb'/>
    <qualified-type-def type-id='560c92f8' const='yes' id='12d46c23'/>
    <qualified-type-def type-id='49eccd9e' const='yes' id='f53b94ff'/>
    <qualified-type-def type-id='a3295716' const='yes' id='d73e162b'/>
    <qualified-type-def type-id='763f758f' const='yes' id='17a746be'/>
    <qualified-type-def type-id='427e4b8b' const='yes' id='1dd04bda'/>
    <qualified-type-def type-id='82a684bb' const='yes' id='03a92050'/>
    <qualified-type-def type-id='b54229cf' const='yes' id='e1f2fe14'/>
    <qualified-type-def type-id='ff70dc95' const='yes' id='c508b1b2'/>
    <qualified-type-def type-id='0e839745' const='yes' id='95bfe8d2'/>
    <qualified-type-def type-id='cdd69b5d' const='yes' id='fbb12462'/>
    <qualified-type-def type-id='b9fa8f41' const='yes' id='2533de46'/>
    <qualified-type-def type-id='5417a89d' const='yes' id='8fa83eaa'/>
    <qualified-type-def type-id='2f680da1' const='yes' id='224503c6'/>
    <qualified-type-def type-id='9360eadd' const='yes' id='3e9fa922'/>
    <qualified-type-def type-id='a3eca173' const='yes' id='4f54b248'/>
    <qualified-type-def type-id='444756cb' const='yes' id='4729be00'/>
    <qualified-type-def type-id='9c9ad7b1' const='yes' id='14d1d5fe'/>
    <qualified-type-def type-id='cab02d1d' const='yes' id='99b40a0a'/>
    <qualified-type-def type-id='d5fd3ca8' const='yes' id='8dba978f'/>
    <qualified-type-def type-id='4de83210' const='yes' id='de6e0291'/>
    <qualified-type-def type-id='45e7b03c' const='yes' id='1733cb19'/>
    <qualified-type-def type-id='aa688d10' const='yes' id='14b1b7eb'/>
    <qualified-type-def type-id='8e242690' const='yes' id='3e60ea5b'/>
    <qualified-type-def type-id='9f0bbb88' const='yes' id='330d96ab'/>
    <qualified-type-def type-id='255041c6' const='yes' id='5ae3c361'/>
    <qualified-type-def type-id='3c4ae4ea' const='yes' id='e0150e19'/>
    <qualified-type-def type-id='46767cd6' const='yes' id='d8498117'/>
    <namespace-decl name='android'>
      <class-decl name='ObbInfo' size-in-bits='288' visibility='default' filepath='frameworks/base/libs/storage/include/storage/ObbInfo.h' line='27' column='1' id='65c10d3d'>
        <base-class access='public' layout-offset-in-bits='0' type-id='f8f7e309'/>
        <base-class access='public' layout-offset-in-bits='96' is-virtual='yes' type-id='12f619c0'/>
        <data-member access='private' layout-offset-in-bits='32'>
          <var-decl name='mFileName' type-id='a3cec311' visibility='default' filepath='frameworks/base/libs/storage/include/storage/ObbInfo.h' line='38' column='1'/>
        </data-member>
        <data-member access='private' layout-offset-in-bits='64'>
          <var-decl name='mPackageName' type-id='a3cec311' visibility='default' filepath='frameworks/base/libs/storage/include/storage/ObbInfo.h' line='39' column='1'/>
        </data-member>
        <data-member access='private' layout-offset-in-bits='96'>
          <var-decl name='mVersion' type-id='3ff5601b' visibility='default' filepath='frameworks/base/libs/storage/include/storage/ObbInfo.h' line='40' column='1'/>
        </data-member>
        <data-member access='private' layout-offset-in-bits='128'>
          <var-decl name='mFlags' type-id='3ff5601b' visibility='default' filepath='frameworks/base/libs/storage/include/storage/ObbInfo.h' line='41' column='1'/>
        </data-member>
        <data-member access='private' layout-offset-in-bits='160'>
          <var-decl name='mSaltSize' type-id='b59d7dce' visibility='default' filepath='frameworks/base/libs/storage/include/storage/ObbInfo.h' line='42' column='1'/>
        </data-member>
        <data-member access='private' layout-offset-in-bits='192'>
          <var-decl name='mSalt' type-id='9f7200cf' visibility='default' filepath='frameworks/base/libs/storage/include/storage/ObbInfo.h' line='43' column='1'/>
        </data-member>
        <member-function access='public' constructor='yes'>
          <function-decl name='ObbInfo' mangled-name='_ZN7android7ObbInfoC1ENS_8String16ES1_iijPKh' filepath='frameworks/base/libs/storage/include/storage/ObbInfo.h' line='30' column='1' visibility='default' binding='global' size-in-bits='32'>
            <parameter type-id='5a61729d' is-artificial='yes'/>
            <parameter type-id='a3cec311'/>
            <parameter type-id='a3cec311'/>
            <parameter type-id='3ff5601b'/>
            <parameter type-id='3ff5601b'/>
            <parameter type-id='b59d7dce'/>
            <parameter type-id='9f7200cf'/>
            <return type-id='48b5725f'/>
          </function-decl>
        </member-function>
        <member-function access='public' destructor='yes' vtable-offset='0'>
          <function-decl name='~ObbInfo' mangled-name='_ZN7android7ObbInfoD0Ev' filepath='frameworks/base/libs/storage/include/storage/ObbInfo.h' line='32' column='1' visibility='default' binding='global' size-in-bits='32'>
            <parameter type-id='5a61729d' is-artificial='yes'/>
            <return type-id='48b5725f'/>
          </function-decl>
        </member-function>
        <member-function access='public' vtable-offset='2'>
          <function-decl name='writeToParcel' mangled-name='_ZNK7android7ObbInfo13writeToParcelEPNS_6ParcelE' filepath='frameworks/base/libs/storage/include/storage/ObbInfo.h' line='34' column='1' visibility='default' binding='global' size-in-bits='32'>
            <parameter type-id='a5f3e61a' is-artificial='yes'/>
            <parameter type-id='1a1ddb91'/>
            <return type-id='a5a046cd'/>
          </function-decl>
        </member-function>
        <member-function access='public' vtable-offset='3'>
          <function-decl name='readFromParcel' mangled-name='_ZN7android7ObbInfo14readFromParcelEPKNS_6ParcelE' filepath='frameworks/base/libs/storage/include/storage/ObbInfo.h' line='35' column='1' visibility='default' binding='global' size-in-bits='32'>
            <parameter type-id='5a61729d' is-artificial='yes'/>
            <parameter type-id='79927164'/>
            <return type-id='a5a046cd'/>
          </function-decl>
        </member-function>
      </class-decl>
      <class-decl name='Parcelable' size-in-bits='32' visibility='default' filepath='frameworks/native/libs/binder/include/binder/Parcelable.h' line='35' column='1' id='f8f7e309'>
        <member-function access='public' constructor='yes'>
          <function-decl name='Parcelable' mangled-name='_ZN7android10ParcelableC2Ev' filepath='frameworks/native/libs/binder/include/binder/Parcelable.h' line='39' column='1' visibility='default' binding='global' size-in-bits='32'>
            <parameter type-id='f7891b51' is-artificial='yes'/>
            <return type-id='48b5725f'/>
          </function-decl>
        </member-function>
        <member-function access='public' constructor='yes'>
          <function-decl name='Parcelable' filepath='frameworks/native/libs/binder/include/binder/Parcelable.h' line='40' column='1' visibility='default' binding='global' size-in-bits='32'>
            <parameter type-id='f7891b51' is-artificial='yes'/>
            <parameter type-id='769dcc84'/>
            <return type-id='48b5725f'/>
          </function-decl>
        </member-function>
        <member-function access='public' destructor='yes' vtable-offset='0'>
          <function-decl name='~Parcelable' mangled-name='_ZN7android10ParcelableD0Ev' filepath='frameworks/native/libs/binder/include/binder/Parcelable.h' line='37' column='1' visibility='default' binding='global' size-in-bits='32'>
            <parameter type-id='f7891b51' is-artificial='yes'/>
            <return type-id='48b5725f'/>
          </function-decl>
        </member-function>
        <member-function access='public' vtable-offset='2'>
          <function-decl name='writeToParcel' mangled-name='_ZNK7android10Parcelable13writeToParcelEPNS_6ParcelE' filepath='frameworks/native/libs/binder/include/binder/Parcelable.h' line='47' column='1' visibility='default' binding='global' size-in-bits='32'>
            <parameter type-id='6a9db9a0' is-artificial='yes'/>
            <parameter type-id='1a1ddb91'/>
            <return type-id='a5a046cd'/>
          </function-decl>
        </member-function>
        <member-function access='public' vtable-offset='3'>
          <function-decl name='readFromParcel' mangled-name='_ZN7android10Parcelable14readFromParcelEPKNS_6ParcelE' filepath='frameworks/native/libs/binder/include/binder/Parcelable.h' line='54' column='1' visibility='default' binding='global' size-in-bits='32'>
            <parameter type-id='f7891b51' is-artificial='yes'/>
            <parameter type-id='79927164'/>
            <return type-id='a5a046cd'/>
          </function-decl>
        </member-function>
        <member-function access='public' vtable-offset='4'>
          <function-decl name='isStable' mangled-name='_ZNK7android10Parcelable8isStableEv' filepath='frameworks/native/libs/binder/include/binder/Parcelable.h' line='60' column='1' visibility='default' binding='global' size-in-bits='32'>
            <parameter type-id='6a9db9a0' is-artificial='yes'/>
            <return type-id='c894953d'/>
          </function-decl>
        </member-function>
      </class-decl>
      <class-decl name='IBinder' visibility='default' is-declaration-only='yes' id='edff7cb5'/>
      <class-decl name='IPCThreadState' visibility='default' is-declaration-only='yes' id='b5977878'/>
      <class-decl name='TextOutput' visibility='default' is-declaration-only='yes' id='32215dcb'/>
      <namespace-decl name='base'>
      </namespace-decl>
      <class-decl name='flat_binder_object' is-struct='yes' visibility='default' is-declaration-only='yes' id='8fc19047'/>
    </namespace-decl>
    <namespace-decl name='std'>
      <namespace-decl name='__1'>
        <class-decl name='basic_string&lt;char, std::__1::char_traits&lt;char&gt;, std::__1::allocator&lt;char&gt; &gt;' visibility='default' is-declaration-only='yes' id='27619c1e'/>
        <class-decl name='optional&lt;android::String16&gt;' visibility='default' is-declaration-only='yes' id='63080be9'/>
        <class-decl name='optional&lt;std::__1::basic_string&lt;char, std::__1::char_traits&lt;char&gt;, std::__1::allocator&lt;char&gt; &gt; &gt;' visibility='default' is-declaration-only='yes' id='dff69843'/>
        <class-decl name='optional&lt;std::__1::vector&lt;android::base::unique_fd_impl&lt;android::base::DefaultCloser&gt;, std::__1::allocator&lt;android::base::unique_fd_impl&lt;android::base::DefaultCloser&gt; &gt; &gt; &gt;' visibility='default' is-declaration-only='yes' id='b04db2de'/>
        <class-decl name='optional&lt;std::__1::vector&lt;android::sp&lt;android::IBinder&gt;, std::__1::allocator&lt;android::sp&lt;android::IBinder&gt; &gt; &gt; &gt;' visibility='default' is-declaration-only='yes' id='7bb1d8e2'/>
        <class-decl name='optional&lt;std::__1::vector&lt;bool, std::__1::allocator&lt;bool&gt; &gt; &gt;' visibility='default' is-declaration-only='yes' id='606d2806'/>
        <class-decl name='optional&lt;std::__1::vector&lt;char16_t, std::__1::allocator&lt;char16_t&gt; &gt; &gt;' visibility='default' is-declaration-only='yes' id='359485b6'/>
        <class-decl name='optional&lt;std::__1::vector&lt;double, std::__1::allocator&lt;double&gt; &gt; &gt;' visibility='default' is-declaration-only='yes' id='2a92430e'/>
        <class-decl name='optional&lt;std::__1::vector&lt;float, std::__1::allocator&lt;float&gt; &gt; &gt;' visibility='default' is-declaration-only='yes' id='23f2d070'/>
        <class-decl name='optional&lt;std::__1::vector&lt;int, std::__1::allocator&lt;int&gt; &gt; &gt;' visibility='default' is-declaration-only='yes' id='8c662fc6'/>
        <class-decl name='optional&lt;std::__1::vector&lt;long long, std::__1::allocator&lt;long long&gt; &gt; &gt;' visibility='default' is-declaration-only='yes' id='482d220c'/>
        <class-decl name='optional&lt;std::__1::vector&lt;signed char, std::__1::allocator&lt;signed char&gt; &gt; &gt;' visibility='default' is-declaration-only='yes' id='6ba1fcec'/>
        <class-decl name='optional&lt;std::__1::vector&lt;std::__1::optional&lt;android::String16&gt;, std::__1::allocator&lt;std::__1::optional&lt;android::String16&gt; &gt; &gt; &gt;' visibility='default' is-declaration-only='yes' id='3f8702d0'/>
        <class-decl name='optional&lt;std::__1::vector&lt;std::__1::optional&lt;std::__1::basic_string&lt;char, std::__1::char_traits&lt;char&gt;, std::__1::allocator&lt;char&gt; &gt; &gt;, std::__1::allocator&lt;std::__1::optional&lt;std::__1::basic_string&lt;char, std::__1::char_traits&lt;char&gt;, std::__1::allocator&lt;char&gt; &gt; &gt; &gt; &gt; &gt;' visibility='default' is-declaration-only='yes' id='560c92f8'/>
        <class-decl name='optional&lt;std::__1::vector&lt;unsigned char, std::__1::allocator&lt;unsigned char&gt; &gt; &gt;' visibility='default' is-declaration-only='yes' id='49eccd9e'/>
        <class-decl name='optional&lt;std::__1::vector&lt;unsigned long long, std::__1::allocator&lt;unsigned long long&gt; &gt; &gt;' visibility='default' is-declaration-only='yes' id='a3295716'/>
        <class-decl name='unique_ptr&lt;android::String16, std::__1::default_delete&lt;android::String16&gt; &gt;' visibility='default' is-declaration-only='yes' id='427e4b8b'/>
        <class-decl name='unique_ptr&lt;std::__1::vector&lt;android::base::unique_fd_impl&lt;android::base::DefaultCloser&gt;, std::__1::allocator&lt;android::base::unique_fd_impl&lt;android::base::DefaultCloser&gt; &gt; &gt;, std::__1::default_delete&lt;std::__1::vector&lt;android::base::unique_fd_impl&lt;android::base::DefaultCloser&gt;, std::__1::allocator&lt;android::base::unique_fd_impl&lt;android::base::DefaultCloser&gt; &gt; &gt; &gt; &gt;' visibility='default' is-declaration-only='yes' id='82a684bb'/>
        <class-decl name='unique_ptr&lt;std::__1::vector&lt;android::sp&lt;android::IBinder&gt;, std::__1::allocator&lt;android::sp&lt;android::IBinder&gt; &gt; &gt;, std::__1::default_delete&lt;std::__1::vector&lt;android::sp&lt;android::IBinder&gt;, std::__1::allocator&lt;android::sp&lt;android::IBinder&gt; &gt; &gt; &gt; &gt;' visibility='default' is-declaration-only='yes' id='b54229cf'/>
        <class-decl name='unique_ptr&lt;std::__1::vector&lt;bool, std::__1::allocator&lt;bool&gt; &gt;, std::__1::default_delete&lt;std::__1::vector&lt;bool, std::__1::allocator&lt;bool&gt; &gt; &gt; &gt;' visibility='default' is-declaration-only='yes' id='ff70dc95'/>
        <class-decl name='unique_ptr&lt;std::__1::vector&lt;char16_t, std::__1::allocator&lt;char16_t&gt; &gt;, std::__1::default_delete&lt;std::__1::vector&lt;char16_t, std::__1::allocator&lt;char16_t&gt; &gt; &gt; &gt;' visibility='default' is-declaration-only='yes' id='0e839745'/>
        <class-decl name='unique_ptr&lt;std::__1::vector&lt;double, std::__1::allocator&lt;double&gt; &gt;, std::__1::default_delete&lt;std::__1::vector&lt;double, std::__1::allocator&lt;double&gt; &gt; &gt; &gt;' visibility='default' is-declaration-only='yes' id='cdd69b5d'/>
        <class-decl name='unique_ptr&lt;std::__1::vector&lt;float, std::__1::allocator&lt;float&gt; &gt;, std::__1::default_delete&lt;std::__1::vector&lt;float, std::__1::allocator&lt;float&gt; &gt; &gt; &gt;' visibility='default' is-declaration-only='yes' id='b9fa8f41'/>
        <class-decl name='unique_ptr&lt;std::__1::vector&lt;int, std::__1::allocator&lt;int&gt; &gt;, std::__1::default_delete&lt;std::__1::vector&lt;int, std::__1::allocator&lt;int&gt; &gt; &gt; &gt;' visibility='default' is-declaration-only='yes' id='5417a89d'/>
        <class-decl name='unique_ptr&lt;std::__1::vector&lt;long long, std::__1::allocator&lt;long long&gt; &gt;, std::__1::default_delete&lt;std::__1::vector&lt;long long, std::__1::allocator&lt;long long&gt; &gt; &gt; &gt;' visibility='default' is-declaration-only='yes' id='2f680da1'/>
        <class-decl name='unique_ptr&lt;std::__1::vector&lt;signed char, std::__1::allocator&lt;signed char&gt; &gt;, std::__1::default_delete&lt;std::__1::vector&lt;signed char, std::__1::allocator&lt;signed char&gt; &gt; &gt; &gt;' visibility='default' is-declaration-only='yes' id='9360eadd'/>
        <class-decl name='unique_ptr&lt;std::__1::vector&lt;std::__1::unique_ptr&lt;android::String16, std::__1::default_delete&lt;android::String16&gt; &gt;, std::__1::allocator&lt;std::__1::unique_ptr&lt;android::String16, std::__1::default_delete&lt;android::String16&gt; &gt; &gt; &gt;, std::__1::default_delete&lt;std::__1::vector&lt;std::__1::unique_ptr&lt;android::String16, std::__1::default_delete&lt;android::String16&gt; &gt;, std::__1::allocator&lt;std::__1::unique_ptr&lt;android::String16, std::__1::default_delete&lt;android::String16&gt; &gt; &gt; &gt; &gt; &gt;' visibility='default' is-declaration-only='yes' id='a3eca173'/>
        <class-decl name='unique_ptr&lt;std::__1::vector&lt;std::__1::unique_ptr&lt;std::__1::basic_string&lt;char, std::__1::char_traits&lt;char&gt;, std::__1::allocator&lt;char&gt; &gt;, std::__1::default_delete&lt;std::__1::basic_string&lt;char, std::__1::char_traits&lt;char&gt;, std::__1::allocator&lt;char&gt; &gt; &gt; &gt;, std::__1::allocator&lt;std::__1::unique_ptr&lt;std::__1::basic_string&lt;char, std::__1::char_traits&lt;char&gt;, std::__1::allocator&lt;char&gt; &gt;, std::__1::default_delete&lt;std::__1::basic_string&lt;char, std::__1::char_traits&lt;char&gt;, std::__1::allocator&lt;char&gt; &gt; &gt; &gt; &gt; &gt;, std::__1::default_delete&lt;std::__1::vector&lt;std::__1::unique_ptr&lt;std::__1::basic_string&lt;char, std::__1::char_traits&lt;char&gt;, std::__1::allocator&lt;char&gt; &gt;, std::__1::default_delete&lt;std::__1::basic_string&lt;char, std::__1::char_traits&lt;char&gt;, std::__1::allocator&lt;char&gt; &gt; &gt; &gt;, std::__1::allocator&lt;std::__1::unique_ptr&lt;std::__1::basic_string&lt;char, std::__1::char_traits&lt;char&gt;, std::__1::allocator&lt;char&gt; &gt;, std::__1::default_delete&lt;std::__1::basic_string&lt;char, std::__1::char_traits&lt;char&gt;, std::__1::allocator&lt;char&gt; &gt; &gt; &gt; &gt; &gt; &gt; &gt;' visibility='default' is-declaration-only='yes' id='444756cb'/>
        <class-decl name='unique_ptr&lt;std::__1::vector&lt;unsigned char, std::__1::allocator&lt;unsigned char&gt; &gt;, std::__1::default_delete&lt;std::__1::vector&lt;unsigned char, std::__1::allocator&lt;unsigned char&gt; &gt; &gt; &gt;' visibility='default' is-declaration-only='yes' id='9c9ad7b1'/>
        <class-decl name='unique_ptr&lt;std::__1::vector&lt;unsigned long long, std::__1::allocator&lt;unsigned long long&gt; &gt;, std::__1::default_delete&lt;std::__1::vector&lt;unsigned long long, std::__1::allocator&lt;unsigned long long&gt; &gt; &gt; &gt;' visibility='default' is-declaration-only='yes' id='cab02d1d'/>
        <class-decl name='vector&lt;android::String16, std::__1::allocator&lt;android::String16&gt; &gt;' visibility='default' is-declaration-only='yes' id='d5fd3ca8'/>
        <class-decl name='vector&lt;android::base::unique_fd_impl&lt;android::base::DefaultCloser&gt;, std::__1::allocator&lt;android::base::unique_fd_impl&lt;android::base::DefaultCloser&gt; &gt; &gt;' visibility='default' is-declaration-only='yes' id='4de83210'/>
        <class-decl name='vector&lt;android::sp&lt;android::IBinder&gt;, std::__1::allocator&lt;android::sp&lt;android::IBinder&gt; &gt; &gt;' visibility='default' is-declaration-only='yes' id='45e7b03c'/>
        <class-decl name='vector&lt;bool, std::__1::allocator&lt;bool&gt; &gt;' visibility='default' is-declaration-only='yes' id='aa688d10'/>
        <class-decl name='vector&lt;char16_t, std::__1::allocator&lt;char16_t&gt; &gt;' visibility='default' is-declaration-only='yes' id='8e242690'/>
        <class-decl name='vector&lt;double, std::__1::allocator&lt;double&gt; &gt;' visibility='default' is-declaration-only='yes' id='9f0bbb88'/>
        <class-decl name='vector&lt;float, std::__1::allocator&lt;float&gt; &gt;' visibility='default' is-declaration-only='yes' id='255041c6'/>
        <class-decl name='vector&lt;signed char, std::__1::allocator&lt;signed char&gt; &gt;' visibility='default' is-declaration-only='yes' id='3c4ae4ea'/>
        <class-decl name='vector&lt;std::__1::basic_string&lt;char, std::__1::char_traits&lt;char&gt;, std::__1::allocator&lt;char&gt; &gt;, std::__1::allocator&lt;std::__1::basic_string&lt;char, std::__1::char_traits&lt;char&gt;, std::__1::allocator&lt;char&gt; &gt; &gt; &gt;' visibility='default' is-declaration-only='yes' id='46767cd6'/>
        <typedef-decl name='string' type-id='27619c1e' filepath='external/libcxx/include/iosfwd' line='211' column='1' id='763f758f'/>
      </namespace-decl>
    </namespace-decl>
    <pointer-type-def type-id='63080be9' size-in-bits='32' id='82a8162f'/>
    <pointer-type-def type-id='dff69843' size-in-bits='32' id='b83994e1'/>
    <pointer-type-def type-id='b04db2de' size-in-bits='32' id='1465dabe'/>
    <pointer-type-def type-id='7bb1d8e2' size-in-bits='32' id='adb8b33a'/>
    <pointer-type-def type-id='606d2806' size-in-bits='32' id='0cc07936'/>
    <pointer-type-def type-id='359485b6' size-in-bits='32' id='a499e5c6'/>
    <pointer-type-def type-id='2a92430e' size-in-bits='32' id='4ed8b0de'/>
    <pointer-type-def type-id='23f2d070' size-in-bits='32' id='6ae37fb8'/>
    <pointer-type-def type-id='8c662fc6' size-in-bits='32' id='2fde1256'/>
    <pointer-type-def type-id='482d220c' size-in-bits='32' id='47d1f2cc'/>
    <pointer-type-def type-id='6ba1fcec' size-in-bits='32' id='0d40426c'/>
    <pointer-type-def type-id='3f8702d0' size-in-bits='32' id='8ca5b7e8'/>
    <pointer-type-def type-id='560c92f8' size-in-bits='32' id='be422030'/>
    <pointer-type-def type-id='49eccd9e' size-in-bits='32' id='37ed344e'/>
    <pointer-type-def type-id='a3295716' size-in-bits='32' id='307ae6a6'/>
    <pointer-type-def type-id='763f758f' size-in-bits='32' id='77721b57'/>
    <pointer-type-def type-id='427e4b8b' size-in-bits='32' id='f79cba79'/>
    <pointer-type-def type-id='82a684bb' size-in-bits='32' id='21b84759'/>
    <pointer-type-def type-id='b54229cf' size-in-bits='32' id='2cc2a2b5'/>
    <pointer-type-def type-id='ff70dc95' size-in-bits='32' id='fbd34863'/>
    <pointer-type-def type-id='0e839745' size-in-bits='32' id='d32daf73'/>
    <pointer-type-def type-id='cdd69b5d' size-in-bits='32' id='a1bcde0b'/>
    <pointer-type-def type-id='b9fa8f41' size-in-bits='32' id='38ec2027'/>
    <pointer-type-def type-id='5417a89d' size-in-bits='32' id='f0e86b2b'/>
    <pointer-type-def type-id='2f680da1' size-in-bits='32' id='efee7847'/>
    <pointer-type-def type-id='9360eadd' size-in-bits='32' id='719a934b'/>
    <pointer-type-def type-id='a3eca173' size-in-bits='32' id='46ab91d1'/>
    <pointer-type-def type-id='444756cb' size-in-bits='32' id='56fab489'/>
    <pointer-type-def type-id='9c9ad7b1' size-in-bits='32' id='f160fb57'/>
    <pointer-type-def type-id='cab02d1d' size-in-bits='32' id='bd7ee60b'/>
    <pointer-type-def type-id='d5fd3ca8' size-in-bits='32' id='35865e70'/>
    <pointer-type-def type-id='4de83210' size-in-bits='32' id='82ceaaa8'/>
    <pointer-type-def type-id='45e7b03c' size-in-bits='32' id='40eba30c'/>
    <pointer-type-def type-id='aa688d10' size-in-bits='32' id='4dcecd78'/>
    <pointer-type-def type-id='8e242690' size-in-bits='32' id='763f4b98'/>
    <pointer-type-def type-id='9f0bbb88' size-in-bits='32' id='f84d5850'/>
    <pointer-type-def type-id='255041c6' size-in-bits='32' id='afa37b16'/>
    <pointer-type-def type-id='3c4ae4ea' size-in-bits='32' id='892d0ff2'/>
    <pointer-type-def type-id='46767cd6' size-in-bits='32' id='9d474d16'/>
    <class-decl name='__sFILE' is-struct='yes' visibility='default' is-declaration-only='yes' id='8d7b2c20'/>
    <typedef-decl name='wctrans_t' type-id='eaa32e2f' filepath='bionic/libc/include/bits/wctype.h' line='60' column='1' id='183c72c5'/>
    <typedef-decl name='FILE' type-id='8d7b2c20' filepath='bionic/libc/include/stdio.h' line='59' column='1' id='aa12d1bc'/>
  </abi-instr>
  <abi-instr address-size='32' path='frameworks/base/native/android/asset_manager.cpp' language='LANG_C_plus_plus_14'>
    <type-decl name='__ARRAY_SIZE_TYPE__' size-in-bits='64' id='7ff19f0f'/>
    <array-type-def dimensions='1' type-id='1b3b87e1' size-in-bits='512' id='224e4514'>
      <subrange length='16' lower-bound='0' upper-bound='15' type-id='7ff19f0f' id='848d0938'/>
    </array-type-def>
    <array-type-def dimensions='1' type-id='71ad5e8a' size-in-bits='unknown' id='86626492'>
      <subrange length='unknown' lower-bound='0' upper-bound='-1' type-id='7ff19f0f' id='031f2035'/>
    </array-type-def>
    <array-type-def dimensions='1' type-id='2d5c5fc5' size-in-bits='512' id='98ae5868'>
      <subrange length='16' lower-bound='0' upper-bound='15' type-id='7ff19f0f' id='848d0938'/>
    </array-type-def>
    <type-decl name='bool' size-in-bits='8' id='c894953d'/>
    <type-decl name='char' size-in-bits='8' id='a84c031d'/>
    <type-decl name='char16_t' size-in-bits='16' id='801a266d'/>
    <type-decl name='char32_t' size-in-bits='32' id='a846fc93'/>
    <array-type-def dimensions='1' type-id='a84c031d' size-in-bits='16' id='49f79167'>
      <subrange length='2' lower-bound='0' upper-bound='1' type-id='7ff19f0f' id='52efc4ef'/>
    </array-type-def>
    <array-type-def dimensions='1' type-id='a84c031d' size-in-bits='32' id='8e0573fd'>
      <subrange length='4' lower-bound='0' upper-bound='3' type-id='7ff19f0f' id='16fe7105'/>
    </array-type-def>
    <array-type-def dimensions='1' type-id='a84c031d' size-in-bits='64' id='8e100159'>
      <subrange length='8' lower-bound='0' upper-bound='7' type-id='7ff19f0f' id='56e0c0b1'/>
    </array-type-def>
    <class-decl name='_jarray' size-in-bits='8' visibility='default' filepath='libnativehelper/include_jni/jni.h' line='49' column='1' id='440aaf49'>
      <base-class access='public' layout-offset-in-bits='0' type-id='baffb083'/>
    </class-decl>
    <class-decl name='_jobject' size-in-bits='8' visibility='default' filepath='libnativehelper/include_jni/jni.h' line='46' column='1' id='baffb083'/>
    <array-type-def dimensions='1' type-id='bfebf634' size-in-bits='unknown' id='b51730a0'>
      <subrange length='unknown' lower-bound='0' upper-bound='-1' type-id='7ff19f0f' id='031f2035'/>
    </array-type-def>
    <type-decl name='double' size-in-bits='64' id='a0eb0f08'/>
    <enum-decl name='jobjectRefType' filepath='libnativehelper/include_jni/jni.h' line='121' column='1' id='4f771c8a'>
      <underlying-type type-id='9cac1fee'/>
      <enumerator name='JNIInvalidRefType' value='0'/>
      <enumerator name='JNILocalRefType' value='1'/>
      <enumerator name='JNIGlobalRefType' value='2'/>
      <enumerator name='JNIWeakGlobalRefType' value='3'/>
    </enum-decl>
    <type-decl name='float' size-in-bits='32' id='a6c45d85'/>
    <type-decl name='int' size-in-bits='32' id='95e97e5e'/>
    <array-type-def dimensions='1' type-id='3ff5601b' size-in-bits='32' id='e4652d73'>
      <subrange length='1' lower-bound='0' upper-bound='0' type-id='7ff19f0f' id='52f813b4'/>
    </array-type-def>
    <type-decl name='long double' size-in-bits='64' id='a0eb0f09'/>
    <type-decl name='long int' size-in-bits='32' id='95e97e5f'/>
    <type-decl name='long long int' size-in-bits='64' id='95e97e60'/>
    <type-decl name='short int' size-in-bits='16' id='95e97e61'/>
    <type-decl name='signed char' size-in-bits='8' id='28577a57'/>
    <array-type-def dimensions='1' type-id='143a6b6f' size-in-bits='96' id='69cdedfe'>
      <subrange length='3' lower-bound='0' upper-bound='2' type-id='7ff19f0f' id='56f209d2'/>
    </array-type-def>
    <array-type-def dimensions='1' type-id='62e477ae' size-in-bits='80' id='dafbcf1a'>
      <subrange length='5' lower-bound='0' upper-bound='4' type-id='7ff19f0f' id='53010e10'/>
    </array-type-def>
    <class-decl name='AAsset' size-in-bits='32' is-struct='yes' visibility='default' filepath='frameworks/base/native/android/asset_manager.cpp' line='50' column='1' id='1fc4034c'>
      <data-member access='public' layout-offset-in-bits='0'>
        <var-decl name='mAsset' type-id='ac070eda' visibility='default' filepath='frameworks/base/native/android/asset_manager.cpp' line='51' column='1'/>
      </data-member>
      <member-function access='public' constructor='yes'>
        <function-decl name='AAsset' mangled-name='_ZN6AAssetC2ENSt3__110unique_ptrIN7android5AssetENS0_14default_deleteIS3_EEEE' filepath='frameworks/base/native/android/asset_manager.cpp' line='53' column='1' visibility='default' binding='global' size-in-bits='32'>
          <parameter type-id='57d98aaa' is-artificial='yes'/>
          <parameter type-id='ac070eda'/>
          <return type-id='48b5725f'/>
        </function-decl>
      </member-function>
    </class-decl>
    <class-decl name='AAssetDir' size-in-bits='96' is-struct='yes' visibility='default' filepath='frameworks/base/native/android/asset_manager.cpp' line='39' column='1' id='ea9788c3'>
      <data-member access='public' layout-offset-in-bits='0'>
        <var-decl name='mAssetDir' type-id='6a6c3f8a' visibility='default' filepath='frameworks/base/native/android/asset_manager.cpp' line='40' column='1'/>
      </data-member>
      <data-member access='public' layout-offset-in-bits='32'>
        <var-decl name='mCurFileIndex' type-id='b59d7dce' visibility='default' filepath='frameworks/base/native/android/asset_manager.cpp' line='41' column='1'/>
      </data-member>
      <data-member access='public' layout-offset-in-bits='64'>
        <var-decl name='mCachedFileName' type-id='bacf3393' visibility='default' filepath='frameworks/base/native/android/asset_manager.cpp' line='42' column='1'/>
      </data-member>
      <member-function access='public' constructor='yes'>
        <function-decl name='AAssetDir' mangled-name='_ZN9AAssetDirC2ENSt3__110unique_ptrIN7android8AssetDirENS0_14default_deleteIS3_EEEE' filepath='frameworks/base/native/android/asset_manager.cpp' line='44' column='1' visibility='default' binding='global' size-in-bits='32'>
          <parameter type-id='1cdc10c3' is-artificial='yes'/>
          <parameter type-id='6a6c3f8a'/>
          <return type-id='48b5725f'/>
        </function-decl>
      </member-function>
    </class-decl>
    <class-decl name='AAssetManager' size-in-bits='8' is-struct='yes' visibility='default' filepath='frameworks/base/libs/androidfw/include/androidfw/AssetManager.h' line='36' column='1' id='7907d453'/>
    <class-decl name='JNINativeInterface' size-in-bits='7456' is-struct='yes' visibility='default' filepath='libnativehelper/include_jni/jni.h' line='149' column='1' id='ad414f12'>
      <data-member access='public' layout-offset-in-bits='0'>
        <var-decl name='reserved0' type-id='eaa32e2f' visibility='default' filepath='libnativehelper/include_jni/jni.h' line='150' column='1'/>
      </data-member>
      <data-member access='public' layout-offset-in-bits='32'>
        <var-decl name='reserved1' type-id='eaa32e2f' visibility='default' filepath='libnativehelper/include_jni/jni.h' line='151' column='1'/>
      </data-member>
      <data-member access='public' layout-offset-in-bits='64'>
        <var-decl name='reserved2' type-id='eaa32e2f' visibility='default' filepath='libnativehelper/include_jni/jni.h' line='152' column='1'/>
      </data-member>
      <data-member access='public' layout-offset-in-bits='96'>
        <var-decl name='reserved3' type-id='eaa32e2f' visibility='default' filepath='libnativehelper/include_jni/jni.h' line='153' column='1'/>
      </data-member>
      <data-member access='public' layout-offset-in-bits='128'>
        <var-decl name='GetVersion' type-id='18d755d9' visibility='default' filepath='libnativehelper/include_jni/jni.h' line='155' column='1'/>
      </data-member>
      <data-member access='public' layout-offset-in-bits='160'>
        <var-decl name='DefineClass' type-id='c1bcbe60' visibility='default' filepath='libnativehelper/include_jni/jni.h' line='157' column='1'/>
      </data-member>
      <data-member access='public' layout-offset-in-bits='192'>
        <var-decl name='FindClass' type-id='a247d414' visibility='default' filepath='libnativehelper/include_jni/jni.h' line='159' column='1'/>
      </data-member>
      <data-member access='public' layout-offset-in-bits='224'>
        <var-decl name='FromReflectedMethod' type-id='95094585' visibility='default' filepath='libnativehelper/include_jni/jni.h' line='161' column='1'/>
      </data-member>
      <data-member access='public' layout-offset-in-bits='256'>
        <var-decl name='FromReflectedField' type-id='2c8531ee' visibility='default' filepath='libnativehelper/include_jni/jni.h' line='162' column='1'/>
      </data-member>
      <data-member access='public' layout-offset-in-bits='288'>
        <var-decl name='ToReflectedMethod' type-id='a19c74f7' visibility='default' filepath='libnativehelper/include_jni/jni.h' line='164' column='1'/>
      </data-member>
      <data-member access='public' layout-offset-in-bits='320'>
        <var-decl name='GetSuperclass' type-id='61e793ce' visibility='default' filepath='libnativehelper/include_jni/jni.h' line='166' column='1'/>
      </data-member>
      <data-member access='public' layout-offset-in-bits='352'>
        <var-decl name='IsAssignableFrom' type-id='192dd735' visibility='default' filepath='libnativehelper/include_jni/jni.h' line='167' column='1'/>
      </data-member>
      <data-member access='public' layout-offset-in-bits='384'>
        <var-decl name='ToReflectedField' type-id='d17c3f88' visibility='default' filepath='libnativehelper/include_jni/jni.h' line='170' column='1'/>
      </data-member>
      <data-member access='public' layout-offset-in-bits='416'>
        <var-decl name='Throw' type-id='c8a34da2' visibility='default' filepath='libnativehelper/include_jni/jni.h' line='172' column='1'/>
      </data-member>
      <data-member access='public' layout-offset-in-bits='448'>
        <var-decl name='ThrowNew' type-id='98515169' visibility='default' filepath='libnativehelper/include_jni/jni.h' line='173' column='1'/>
      </data-member>
      <data-member access='public' layout-offset-in-bits='480'>
        <var-decl name='ExceptionOccurred' type-id='b3dfc495' visibility='default' filepath='libnativehelper/include_jni/jni.h' line='174' column='1'/>
      </data-member>
      <data-member access='public' layout-offset-in-bits='512'>
        <var-decl name='ExceptionDescribe' type-id='8bc971a6' visibility='default' filepath='libnativehelper/include_jni/jni.h' line='175' column='1'/>
      </data-member>
      <data-member access='public' layout-offset-in-bits='544'>
        <var-decl name='ExceptionClear' type-id='8bc971a6' visibility='default' filepath='libnativehelper/include_jni/jni.h' line='176' column='1'/>
      </data-member>
      <data-member access='public' layout-offset-in-bits='576'>
        <var-decl name='FatalError' type-id='2deb20e5' visibility='default' filepath='libnativehelper/include_jni/jni.h' line='177' column='1'/>
      </data-member>
      <data-member access='public' layout-offset-in-bits='608'>
        <var-decl name='PushLocalFrame' type-id='8770ee20' visibility='default' filepath='libnativehelper/include_jni/jni.h' line='179' column='1'/>
      </data-member>
      <data-member access='public' layout-offset-in-bits='640'>
        <var-decl name='PopLocalFrame' type-id='f2a57148' visibility='default' filepath='libnativehelper/include_jni/jni.h' line='180' column='1'/>
      </data-member>
      <data-member access='public' layout-offset-in-bits='672'>
        <var-decl name='NewGlobalRef' type-id='f2a57148' visibility='default' filepath='libnativehelper/include_jni/jni.h' line='182' column='1'/>
      </data-member>
      <data-member access='public' layout-offset-in-bits='704'>
        <var-decl name='DeleteGlobalRef' type-id='43af461c' visibility='default' filepath='libnativehelper/include_jni/jni.h' line='183' column='1'/>
      </data-member>
      <data-member access='public' layout-offset-in-bits='736'>
        <var-decl name='DeleteLocalRef' type-id='43af461c' visibility='default' filepath='libnativehelper/include_jni/jni.h' line='184' column='1'/>
      </data-member>
      <data-member access='public' layout-offset-in-bits='768'>
        <var-decl name='IsSameObject' type-id='00722fb9' visibility='default' filepath='libnativehelper/include_jni/jni.h' line='185' column='1'/>
      </data-member>
      <data-member access='public' layout-offset-in-bits='800'>
        <var-decl name='NewLocalRef' type-id='f2a57148' visibility='default' filepath='libnativehelper/include_jni/jni.h' line='187' column='1'/>
      </data-member>
      <data-member access='public' layout-offset-in-bits='832'>
        <var-decl name='EnsureLocalCapacity' type-id='8770ee20' visibility='default' filepath='libnativehelper/include_jni/jni.h' line='188' column='1'/>
      </data-member>
      <data-member access='public' layout-offset-in-bits='864'>
        <var-decl name='AllocObject' type-id='32aa4f8d' visibility='default' filepath='libnativehelper/include_jni/jni.h' line='190' column='1'/>
      </data-member>
      <data-member access='public' layout-offset-in-bits='896'>
        <var-decl name='NewObject' type-id='260c4c40' visibility='default' filepath='libnativehelper/include_jni/jni.h' line='191' column='1'/>
      </data-member>
      <data-member access='public' layout-offset-in-bits='928'>
        <var-decl name='NewObjectV' type-id='775787db' visibility='default' filepath='libnativehelper/include_jni/jni.h' line='192' column='1'/>
      </data-member>
      <data-member access='public' layout-offset-in-bits='960'>
        <var-decl name='NewObjectA' type-id='38637da2' visibility='default' filepath='libnativehelper/include_jni/jni.h' line='193' column='1'/>
      </data-member>
      <data-member access='public' layout-offset-in-bits='992'>
        <var-decl name='GetObjectClass' type-id='f50e7349' visibility='default' filepath='libnativehelper/include_jni/jni.h' line='195' column='1'/>
      </data-member>
      <data-member access='public' layout-offset-in-bits='1024'>
        <var-decl name='IsInstanceOf' type-id='bfafe7be' visibility='default' filepath='libnativehelper/include_jni/jni.h' line='196' column='1'/>
      </data-member>
      <data-member access='public' layout-offset-in-bits='1056'>
        <var-decl name='GetMethodID' type-id='7b39afc8' visibility='default' filepath='libnativehelper/include_jni/jni.h' line='197' column='1'/>
      </data-member>
      <data-member access='public' layout-offset-in-bits='1088'>
        <var-decl name='CallObjectMethod' type-id='ceea3b8d' visibility='default' filepath='libnativehelper/include_jni/jni.h' line='199' column='1'/>
      </data-member>
      <data-member access='public' layout-offset-in-bits='1120'>
        <var-decl name='CallObjectMethodV' type-id='e2a33260' visibility='default' filepath='libnativehelper/include_jni/jni.h' line='200' column='1'/>
      </data-member>
      <data-member access='public' layout-offset-in-bits='1152'>
        <var-decl name='CallObjectMethodA' type-id='d469a98b' visibility='default' filepath='libnativehelper/include_jni/jni.h' line='201' column='1'/>
      </data-member>
      <data-member access='public' layout-offset-in-bits='1184'>
        <var-decl name='CallBooleanMethod' type-id='dcc01f40' visibility='default' filepath='libnativehelper/include_jni/jni.h' line='202' column='1'/>
      </data-member>
      <data-member access='public' layout-offset-in-bits='1216'>
        <var-decl name='CallBooleanMethodV' type-id='f47c20db' visibility='default' filepath='libnativehelper/include_jni/jni.h' line='203' column='1'/>
      </data-member>
      <data-member access='public' layout-offset-in-bits='1248'>
        <var-decl name='CallBooleanMethodA' type-id='fb4bf8a2' visibility='default' filepath='libnativehelper/include_jni/jni.h' line='204' column='1'/>
      </data-member>
      <data-member access='public' layout-offset-in-bits='1280'>
        <var-decl name='CallByteMethod' type-id='b8872911' visibility='default' filepath='libnativehelper/include_jni/jni.h' line='205' column='1'/>
      </data-member>
      <data-member access='public' layout-offset-in-bits='1312'>
        <var-decl name='CallByteMethodV' type-id='8e395004' visibility='default' filepath='libnativehelper/include_jni/jni.h' line='206' column='1'/>
      </data-member>
      <data-member access='public' layout-offset-in-bits='1344'>
        <var-decl name='CallByteMethodA' type-id='bd039867' visibility='default' filepath='libnativehelper/include_jni/jni.h' line='207' column='1'/>
      </data-member>
      <data-member access='public' layout-offset-in-bits='1376'>
        <var-decl name='CallCharMethod' type-id='276929e5' visibility='default' filepath='libnativehelper/include_jni/jni.h' line='208' column='1'/>
      </data-member>
      <data-member access='public' layout-offset-in-bits='1408'>
        <var-decl name='CallCharMethodV' type-id='e6cee188' visibility='default' filepath='libnativehelper/include_jni/jni.h' line='209' column='1'/>
      </data-member>
      <data-member access='public' layout-offset-in-bits='1440'>
        <var-decl name='CallCharMethodA' type-id='75022493' visibility='default' filepath='libnativehelper/include_jni/jni.h' line='210' column='1'/>
      </data-member>
      <data-member access='public' layout-offset-in-bits='1472'>
        <var-decl name='CallShortMethod' type-id='9f2ec5e8' visibility='default' filepath='libnativehelper/include_jni/jni.h' line='211' column='1'/>
      </data-member>
      <data-member access='public' layout-offset-in-bits='1504'>
        <var-decl name='CallShortMethodV' type-id='4ab10d53' visibility='default' filepath='libnativehelper/include_jni/jni.h' line='212' column='1'/>
      </data-member>
      <data-member access='public' layout-offset-in-bits='1536'>
        <var-decl name='CallShortMethodA' type-id='4ed5bc7a' visibility='default' filepath='libnativehelper/include_jni/jni.h' line='213' column='1'/>
      </data-member>
      <data-member access='public' layout-offset-in-bits='1568'>
        <var-decl name='CallIntMethod' type-id='9f2ec5e9' visibility='default' filepath='libnativehelper/include_jni/jni.h' line='214' column='1'/>
      </data-member>
      <data-member access='public' layout-offset-in-bits='1600'>
        <var-decl name='CallIntMethodV' type-id='4ab10d54' visibility='default' filepath='libnativehelper/include_jni/jni.h' line='215' column='1'/>
      </data-member>
      <data-member access='public' layout-offset-in-bits='1632'>
        <var-decl name='CallIntMethodA' type-id='4ed5bc7b' visibility='default' filepath='libnativehelper/include_jni/jni.h' line='216' column='1'/>
      </data-member>
      <data-member access='public' layout-offset-in-bits='1664'>
        <var-decl name='CallLongMethod' type-id='9f2ec5ea' visibility='default' filepath='libnativehelper/include_jni/jni.h' line='217' column='1'/>
      </data-member>
      <data-member access='public' layout-offset-in-bits='1696'>
        <var-decl name='CallLongMethodV' type-id='4ab10d55' visibility='default' filepath='libnativehelper/include_jni/jni.h' line='218' column='1'/>
      </data-member>
      <data-member access='public' layout-offset-in-bits='1728'>
        <var-decl name='CallLongMethodA' type-id='4ed5bc7c' visibility='default' filepath='libnativehelper/include_jni/jni.h' line='219' column='1'/>
      </data-member>
      <data-member access='public' layout-offset-in-bits='1760'>
        <var-decl name='CallFloatMethod' type-id='9f5f6d1f' visibility='default' filepath='libnativehelper/include_jni/jni.h' line='220' column='1'/>
      </data-member>
      <data-member access='public' layout-offset-in-bits='1792'>
        <var-decl name='CallFloatMethodV' type-id='a1d47c16' visibility='default' filepath='libnativehelper/include_jni/jni.h' line='221' column='1'/>
      </data-member>
      <data-member access='public' layout-offset-in-bits='1824'>
        <var-decl name='CallFloatMethodA' type-id='81649ee5' visibility='default' filepath='libnativehelper/include_jni/jni.h' line='222' column='1'/>
      </data-member>
      <data-member access='public' layout-offset-in-bits='1856'>
        <var-decl name='CallDoubleMethod' type-id='1358cb5a' visibility='default' filepath='libnativehelper/include_jni/jni.h' line='223' column='1'/>
      </data-member>
      <data-member access='public' layout-offset-in-bits='1888'>
        <var-decl name='CallDoubleMethodV' type-id='061addf9' visibility='default' filepath='libnativehelper/include_jni/jni.h' line='224' column='1'/>
      </data-member>
      <data-member access='public' layout-offset-in-bits='1920'>
        <var-decl name='CallDoubleMethodA' type-id='cce2541c' visibility='default' filepath='libnativehelper/include_jni/jni.h' line='225' column='1'/>
      </data-member>
      <data-member access='public' layout-offset-in-bits='1952'>
        <var-decl name='CallVoidMethod' type-id='d4f446a9' visibility='default' filepath='libnativehelper/include_jni/jni.h' line='226' column='1'/>
      </data-member>
      <data-member access='public' layout-offset-in-bits='1984'>
        <var-decl name='CallVoidMethodV' type-id='72df644c' visibility='default' filepath='libnativehelper/include_jni/jni.h' line='227' column='1'/>
      </data-member>
      <data-member access='public' layout-offset-in-bits='2016'>
        <var-decl name='CallVoidMethodA' type-id='7359e10f' visibility='default' filepath='libnativehelper/include_jni/jni.h' line='228' column='1'/>
      </data-member>
      <data-member access='public' layout-offset-in-bits='2048'>
        <var-decl name='CallNonvirtualObjectMethod' type-id='36fdf2f2' visibility='default' filepath='libnativehelper/include_jni/jni.h' line='230' column='1'/>
      </data-member>
      <data-member access='public' layout-offset-in-bits='2080'>
        <var-decl name='CallNonvirtualObjectMethodV' type-id='671a4cc1' visibility='default' filepath='libnativehelper/include_jni/jni.h' line='232' column='1'/>
      </data-member>
      <data-member access='public' layout-offset-in-bits='2112'>
        <var-decl name='CallNonvirtualObjectMethodA' type-id='75e166e4' visibility='default' filepath='libnativehelper/include_jni/jni.h' line='234' column='1'/>
      </data-member>
      <data-member access='public' layout-offset-in-bits='2144'>
        <var-decl name='CallNonvirtualBooleanMethod' type-id='911bafcf' visibility='default' filepath='libnativehelper/include_jni/jni.h' line='236' column='1'/>
      </data-member>
      <data-member access='public' layout-offset-in-bits='2176'>
        <var-decl name='CallNonvirtualBooleanMethodV' type-id='5502cec6' visibility='default' filepath='libnativehelper/include_jni/jni.h' line='238' column='1'/>
      </data-member>
      <data-member access='public' layout-offset-in-bits='2208'>
        <var-decl name='CallNonvirtualBooleanMethodA' type-id='632958b5' visibility='default' filepath='libnativehelper/include_jni/jni.h' line='240' column='1'/>
      </data-member>
      <data-member access='public' layout-offset-in-bits='2240'>
        <var-decl name='CallNonvirtualByteMethod' type-id='c5080c6e' visibility='default' filepath='libnativehelper/include_jni/jni.h' line='242' column='1'/>
      </data-member>
      <data-member access='public' layout-offset-in-bits='2272'>
        <var-decl name='CallNonvirtualByteMethodV' type-id='ac33c16d' visibility='default' filepath='libnativehelper/include_jni/jni.h' line='244' column='1'/>
      </data-member>
      <data-member access='public' layout-offset-in-bits='2304'>
        <var-decl name='CallNonvirtualByteMethodA' type-id='3f53da28' visibility='default' filepath='libnativehelper/include_jni/jni.h' line='246' column='1'/>
      </data-member>
      <data-member access='public' layout-offset-in-bits='2336'>
        <var-decl name='CallNonvirtualCharMethod' type-id='d3d606ba' visibility='default' filepath='libnativehelper/include_jni/jni.h' line='248' column='1'/>
      </data-member>
      <data-member access='public' layout-offset-in-bits='2368'>
        <var-decl name='CallNonvirtualCharMethodV' type-id='e202bf99' visibility='default' filepath='libnativehelper/include_jni/jni.h' line='250' column='1'/>
      </data-member>
      <data-member access='public' layout-offset-in-bits='2400'>
        <var-decl name='CallNonvirtualCharMethodA' type-id='429f83fc' visibility='default' filepath='libnativehelper/include_jni/jni.h' line='252' column='1'/>
      </data-member>
      <data-member access='public' layout-offset-in-bits='2432'>
        <var-decl name='CallNonvirtualShortMethod' type-id='cab20a87' visibility='default' filepath='libnativehelper/include_jni/jni.h' line='254' column='1'/>
      </data-member>
      <data-member access='public' layout-offset-in-bits='2464'>
        <var-decl name='CallNonvirtualShortMethodV' type-id='5b336a8e' visibility='default' filepath='libnativehelper/include_jni/jni.h' line='256' column='1'/>
      </data-member>
      <data-member access='public' layout-offset-in-bits='2496'>
        <var-decl name='CallNonvirtualShortMethodA' type-id='5b8df47d' visibility='default' filepath='libnativehelper/include_jni/jni.h' line='258' column='1'/>
      </data-member>
      <data-member access='public' layout-offset-in-bits='2528'>
        <var-decl name='CallNonvirtualIntMethod' type-id='cab20a88' visibility='default' filepath='libnativehelper/include_jni/jni.h' line='260' column='1'/>
      </data-member>
      <data-member access='public' layout-offset-in-bits='2560'>
        <var-decl name='CallNonvirtualIntMethodV' type-id='5b336a8f' visibility='default' filepath='libnativehelper/include_jni/jni.h' line='262' column='1'/>
      </data-member>
      <data-member access='public' layout-offset-in-bits='2592'>
        <var-decl name='CallNonvirtualIntMethodA' type-id='5b8df47e' visibility='default' filepath='libnativehelper/include_jni/jni.h' line='264' column='1'/>
      </data-member>
      <data-member access='public' layout-offset-in-bits='2624'>
        <var-decl name='CallNonvirtualLongMethod' type-id='cab20a89' visibility='default' filepath='libnativehelper/include_jni/jni.h' line='266' column='1'/>
      </data-member>
      <data-member access='public' layout-offset-in-bits='2656'>
        <var-decl name='CallNonvirtualLongMethodV' type-id='5b336a90' visibility='default' filepath='libnativehelper/include_jni/jni.h' line='268' column='1'/>
      </data-member>
      <data-member access='public' layout-offset-in-bits='2688'>
        <var-decl name='CallNonvirtualLongMethodA' type-id='5b8df47f' visibility='default' filepath='libnativehelper/include_jni/jni.h' line='270' column='1'/>
      </data-member>
      <data-member access='public' layout-offset-in-bits='2720'>
        <var-decl name='CallNonvirtualFloatMethod' type-id='6a09952c' visibility='default' filepath='libnativehelper/include_jni/jni.h' line='272' column='1'/>
      </data-member>
      <data-member access='public' layout-offset-in-bits='2752'>
        <var-decl name='CallNonvirtualFloatMethodV' type-id='286f4f27' visibility='default' filepath='libnativehelper/include_jni/jni.h' line='274' column='1'/>
      </data-member>
      <data-member access='public' layout-offset-in-bits='2784'>
        <var-decl name='CallNonvirtualFloatMethodA' type-id='34d95ce6' visibility='default' filepath='libnativehelper/include_jni/jni.h' line='276' column='1'/>
      </data-member>
      <data-member access='public' layout-offset-in-bits='2816'>
        <var-decl name='CallNonvirtualDoubleMethod' type-id='81941e91' visibility='default' filepath='libnativehelper/include_jni/jni.h' line='278' column='1'/>
      </data-member>
      <data-member access='public' layout-offset-in-bits='2848'>
        <var-decl name='CallNonvirtualDoubleMethodV' type-id='57f14084' visibility='default' filepath='libnativehelper/include_jni/jni.h' line='280' column='1'/>
      </data-member>
      <data-member access='public' layout-offset-in-bits='2880'>
        <var-decl name='CallNonvirtualDoubleMethodA' type-id='06ef81e7' visibility='default' filepath='libnativehelper/include_jni/jni.h' line='282' column='1'/>
      </data-member>
      <data-member access='public' layout-offset-in-bits='2912'>
        <var-decl name='CallNonvirtualVoidMethod' type-id='f1b14db6' visibility='default' filepath='libnativehelper/include_jni/jni.h' line='284' column='1'/>
      </data-member>
      <data-member access='public' layout-offset-in-bits='2944'>
        <var-decl name='CallNonvirtualVoidMethodV' type-id='e25f48c5' visibility='default' filepath='libnativehelper/include_jni/jni.h' line='286' column='1'/>
      </data-member>
      <data-member access='public' layout-offset-in-bits='2976'>
        <var-decl name='CallNonvirtualVoidMethodA' type-id='59a4a320' visibility='default' filepath='libnativehelper/include_jni/jni.h' line='288' column='1'/>
      </data-member>
      <data-member access='public' layout-offset-in-bits='3008'>
        <var-decl name='GetFieldID' type-id='700bfd71' visibility='default' filepath='libnativehelper/include_jni/jni.h' line='291' column='1'/>
      </data-member>
      <data-member access='public' layout-offset-in-bits='3040'>
        <var-decl name='GetObjectField' type-id='676c304c' visibility='default' filepath='libnativehelper/include_jni/jni.h' line='293' column='1'/>
      </data-member>
      <data-member access='public' layout-offset-in-bits='3072'>
        <var-decl name='GetBooleanField' type-id='afd19731' visibility='default' filepath='libnativehelper/include_jni/jni.h' line='294' column='1'/>
      </data-member>
      <data-member access='public' layout-offset-in-bits='3104'>
        <var-decl name='GetByteField' type-id='be83b1c0' visibility='default' filepath='libnativehelper/include_jni/jni.h' line='295' column='1'/>
      </data-member>
      <data-member access='public' layout-offset-in-bits='3136'>
        <var-decl name='GetCharField' type-id='5b2401a4' visibility='default' filepath='libnativehelper/include_jni/jni.h' line='296' column='1'/>
      </data-member>
      <data-member access='public' layout-offset-in-bits='3168'>
        <var-decl name='GetShortField' type-id='d9547e19' visibility='default' filepath='libnativehelper/include_jni/jni.h' line='297' column='1'/>
      </data-member>
      <data-member access='public' layout-offset-in-bits='3200'>
        <var-decl name='GetIntField' type-id='d9547e1a' visibility='default' filepath='libnativehelper/include_jni/jni.h' line='298' column='1'/>
      </data-member>
      <data-member access='public' layout-offset-in-bits='3232'>
        <var-decl name='GetLongField' type-id='d9547e1b' visibility='default' filepath='libnativehelper/include_jni/jni.h' line='299' column='1'/>
      </data-member>
      <data-member access='public' layout-offset-in-bits='3264'>
        <var-decl name='GetFloatField' type-id='45f30d62' visibility='default' filepath='libnativehelper/include_jni/jni.h' line='300' column='1'/>
      </data-member>
      <data-member access='public' layout-offset-in-bits='3296'>
        <var-decl name='GetDoubleField' type-id='a737306f' visibility='default' filepath='libnativehelper/include_jni/jni.h' line='301' column='1'/>
      </data-member>
      <data-member access='public' layout-offset-in-bits='3328'>
        <var-decl name='SetObjectField' type-id='bc60df5e' visibility='default' filepath='libnativehelper/include_jni/jni.h' line='303' column='1'/>
      </data-member>
      <data-member access='public' layout-offset-in-bits='3360'>
        <var-decl name='SetBooleanField' type-id='9af031fb' visibility='default' filepath='libnativehelper/include_jni/jni.h' line='304' column='1'/>
      </data-member>
      <data-member access='public' layout-offset-in-bits='3392'>
        <var-decl name='SetByteField' type-id='ffc17d12' visibility='default' filepath='libnativehelper/include_jni/jni.h' line='305' column='1'/>
      </data-member>
      <data-member access='public' layout-offset-in-bits='3424'>
        <var-decl name='SetCharField' type-id='e9d4d69a' visibility='default' filepath='libnativehelper/include_jni/jni.h' line='306' column='1'/>
      </data-member>
      <data-member access='public' layout-offset-in-bits='3456'>
        <var-decl name='SetShortField' type-id='aa5e90a7' visibility='default' filepath='libnativehelper/include_jni/jni.h' line='307' column='1'/>
      </data-member>
      <data-member access='public' layout-offset-in-bits='3488'>
        <var-decl name='SetIntField' type-id='aa5e90a8' visibility='default' filepath='libnativehelper/include_jni/jni.h' line='308' column='1'/>
      </data-member>
      <data-member access='public' layout-offset-in-bits='3520'>
        <var-decl name='SetLongField' type-id='aa5e90a9' visibility='default' filepath='libnativehelper/include_jni/jni.h' line='309' column='1'/>
      </data-member>
      <data-member access='public' layout-offset-in-bits='3552'>
        <var-decl name='SetFloatField' type-id='d69f3378' visibility='default' filepath='libnativehelper/include_jni/jni.h' line='310' column='1'/>
      </data-member>
      <data-member access='public' layout-offset-in-bits='3584'>
        <var-decl name='SetDoubleField' type-id='fcbe15c5' visibility='default' filepath='libnativehelper/include_jni/jni.h' line='311' column='1'/>
      </data-member>
      <data-member access='public' layout-offset-in-bits='3616'>
        <var-decl name='GetStaticMethodID' type-id='7b39afc8' visibility='default' filepath='libnativehelper/include_jni/jni.h' line='313' column='1'/>
      </data-member>
      <data-member access='public' layout-offset-in-bits='3648'>
        <var-decl name='CallStaticObjectMethod' type-id='260c4c40' visibility='default' filepath='libnativehelper/include_jni/jni.h' line='315' column='1'/>
      </data-member>
      <data-member access='public' layout-offset-in-bits='3680'>
        <var-decl name='CallStaticObjectMethodV' type-id='775787db' visibility='default' filepath='libnativehelper/include_jni/jni.h' line='316' column='1'/>
      </data-member>
      <data-member access='public' layout-offset-in-bits='3712'>
        <var-decl name='CallStaticObjectMethodA' type-id='38637da2' visibility='default' filepath='libnativehelper/include_jni/jni.h' line='317' column='1'/>
      </data-member>
      <data-member access='public' layout-offset-in-bits='3744'>
        <var-decl name='CallStaticBooleanMethod' type-id='59816c03' visibility='default' filepath='libnativehelper/include_jni/jni.h' line='318' column='1'/>
      </data-member>
      <data-member access='public' layout-offset-in-bits='3776'>
        <var-decl name='CallStaticBooleanMethodV' type-id='46959e4a' visibility='default' filepath='libnativehelper/include_jni/jni.h' line='319' column='1'/>
      </data-member>
      <data-member access='public' layout-offset-in-bits='3808'>
        <var-decl name='CallStaticBooleanMethodA' type-id='4a68d231' visibility='default' filepath='libnativehelper/include_jni/jni.h' line='321' column='1'/>
      </data-member>
      <data-member access='public' layout-offset-in-bits='3840'>
        <var-decl name='CallStaticByteMethod' type-id='dbd5502c' visibility='default' filepath='libnativehelper/include_jni/jni.h' line='322' column='1'/>
      </data-member>
      <data-member access='public' layout-offset-in-bits='3872'>
        <var-decl name='CallStaticByteMethodV' type-id='4602a027' visibility='default' filepath='libnativehelper/include_jni/jni.h' line='323' column='1'/>
      </data-member>
      <data-member access='public' layout-offset-in-bits='3904'>
        <var-decl name='CallStaticByteMethodA' type-id='39e07fe6' visibility='default' filepath='libnativehelper/include_jni/jni.h' line='324' column='1'/>
      </data-member>
      <data-member access='public' layout-offset-in-bits='3936'>
        <var-decl name='CallStaticCharMethod' type-id='7cc5a858' visibility='default' filepath='libnativehelper/include_jni/jni.h' line='325' column='1'/>
      </data-member>
      <data-member access='public' layout-offset-in-bits='3968'>
        <var-decl name='CallStaticCharMethodV' type-id='8212a383' visibility='default' filepath='libnativehelper/include_jni/jni.h' line='326' column='1'/>
      </data-member>
      <data-member access='public' layout-offset-in-bits='4000'>
        <var-decl name='CallStaticCharMethodA' type-id='5316a70a' visibility='default' filepath='libnativehelper/include_jni/jni.h' line='327' column='1'/>
      </data-member>
      <data-member access='public' layout-offset-in-bits='4032'>
        <var-decl name='CallStaticShortMethod' type-id='4442688b' visibility='default' filepath='libnativehelper/include_jni/jni.h' line='328' column='1'/>
      </data-member>
      <data-member access='public' layout-offset-in-bits='4064'>
        <var-decl name='CallStaticShortMethodV' type-id='2b6dfd02' visibility='default' filepath='libnativehelper/include_jni/jni.h' line='329' column='1'/>
      </data-member>
      <data-member access='public' layout-offset-in-bits='4096'>
        <var-decl name='CallStaticShortMethodA' type-id='8394b669' visibility='default' filepath='libnativehelper/include_jni/jni.h' line='330' column='1'/>
      </data-member>
      <data-member access='public' layout-offset-in-bits='4128'>
        <var-decl name='CallStaticIntMethod' type-id='4442688c' visibility='default' filepath='libnativehelper/include_jni/jni.h' line='331' column='1'/>
      </data-member>
      <data-member access='public' layout-offset-in-bits='4160'>
        <var-decl name='CallStaticIntMethodV' type-id='2b6dfd03' visibility='default' filepath='libnativehelper/include_jni/jni.h' line='332' column='1'/>
      </data-member>
      <data-member access='public' layout-offset-in-bits='4192'>
        <var-decl name='CallStaticIntMethodA' type-id='8394b66a' visibility='default' filepath='libnativehelper/include_jni/jni.h' line='333' column='1'/>
      </data-member>
      <data-member access='public' layout-offset-in-bits='4224'>
        <var-decl name='CallStaticLongMethod' type-id='4442688d' visibility='default' filepath='libnativehelper/include_jni/jni.h' line='334' column='1'/>
      </data-member>
      <data-member access='public' layout-offset-in-bits='4256'>
        <var-decl name='CallStaticLongMethodV' type-id='2b6dfd04' visibility='default' filepath='libnativehelper/include_jni/jni.h' line='335' column='1'/>
      </data-member>
      <data-member access='public' layout-offset-in-bits='4288'>
        <var-decl name='CallStaticLongMethodA' type-id='8394b66b' visibility='default' filepath='libnativehelper/include_jni/jni.h' line='336' column='1'/>
      </data-member>
      <data-member access='public' layout-offset-in-bits='4320'>
        <var-decl name='CallStaticFloatMethod' type-id='b540af52' visibility='default' filepath='libnativehelper/include_jni/jni.h' line='337' column='1'/>
      </data-member>
      <data-member access='public' layout-offset-in-bits='4352'>
        <var-decl name='CallStaticFloatMethodV' type-id='aaed3ee1' visibility='default' filepath='libnativehelper/include_jni/jni.h' line='338' column='1'/>
      </data-member>
      <data-member access='public' layout-offset-in-bits='4384'>
        <var-decl name='CallStaticFloatMethodA' type-id='e8cbc4c4' visibility='default' filepath='libnativehelper/include_jni/jni.h' line='339' column='1'/>
      </data-member>
      <data-member access='public' layout-offset-in-bits='4416'>
        <var-decl name='CallStaticDoubleMethod' type-id='56da0ded' visibility='default' filepath='libnativehelper/include_jni/jni.h' line='340' column='1'/>
      </data-member>
      <data-member access='public' layout-offset-in-bits='4448'>
        <var-decl name='CallStaticDoubleMethodV' type-id='4d96d680' visibility='default' filepath='libnativehelper/include_jni/jni.h' line='341' column='1'/>
      </data-member>
      <data-member access='public' layout-offset-in-bits='4480'>
        <var-decl name='CallStaticDoubleMethodA' type-id='fcb05c6b' visibility='default' filepath='libnativehelper/include_jni/jni.h' line='342' column='1'/>
      </data-member>
      <data-member access='public' layout-offset-in-bits='4512'>
        <var-decl name='CallStaticVoidMethod' type-id='35958544' visibility='default' filepath='libnativehelper/include_jni/jni.h' line='343' column='1'/>
      </data-member>
      <data-member access='public' layout-offset-in-bits='4544'>
        <var-decl name='CallStaticVoidMethodV' type-id='063cc4af' visibility='default' filepath='libnativehelper/include_jni/jni.h' line='344' column='1'/>
      </data-member>
      <data-member access='public' layout-offset-in-bits='4576'>
        <var-decl name='CallStaticVoidMethodA' type-id='7399468e' visibility='default' filepath='libnativehelper/include_jni/jni.h' line='345' column='1'/>
      </data-member>
      <data-member access='public' layout-offset-in-bits='4608'>
        <var-decl name='GetStaticFieldID' type-id='700bfd71' visibility='default' filepath='libnativehelper/include_jni/jni.h' line='347' column='1'/>
      </data-member>
      <data-member access='public' layout-offset-in-bits='4640'>
        <var-decl name='GetStaticObjectField' type-id='4bcddc31' visibility='default' filepath='libnativehelper/include_jni/jni.h' line='350' column='1'/>
      </data-member>
      <data-member access='public' layout-offset-in-bits='4672'>
        <var-decl name='GetStaticBooleanField' type-id='c61bcf16' visibility='default' filepath='libnativehelper/include_jni/jni.h' line='351' column='1'/>
      </data-member>
      <data-member access='public' layout-offset-in-bits='4704'>
        <var-decl name='GetStaticByteField' type-id='f02d21bd' visibility='default' filepath='libnativehelper/include_jni/jni.h' line='352' column='1'/>
      </data-member>
      <data-member access='public' layout-offset-in-bits='4736'>
        <var-decl name='GetStaticCharField' type-id='3a544209' visibility='default' filepath='libnativehelper/include_jni/jni.h' line='353' column='1'/>
      </data-member>
      <data-member access='public' layout-offset-in-bits='4768'>
        <var-decl name='GetStaticShortField' type-id='826b5ede' visibility='default' filepath='libnativehelper/include_jni/jni.h' line='354' column='1'/>
      </data-member>
      <data-member access='public' layout-offset-in-bits='4800'>
        <var-decl name='GetStaticIntField' type-id='826b5edf' visibility='default' filepath='libnativehelper/include_jni/jni.h' line='355' column='1'/>
      </data-member>
      <data-member access='public' layout-offset-in-bits='4832'>
        <var-decl name='GetStaticLongField' type-id='826b5ee0' visibility='default' filepath='libnativehelper/include_jni/jni.h' line='356' column='1'/>
      </data-member>
      <data-member access='public' layout-offset-in-bits='4864'>
        <var-decl name='GetStaticFloatField' type-id='2525f167' visibility='default' filepath='libnativehelper/include_jni/jni.h' line='357' column='1'/>
      </data-member>
      <data-member access='public' layout-offset-in-bits='4896'>
        <var-decl name='GetStaticDoubleField' type-id='8820c0ac' visibility='default' filepath='libnativehelper/include_jni/jni.h' line='358' column='1'/>
      </data-member>
      <data-member access='public' layout-offset-in-bits='4928'>
        <var-decl name='SetStaticObjectField' type-id='01a865d1' visibility='default' filepath='libnativehelper/include_jni/jni.h' line='360' column='1'/>
      </data-member>
      <data-member access='public' layout-offset-in-bits='4960'>
        <var-decl name='SetStaticBooleanField' type-id='a1ed8fac' visibility='default' filepath='libnativehelper/include_jni/jni.h' line='361' column='1'/>
      </data-member>
      <data-member access='public' layout-offset-in-bits='4992'>
        <var-decl name='SetStaticByteField' type-id='d5efc015' visibility='default' filepath='libnativehelper/include_jni/jni.h' line='362' column='1'/>
      </data-member>
      <data-member access='public' layout-offset-in-bits='5024'>
        <var-decl name='SetStaticCharField' type-id='400806b7' visibility='default' filepath='libnativehelper/include_jni/jni.h' line='363' column='1'/>
      </data-member>
      <data-member access='public' layout-offset-in-bits='5056'>
        <var-decl name='SetStaticShortField' type-id='48f9101c' visibility='default' filepath='libnativehelper/include_jni/jni.h' line='364' column='1'/>
      </data-member>
      <data-member access='public' layout-offset-in-bits='5088'>
        <var-decl name='SetStaticIntField' type-id='48f9101d' visibility='default' filepath='libnativehelper/include_jni/jni.h' line='365' column='1'/>
      </data-member>
      <data-member access='public' layout-offset-in-bits='5120'>
        <var-decl name='SetStaticLongField' type-id='48f9101e' visibility='default' filepath='libnativehelper/include_jni/jni.h' line='366' column='1'/>
      </data-member>
      <data-member access='public' layout-offset-in-bits='5152'>
        <var-decl name='SetStaticFloatField' type-id='192b003b' visibility='default' filepath='libnativehelper/include_jni/jni.h' line='367' column='1'/>
      </data-member>
      <data-member access='public' layout-offset-in-bits='5184'>
        <var-decl name='SetStaticDoubleField' type-id='6c7c35c0' visibility='default' filepath='libnativehelper/include_jni/jni.h' line='368' column='1'/>
      </data-member>
      <data-member access='public' layout-offset-in-bits='5216'>
        <var-decl name='NewString' type-id='21ec59f0' visibility='default' filepath='libnativehelper/include_jni/jni.h' line='370' column='1'/>
      </data-member>
      <data-member access='public' layout-offset-in-bits='5248'>
        <var-decl name='GetStringLength' type-id='814cad27' visibility='default' filepath='libnativehelper/include_jni/jni.h' line='371' column='1'/>
      </data-member>
      <data-member access='public' layout-offset-in-bits='5280'>
        <var-decl name='GetStringChars' type-id='a4d189fd' visibility='default' filepath='libnativehelper/include_jni/jni.h' line='372' column='1'/>
      </data-member>
      <data-member access='public' layout-offset-in-bits='5312'>
        <var-decl name='ReleaseStringChars' type-id='6fd868db' visibility='default' filepath='libnativehelper/include_jni/jni.h' line='373' column='1'/>
      </data-member>
      <data-member access='public' layout-offset-in-bits='5344'>
        <var-decl name='NewStringUTF' type-id='629338b7' visibility='default' filepath='libnativehelper/include_jni/jni.h' line='374' column='1'/>
      </data-member>
      <data-member access='public' layout-offset-in-bits='5376'>
        <var-decl name='GetStringUTFLength' type-id='814cad27' visibility='default' filepath='libnativehelper/include_jni/jni.h' line='375' column='1'/>
      </data-member>
      <data-member access='public' layout-offset-in-bits='5408'>
        <var-decl name='GetStringUTFChars' type-id='653ec4e7' visibility='default' filepath='libnativehelper/include_jni/jni.h' line='377' column='1'/>
      </data-member>
      <data-member access='public' layout-offset-in-bits='5440'>
        <var-decl name='ReleaseStringUTFChars' type-id='f48e25c1' visibility='default' filepath='libnativehelper/include_jni/jni.h' line='378' column='1'/>
      </data-member>
      <data-member access='public' layout-offset-in-bits='5472'>
        <var-decl name='GetArrayLength' type-id='3c0c03e5' visibility='default' filepath='libnativehelper/include_jni/jni.h' line='379' column='1'/>
      </data-member>
      <data-member access='public' layout-offset-in-bits='5504'>
        <var-decl name='NewObjectArray' type-id='3a73b9e7' visibility='default' filepath='libnativehelper/include_jni/jni.h' line='380' column='1'/>
      </data-member>
      <data-member access='public' layout-offset-in-bits='5536'>
        <var-decl name='GetObjectArrayElement' type-id='3426ab68' visibility='default' filepath='libnativehelper/include_jni/jni.h' line='381' column='1'/>
      </data-member>
      <data-member access='public' layout-offset-in-bits='5568'>
        <var-decl name='SetObjectArrayElement' type-id='177b60ba' visibility='default' filepath='libnativehelper/include_jni/jni.h' line='382' column='1'/>
      </data-member>
      <data-member access='public' layout-offset-in-bits='5600'>
        <var-decl name='NewBooleanArray' type-id='2ab62f6f' visibility='default' filepath='libnativehelper/include_jni/jni.h' line='384' column='1'/>
      </data-member>
      <data-member access='public' layout-offset-in-bits='5632'>
        <var-decl name='NewByteArray' type-id='2dc018ad' visibility='default' filepath='libnativehelper/include_jni/jni.h' line='385' column='1'/>
      </data-member>
      <data-member access='public' layout-offset-in-bits='5664'>
        <var-decl name='NewCharArray' type-id='843cef5f' visibility='default' filepath='libnativehelper/include_jni/jni.h' line='386' column='1'/>
      </data-member>
      <data-member access='public' layout-offset-in-bits='5696'>
        <var-decl name='NewShortArray' type-id='730c485d' visibility='default' filepath='libnativehelper/include_jni/jni.h' line='387' column='1'/>
      </data-member>
      <data-member access='public' layout-offset-in-bits='5728'>
        <var-decl name='NewIntArray' type-id='87d7d6ca' visibility='default' filepath='libnativehelper/include_jni/jni.h' line='388' column='1'/>
      </data-member>
      <data-member access='public' layout-offset-in-bits='5760'>
        <var-decl name='NewLongArray' type-id='adc7abf9' visibility='default' filepath='libnativehelper/include_jni/jni.h' line='389' column='1'/>
      </data-member>
      <data-member access='public' layout-offset-in-bits='5792'>
        <var-decl name='NewFloatArray' type-id='8fe62605' visibility='default' filepath='libnativehelper/include_jni/jni.h' line='390' column='1'/>
      </data-member>
      <data-member access='public' layout-offset-in-bits='5824'>
        <var-decl name='NewDoubleArray' type-id='ef68ddae' visibility='default' filepath='libnativehelper/include_jni/jni.h' line='391' column='1'/>
      </data-member>
      <data-member access='public' layout-offset-in-bits='5856'>
        <var-decl name='GetBooleanArrayElements' type-id='03556b0c' visibility='default' filepath='libnativehelper/include_jni/jni.h' line='393' column='1'/>
      </data-member>
      <data-member access='public' layout-offset-in-bits='5888'>
        <var-decl name='GetByteArrayElements' type-id='bec89ede' visibility='default' filepath='libnativehelper/include_jni/jni.h' line='394' column='1'/>
      </data-member>
      <data-member access='public' layout-offset-in-bits='5920'>
        <var-decl name='GetCharArrayElements' type-id='679b55be' visibility='default' filepath='libnativehelper/include_jni/jni.h' line='395' column='1'/>
      </data-member>
      <data-member access='public' layout-offset-in-bits='5952'>
        <var-decl name='GetShortArrayElements' type-id='80456268' visibility='default' filepath='libnativehelper/include_jni/jni.h' line='396' column='1'/>
      </data-member>
      <data-member access='public' layout-offset-in-bits='5984'>
        <var-decl name='GetIntArrayElements' type-id='7b7de9b2' visibility='default' filepath='libnativehelper/include_jni/jni.h' line='397' column='1'/>
      </data-member>
      <data-member access='public' layout-offset-in-bits='6016'>
        <var-decl name='GetLongArrayElements' type-id='20c01846' visibility='default' filepath='libnativehelper/include_jni/jni.h' line='398' column='1'/>
      </data-member>
      <data-member access='public' layout-offset-in-bits='6048'>
        <var-decl name='GetFloatArrayElements' type-id='190d83bc' visibility='default' filepath='libnativehelper/include_jni/jni.h' line='399' column='1'/>
      </data-member>
      <data-member access='public' layout-offset-in-bits='6080'>
        <var-decl name='GetDoubleArrayElements' type-id='8fb656fe' visibility='default' filepath='libnativehelper/include_jni/jni.h' line='400' column='1'/>
      </data-member>
      <data-member access='public' layout-offset-in-bits='6112'>
        <var-decl name='ReleaseBooleanArrayElements' type-id='69aab5c3' visibility='default' filepath='libnativehelper/include_jni/jni.h' line='402' column='1'/>
      </data-member>
      <data-member access='public' layout-offset-in-bits='6144'>
        <var-decl name='ReleaseByteArrayElements' type-id='6d8c64bd' visibility='default' filepath='libnativehelper/include_jni/jni.h' line='404' column='1'/>
      </data-member>
      <data-member access='public' layout-offset-in-bits='6176'>
        <var-decl name='ReleaseCharArrayElements' type-id='0f8e37bd' visibility='default' filepath='libnativehelper/include_jni/jni.h' line='406' column='1'/>
      </data-member>
      <data-member access='public' layout-offset-in-bits='6208'>
        <var-decl name='ReleaseShortArrayElements' type-id='89ccc593' visibility='default' filepath='libnativehelper/include_jni/jni.h' line='408' column='1'/>
      </data-member>
      <data-member access='public' layout-offset-in-bits='6240'>
        <var-decl name='ReleaseIntArrayElements' type-id='66b73f2f' visibility='default' filepath='libnativehelper/include_jni/jni.h' line='410' column='1'/>
      </data-member>
      <data-member access='public' layout-offset-in-bits='6272'>
        <var-decl name='ReleaseLongArrayElements' type-id='4ae3250d' visibility='default' filepath='libnativehelper/include_jni/jni.h' line='412' column='1'/>
      </data-member>
      <data-member access='public' layout-offset-in-bits='6304'>
        <var-decl name='ReleaseFloatArrayElements' type-id='298dc3b7' visibility='default' filepath='libnativehelper/include_jni/jni.h' line='414' column='1'/>
      </data-member>
      <data-member access='public' layout-offset-in-bits='6336'>
        <var-decl name='ReleaseDoubleArrayElements' type-id='db388837' visibility='default' filepath='libnativehelper/include_jni/jni.h' line='416' column='1'/>
      </data-member>
      <data-member access='public' layout-offset-in-bits='6368'>
        <var-decl name='GetBooleanArrayRegion' type-id='fbe0c9de' visibility='default' filepath='libnativehelper/include_jni/jni.h' line='419' column='1'/>
      </data-member>
      <data-member access='public' layout-offset-in-bits='6400'>
        <var-decl name='GetByteArrayRegion' type-id='5bf36468' visibility='default' filepath='libnativehelper/include_jni/jni.h' line='421' column='1'/>
      </data-member>
      <data-member access='public' layout-offset-in-bits='6432'>
        <var-decl name='GetCharArrayRegion' type-id='730be8b4' visibility='default' filepath='libnativehelper/include_jni/jni.h' line='423' column='1'/>
      </data-member>
      <data-member access='public' layout-offset-in-bits='6464'>
        <var-decl name='GetShortArrayRegion' type-id='b95eace2' visibility='default' filepath='libnativehelper/include_jni/jni.h' line='425' column='1'/>
      </data-member>
      <data-member access='public' layout-offset-in-bits='6496'>
        <var-decl name='GetIntArrayRegion' type-id='6bc23226' visibility='default' filepath='libnativehelper/include_jni/jni.h' line='427' column='1'/>
      </data-member>
      <data-member access='public' layout-offset-in-bits='6528'>
        <var-decl name='GetLongArrayRegion' type-id='ad1ea7c0' visibility='default' filepath='libnativehelper/include_jni/jni.h' line='429' column='1'/>
      </data-member>
      <data-member access='public' layout-offset-in-bits='6560'>
        <var-decl name='GetFloatArrayRegion' type-id='eb01d38a' visibility='default' filepath='libnativehelper/include_jni/jni.h' line='431' column='1'/>
      </data-member>
      <data-member access='public' layout-offset-in-bits='6592'>
        <var-decl name='GetDoubleArrayRegion' type-id='fd9a9816' visibility='default' filepath='libnativehelper/include_jni/jni.h' line='433' column='1'/>
      </data-member>
      <data-member access='public' layout-offset-in-bits='6624'>
        <var-decl name='SetBooleanArrayRegion' type-id='08a2f0e1' visibility='default' filepath='libnativehelper/include_jni/jni.h' line='437' column='1'/>
      </data-member>
      <data-member access='public' layout-offset-in-bits='6656'>
        <var-decl name='SetByteArrayRegion' type-id='3b7e394d' visibility='default' filepath='libnativehelper/include_jni/jni.h' line='439' column='1'/>
      </data-member>
      <data-member access='public' layout-offset-in-bits='6688'>
        <var-decl name='SetCharArrayRegion' type-id='dc329231' visibility='default' filepath='libnativehelper/include_jni/jni.h' line='441' column='1'/>
      </data-member>
      <data-member access='public' layout-offset-in-bits='6720'>
        <var-decl name='SetShortArrayRegion' type-id='5fc46b11' visibility='default' filepath='libnativehelper/include_jni/jni.h' line='443' column='1'/>
      </data-member>
      <data-member access='public' layout-offset-in-bits='6752'>
        <var-decl name='SetIntArrayRegion' type-id='fa46db69' visibility='default' filepath='libnativehelper/include_jni/jni.h' line='445' column='1'/>
      </data-member>
      <data-member access='public' layout-offset-in-bits='6784'>
        <var-decl name='SetLongArrayRegion' type-id='ebf40e2d' visibility='default' filepath='libnativehelper/include_jni/jni.h' line='447' column='1'/>
      </data-member>
      <data-member access='public' layout-offset-in-bits='6816'>
        <var-decl name='SetFloatArrayRegion' type-id='9990734d' visibility='default' filepath='libnativehelper/include_jni/jni.h' line='449' column='1'/>
      </data-member>
      <data-member access='public' layout-offset-in-bits='6848'>
        <var-decl name='SetDoubleArrayRegion' type-id='977cec7b' visibility='default' filepath='libnativehelper/include_jni/jni.h' line='451' column='1'/>
      </data-member>
      <data-member access='public' layout-offset-in-bits='6880'>
        <var-decl name='RegisterNatives' type-id='dfa383fd' visibility='default' filepath='libnativehelper/include_jni/jni.h' line='454' column='1'/>
      </data-member>
      <data-member access='public' layout-offset-in-bits='6912'>
        <var-decl name='UnregisterNatives' type-id='55811db2' visibility='default' filepath='libnativehelper/include_jni/jni.h' line='456' column='1'/>
      </data-member>
      <data-member access='public' layout-offset-in-bits='6944'>
        <var-decl name='MonitorEnter' type-id='7a154085' visibility='default' filepath='libnativehelper/include_jni/jni.h' line='457' column='1'/>
      </data-member>
      <data-member access='public' layout-offset-in-bits='6976'>
        <var-decl name='MonitorExit' type-id='7a154085' visibility='default' filepath='libnativehelper/include_jni/jni.h' line='458' column='1'/>
      </data-member>
      <data-member access='public' layout-offset-in-bits='7008'>
        <var-decl name='GetJavaVM' type-id='a65198e8' visibility='default' filepath='libnativehelper/include_jni/jni.h' line='459' column='1'/>
      </data-member>
      <data-member access='public' layout-offset-in-bits='7040'>
        <var-decl name='GetStringRegion' type-id='7a8e54fc' visibility='default' filepath='libnativehelper/include_jni/jni.h' line='461' column='1'/>
      </data-member>
      <data-member access='public' layout-offset-in-bits='7072'>
        <var-decl name='GetStringUTFRegion' type-id='0a719884' visibility='default' filepath='libnativehelper/include_jni/jni.h' line='462' column='1'/>
      </data-member>
      <data-member access='public' layout-offset-in-bits='7104'>
        <var-decl name='GetPrimitiveArrayCritical' type-id='101b8c80' visibility='default' filepath='libnativehelper/include_jni/jni.h' line='464' column='1'/>
      </data-member>
      <data-member access='public' layout-offset-in-bits='7136'>
        <var-decl name='ReleasePrimitiveArrayCritical' type-id='4382c817' visibility='default' filepath='libnativehelper/include_jni/jni.h' line='465' column='1'/>
      </data-member>
      <data-member access='public' layout-offset-in-bits='7168'>
        <var-decl name='GetStringCritical' type-id='a4d189fd' visibility='default' filepath='libnativehelper/include_jni/jni.h' line='467' column='1'/>
      </data-member>
      <data-member access='public' layout-offset-in-bits='7200'>
        <var-decl name='ReleaseStringCritical' type-id='6fd868db' visibility='default' filepath='libnativehelper/include_jni/jni.h' line='468' column='1'/>
      </data-member>
      <data-member access='public' layout-offset-in-bits='7232'>
        <var-decl name='NewWeakGlobalRef' type-id='f2a57148' visibility='default' filepath='libnativehelper/include_jni/jni.h' line='470' column='1'/>
      </data-member>
      <data-member access='public' layout-offset-in-bits='7264'>
        <var-decl name='DeleteWeakGlobalRef' type-id='43af461c' visibility='default' filepath='libnativehelper/include_jni/jni.h' line='471' column='1'/>
      </data-member>
      <data-member access='public' layout-offset-in-bits='7296'>
        <var-decl name='ExceptionCheck' type-id='22b63871' visibility='default' filepath='libnativehelper/include_jni/jni.h' line='473' column='1'/>
      </data-member>
      <data-member access='public' layout-offset-in-bits='7328'>
        <var-decl name='NewDirectByteBuffer' type-id='e8dccc6b' visibility='default' filepath='libnativehelper/include_jni/jni.h' line='475' column='1'/>
      </data-member>
      <data-member access='public' layout-offset-in-bits='7360'>
        <var-decl name='GetDirectBufferAddress' type-id='4db2cf0c' visibility='default' filepath='libnativehelper/include_jni/jni.h' line='476' column='1'/>
      </data-member>
      <data-member access='public' layout-offset-in-bits='7392'>
        <var-decl name='GetDirectBufferCapacity' type-id='7a154086' visibility='default' filepath='libnativehelper/include_jni/jni.h' line='477' column='1'/>
      </data-member>
      <data-member access='public' layout-offset-in-bits='7424'>
        <var-decl name='GetObjectRefType' type-id='ddfe5d59' visibility='default' filepath='libnativehelper/include_jni/jni.h' line='480' column='1'/>
      </data-member>
    </class-decl>
    <class-decl name='_JNIEnv' size-in-bits='32' is-struct='yes' visibility='default' filepath='libnativehelper/include_jni/jni.h' line='489' column='1' id='c9459134'>
      <data-member access='public' layout-offset-in-bits='0'>
        <var-decl name='functions' type-id='e48f1427' visibility='default' filepath='libnativehelper/include_jni/jni.h' line='491' column='1'/>
      </data-member>
      <member-function access='public'>
        <function-decl name='GetLongField' mangled-name='_ZN7_JNIEnv12GetLongFieldEP8_jobjectP9_jfieldID' filepath='libnativehelper/include_jni/jni.h' line='707' column='1' visibility='default' binding='global' size-in-bits='32'>
          <parameter type-id='71bed232' is-artificial='yes'/>
          <parameter type-id='96f3d089'/>
          <parameter type-id='1f3810cb'/>
          <return type-id='c8745fdc'/>
        </function-decl>
      </member-function>
      <member-function access='public'>
        <function-decl name='IsInstanceOf' mangled-name='_ZN7_JNIEnv12IsInstanceOfEP8_jobjectP7_jclass' filepath='libnativehelper/include_jni/jni.h' line='586' column='1' visibility='default' binding='global' size-in-bits='32'>
          <parameter type-id='71bed232' is-artificial='yes'/>
          <parameter type-id='96f3d089'/>
          <parameter type-id='70de5c42'/>
          <return type-id='cc6e09ca'/>
        </function-decl>
      </member-function>
      <member-function access='public'>
        <function-decl name='CallIntMethod' mangled-name='_ZN7_JNIEnv13CallIntMethodEP8_jobjectP10_jmethodIDz' filepath='libnativehelper/include_jni/jni.h' line='622' column='1' visibility='default' binding='global' size-in-bits='32'>
          <parameter type-id='71bed232' is-artificial='yes'/>
          <parameter type-id='96f3d089'/>
          <parameter type-id='38565182'/>
          <parameter is-variadic='yes'/>
          <return type-id='0b9c02cb'/>
        </function-decl>
      </member-function>
      <member-function access='public'>
        <function-decl name='FindClass' mangled-name='_ZN7_JNIEnv9FindClassEPKc' filepath='libnativehelper/include_jni/jni.h' line='502' column='1' visibility='default' binding='global' size-in-bits='32'>
          <parameter type-id='71bed232' is-artificial='yes'/>
          <parameter type-id='80f4b756'/>
          <return type-id='70de5c42'/>
        </function-decl>
      </member-function>
      <member-function access='public'>
        <function-decl name='NewGlobalRef' mangled-name='_ZN7_JNIEnv12NewGlobalRefEP8_jobject' filepath='libnativehelper/include_jni/jni.h' line='547' column='1' visibility='default' binding='global' size-in-bits='32'>
          <parameter type-id='71bed232' is-artificial='yes'/>
          <parameter type-id='96f3d089'/>
          <return type-id='96f3d089'/>
        </function-decl>
      </member-function>
      <member-function access='public'>
        <function-decl name='GetMethodID' mangled-name='_ZN7_JNIEnv11GetMethodIDEP7_jclassPKcS3_' filepath='libnativehelper/include_jni/jni.h' line='589' column='1' visibility='default' binding='global' size-in-bits='32'>
          <parameter type-id='71bed232' is-artificial='yes'/>
          <parameter type-id='70de5c42'/>
          <parameter type-id='80f4b756'/>
          <parameter type-id='80f4b756'/>
          <return type-id='38565182'/>
        </function-decl>
      </member-function>
    </class-decl>
    <class-decl name='ldiv_t' size-in-bits='64' is-struct='yes' naming-typedef-id='30397bf8' visibility='default' filepath='bionic/libc/include/stdlib.h' line='136' column='1' id='9b5926fd'>
      <data-member access='public' layout-offset-in-bits='0'>
        <var-decl name='quot' type-id='95e97e5f' visibility='default' filepath='bionic/libc/include/stdlib.h' line='137' column='1'/>
      </data-member>
      <data-member access='public' layout-offset-in-bits='32'>
        <var-decl name='rem' type-id='95e97e5f' visibility='default' filepath='bionic/libc/include/stdlib.h' line='138' column='1'/>
      </data-member>
    </class-decl>
    <class-decl name='lldiv_t' size-in-bits='128' is-struct='yes' naming-typedef-id='f5fa3b34' visibility='default' filepath='bionic/libc/include/stdlib.h' line='143' column='1' id='649cba4b'>
      <data-member access='public' layout-offset-in-bits='0'>
        <var-decl name='quot' type-id='95e97e60' visibility='default' filepath='bionic/libc/include/stdlib.h' line='144' column='1'/>
      </data-member>
      <data-member access='public' layout-offset-in-bits='64'>
        <var-decl name='rem' type-id='95e97e60' visibility='default' filepath='bionic/libc/include/stdlib.h' line='145' column='1'/>
      </data-member>
    </class-decl>
    <class-decl name='mbstate_t' size-in-bits='32' is-struct='yes' naming-typedef-id='3d7d8cbf' visibility='default' filepath='bionic/libc/include/bits/mbstate_t.h' line='42' column='1' id='a76d8e48'>
      <data-member access='public' layout-offset-in-bits='0'>
        <var-decl name='__seq' type-id='09001d3c' visibility='default' filepath='bionic/libc/include/bits/mbstate_t.h' line='43' column='1'/>
      </data-member>
    </class-decl>
    <class-decl name='pthread_mutex_t' size-in-bits='32' is-struct='yes' naming-typedef-id='7a6844eb' visibility='default' filepath='bionic/libc/include/bits/pthread_types.h' line='72' column='1' id='92fa54c8'>
      <data-member access='public' layout-offset-in-bits='0'>
        <var-decl name='__private' type-id='e4652d73' visibility='default' filepath='bionic/libc/include/bits/pthread_types.h' line='76' column='1'/>
      </data-member>
    </class-decl>
    <class-decl name='tm' size-in-bits='352' is-struct='yes' visibility='default' filepath='bionic/libc/include/time.h' line='46' column='1' id='dddf6ca2'>
      <data-member access='public' layout-offset-in-bits='0'>
        <var-decl name='tm_sec' type-id='95e97e5e' visibility='default' filepath='bionic/libc/include/time.h' line='47' column='1'/>
      </data-member>
      <data-member access='public' layout-offset-in-bits='32'>
        <var-decl name='tm_min' type-id='95e97e5e' visibility='default' filepath='bionic/libc/include/time.h' line='48' column='1'/>
      </data-member>
      <data-member access='public' layout-offset-in-bits='64'>
        <var-decl name='tm_hour' type-id='95e97e5e' visibility='default' filepath='bionic/libc/include/time.h' line='49' column='1'/>
      </data-member>
      <data-member access='public' layout-offset-in-bits='96'>
        <var-decl name='tm_mday' type-id='95e97e5e' visibility='default' filepath='bionic/libc/include/time.h' line='50' column='1'/>
      </data-member>
      <data-member access='public' layout-offset-in-bits='128'>
        <var-decl name='tm_mon' type-id='95e97e5e' visibility='default' filepath='bionic/libc/include/time.h' line='51' column='1'/>
      </data-member>
      <data-member access='public' layout-offset-in-bits='160'>
        <var-decl name='tm_year' type-id='95e97e5e' visibility='default' filepath='bionic/libc/include/time.h' line='52' column='1'/>
      </data-member>
      <data-member access='public' layout-offset-in-bits='192'>
        <var-decl name='tm_wday' type-id='95e97e5e' visibility='default' filepath='bionic/libc/include/time.h' line='53' column='1'/>
      </data-member>
      <data-member access='public' layout-offset-in-bits='224'>
        <var-decl name='tm_yday' type-id='95e97e5e' visibility='default' filepath='bionic/libc/include/time.h' line='54' column='1'/>
      </data-member>
      <data-member access='public' layout-offset-in-bits='256'>
        <var-decl name='tm_isdst' type-id='95e97e5e' visibility='default' filepath='bionic/libc/include/time.h' line='55' column='1'/>
      </data-member>
      <data-member access='public' layout-offset-in-bits='288'>
        <var-decl name='tm_gmtoff' type-id='95e97e5f' visibility='default' filepath='bionic/libc/include/time.h' line='56' column='1'/>
      </data-member>
      <data-member access='public' layout-offset-in-bits='320'>
        <var-decl name='tm_zone' type-id='80f4b756' visibility='default' filepath='bionic/libc/include/time.h' line='57' column='1'/>
      </data-member>
    </class-decl>
    <typedef-decl name='AAsset' type-id='1fc4034c' filepath='frameworks/native/include/android/asset_manager.h' line='73' column='1' id='d27ea7e1'/>
    <typedef-decl name='AAssetDir' type-id='ea9788c3' filepath='frameworks/native/include/android/asset_manager.h' line='64' column='1' id='e6c9fab0'/>
    <typedef-decl name='AAssetManager' type-id='7907d453' filepath='frameworks/native/include/android/asset_manager.h' line='54' column='1' id='f41387f0'/>
    <typedef-decl name='JNIEnv' type-id='c9459134' filepath='libnativehelper/include_jni/jni.h' line='139' column='1' id='d357872a'/>
    <typedef-decl name='JNINativeMethod' type-id='92fa54c8' filepath='libnativehelper/include_jni/jni.h' line='132' column='1' id='b7b5d51d'/>
    <typedef-decl name='__builtin_va_list' type-id='30357e0a' id='7f896fb4'/>
    <typedef-decl name='__int16_t' type-id='95e97e61' filepath='bionic/libc/include/stdint.h' line='38' column='1' id='03896e23'/>
    <typedef-decl name='__int32_t' type-id='95e97e5e' filepath='bionic/libc/include/stdint.h' line='40' column='1' id='33f57a65'/>
    <typedef-decl name='__int64_t' type-id='95e97e60' filepath='bionic/libc/include/stdint.h' line='46' column='1' id='0c9942d2'/>
    <typedef-decl name='__int8_t' type-id='28577a57' filepath='bionic/libc/include/stdint.h' line='36' column='1' id='2171a512'/>
    <typedef-decl name='__kernel_clock_t' type-id='6a11bd61' filepath='bionic/libc/kernel/uapi/asm-generic/posix_types.h' line='80' column='1' id='880ebc01'/>
    <typedef-decl name='__kernel_loff_t' type-id='95e97e60' filepath='bionic/libc/kernel/uapi/asm-generic/posix_types.h' line='76' column='1' id='537a730e'/>
    <typedef-decl name='__kernel_long_t' type-id='95e97e5f' filepath='bionic/libc/kernel/uapi/asm-generic/posix_types.h' line='23' column='1' id='6a11bd61'/>
    <typedef-decl name='__kernel_off_t' type-id='6a11bd61' filepath='bionic/libc/kernel/uapi/asm-generic/posix_types.h' line='75' column='1' id='8dda407a'/>
    <typedef-decl name='__kernel_ssize_t' type-id='95e97e5e' filepath='bionic/libc/kernel/uapi/asm-generic/posix_types.h' line='62' column='1' id='b6b3ebaf'/>
    <typedef-decl name='__kernel_time_t' type-id='6a11bd61' filepath='bionic/libc/kernel/uapi/asm-generic/posix_types.h' line='78' column='1' id='f7d92306'/>
    <typedef-decl name='__time_t' type-id='f7d92306' filepath='bionic/libc/include/sys/types.h' line='95' column='1' id='65eda9c0'/>
    <typedef-decl name='__uint16_t' type-id='f0981eee' filepath='bionic/libc/include/stdint.h' line='39' column='1' id='253c2d2a'/>
    <typedef-decl name='__uint32_t' type-id='f0981eed' filepath='bionic/libc/include/stdint.h' line='41' column='1' id='62f1140c'/>
    <typedef-decl name='__uint8_t' type-id='002ac4a6' filepath='bionic/libc/include/stdint.h' line='37' column='1' id='c51d6389'/>
    <typedef-decl name='clock_t' type-id='880ebc01' filepath='bionic/libc/include/sys/types.h' line='54' column='1' id='4c3a2c61'/>
    <typedef-decl name='fpos_t' type-id='ad707ada' filepath='bionic/libc/include/stdio.h' line='55' column='1' id='e322b6ef'/>
    <typedef-decl name='int16_t' type-id='03896e23' filepath='bionic/libc/include/stdint.h' line='61' column='1' id='23bd8cb5'/>
    <typedef-decl name='int32_t' type-id='33f57a65' filepath='bionic/libc/include/stdint.h' line='64' column='1' id='3ff5601b'/>
    <typedef-decl name='int64_t' type-id='0c9942d2' filepath='bionic/libc/include/stdint.h' line='67' column='1' id='9da381c4'/>
    <typedef-decl name='int8_t' type-id='2171a512' filepath='bionic/libc/include/stdint.h' line='58' column='1' id='ee31ee44'/>
    <typedef-decl name='jarray' type-id='85c463b1' filepath='libnativehelper/include_jni/jni.h' line='64' column='1' id='65b69bb3'/>
    <typedef-decl name='jboolean' type-id='b96825af' filepath='libnativehelper/include_jni/jni.h' line='30' column='1' id='cc6e09ca'/>
    <typedef-decl name='jbyte' type-id='ee31ee44' filepath='libnativehelper/include_jni/jni.h' line='31' column='1' id='adf18958'/>
    <typedef-decl name='jchar' type-id='149c6638' filepath='libnativehelper/include_jni/jni.h' line='32' column='1' id='8dfe2e06'/>
    <typedef-decl name='jdouble' type-id='a0eb0f08' filepath='libnativehelper/include_jni/jni.h' line='37' column='1' id='973e3c3f'/>
    <typedef-decl name='jfloat' type-id='a6c45d85' filepath='libnativehelper/include_jni/jni.h' line='36' column='1' id='1a7fe6b0'/>
    <typedef-decl name='jint' type-id='3ff5601b' filepath='libnativehelper/include_jni/jni.h' line='34' column='1' id='0b9c02cb'/>
    <typedef-decl name='jlong' type-id='9da381c4' filepath='libnativehelper/include_jni/jni.h' line='35' column='1' id='c8745fdc'/>
    <typedef-decl name='jobject' type-id='478e3663' filepath='libnativehelper/include_jni/jni.h' line='61' column='1' id='96f3d089'/>
    <typedef-decl name='jobjectRefType' type-id='4f771c8a' filepath='libnativehelper/include_jni/jni.h' line='126' column='1' id='c36bf49e'/>
    <typedef-decl name='jshort' type-id='23bd8cb5' filepath='libnativehelper/include_jni/jni.h' line='33' column='1' id='9a10f134'/>
    <typedef-decl name='jsize' type-id='0b9c02cb' filepath='libnativehelper/include_jni/jni.h' line='40' column='1' id='2c2f1adb'/>
    <typedef-decl name='jweak' type-id='478e3663' filepath='libnativehelper/include_jni/jni.h' line='75' column='1' id='6c9a8402'/>
    <typedef-decl name='ldiv_t' type-id='9b5926fd' filepath='bionic/libc/include/stdlib.h' line='139' column='1' id='30397bf8'/>
    <typedef-decl name='lldiv_t' type-id='649cba4b' filepath='bionic/libc/include/stdlib.h' line='146' column='1' id='f5fa3b34'/>
    <typedef-decl name='loff_t' type-id='537a730e' filepath='bionic/libc/include/sys/types.h' line='106' column='1' id='69bf7bee'/>
    <typedef-decl name='mbstate_t' type-id='a76d8e48' filepath='bionic/libc/include/bits/mbstate_t.h' line='47' column='1' id='3d7d8cbf'/>
    <typedef-decl name='nsecs_t' type-id='9da381c4' filepath='system/core/libutils/include/utils/Timers.h' line='32' column='1' id='00f5ef57'/>
    <typedef-decl name='off64_t' type-id='69bf7bee' filepath='bionic/libc/include/sys/types.h' line='107' column='1' id='05d4c620'/>
    <typedef-decl name='off_t' type-id='8dda407a' filepath='bionic/libc/include/sys/types.h' line='105' column='1' id='ad707ada'/>
    <typedef-decl name='pthread_mutex_t' type-id='92fa54c8' filepath='bionic/libc/include/bits/pthread_types.h' line='78' column='1' id='7a6844eb'/>
    <typedef-decl name='ptrdiff_t' type-id='95e97e5e' filepath='prebuilts/clang/host/linux-x86/clang-r383902b/lib64/clang/11.0.2/include/stddef.h' line='35' column='1' id='fc84bffe'/>
    <typedef-decl name='size_t' type-id='f0981eed' filepath='prebuilts/clang/host/linux-x86/clang-r383902b/lib64/clang/11.0.2/include/stddef.h' line='46' column='1' id='b59d7dce'/>
    <typedef-decl name='size_type' type-id='b59d7dce' filepath='external/libcxx/include/memory' line='1784' column='1' id='143a6b70'/>
    <typedef-decl name='ssize_t' type-id='b6b3ebaf' filepath='bionic/libc/include/sys/types.h' line='128' column='1' id='79a0948f'/>
    <typedef-decl name='time_t' type-id='65eda9c0' filepath='bionic/libc/include/sys/types.h' line='96' column='1' id='c9d12d66'/>
    <typedef-decl name='uint16_t' type-id='253c2d2a' filepath='bionic/libc/include/stdint.h' line='62' column='1' id='149c6638'/>
    <typedef-decl name='uint32_t' type-id='62f1140c' filepath='bionic/libc/include/stdint.h' line='65' column='1' id='8f92235e'/>
    <typedef-decl name='uint8_t' type-id='c51d6389' filepath='bionic/libc/include/stdint.h' line='59' column='1' id='b96825af'/>
    <typedef-decl name='va_list' type-id='7f896fb4' filepath='prebuilts/clang/host/linux-x86/clang-r383902b/lib64/clang/11.0.2/include/stdarg.h' line='14' column='1' id='2aee9912'/>
    <typedef-decl name='wctype_t' type-id='95e97e5f' filepath='bionic/libc/include/bits/wctype.h' line='56' column='1' id='ba50424d'/>
    <typedef-decl name='wint_t' type-id='f0981eed' filepath='bionic/libc/include/bits/wctype.h' line='36' column='1' id='6dd37369'/>
    <array-type-def dimensions='1' type-id='8f92235e' size-in-bits='unknown' id='1e7b9b2b'>
      <subrange length='unknown' lower-bound='0' upper-bound='-1' type-id='7ff19f0f' id='031f2035'/>
    </array-type-def>
    <array-type-def dimensions='1' type-id='b96825af' size-in-bits='2048' id='62946659'>
      <subrange length='256' lower-bound='0' upper-bound='255' type-id='7ff19f0f' id='36e5b9fa'/>
    </array-type-def>
    <type-decl name='unnamed-enum-underlying-type-32' is-anonymous='yes' size-in-bits='32' alignment-in-bits='32' id='9cac1fee'/>
    <type-decl name='unsigned char' size-in-bits='8' id='002ac4a6'/>
    <array-type-def dimensions='1' type-id='002ac4a6' size-in-bits='128' id='92a46553'>
      <subrange length='16' lower-bound='0' upper-bound='15' type-id='7ff19f0f' id='848d0938'/>
    </array-type-def>
    <array-type-def dimensions='1' type-id='002ac4a6' size-in-bits='2048' id='f411cbcf'>
      <subrange length='256' lower-bound='0' upper-bound='255' type-id='7ff19f0f' id='36e5b9fa'/>
    </array-type-def>
    <array-type-def dimensions='1' type-id='002ac4a6' size-in-bits='32' id='09001d3c'>
      <subrange length='4' lower-bound='0' upper-bound='3' type-id='7ff19f0f' id='16fe7105'/>
    </array-type-def>
    <type-decl name='unsigned int' size-in-bits='32' id='f0981eed'/>
    <array-type-def dimensions='1' type-id='807869d3' size-in-bits='512' id='ba25cd2e'>
      <subrange length='16' lower-bound='0' upper-bound='15' type-id='7ff19f0f' id='848d0938'/>
    </array-type-def>
    <type-decl name='unsigned long int' size-in-bits='32' id='f0981eeb'/>
    <type-decl name='unsigned long long int' size-in-bits='64' id='f0981eec'/>
    <type-decl name='unsigned short int' size-in-bits='16' id='f0981eee'/>
    <type-decl name='wchar_t' size-in-bits='32' id='c523b9f1'/>
    <pointer-type-def type-id='1fc4034c' size-in-bits='32' id='57d98aaa'/>
    <pointer-type-def type-id='d27ea7e1' size-in-bits='32' id='57d98aab'/>
    <pointer-type-def type-id='ea9788c3' size-in-bits='32' id='1cdc10c3'/>
    <pointer-type-def type-id='e6c9fab0' size-in-bits='32' id='1cdc10c4'/>
    <pointer-type-def type-id='f41387f0' size-in-bits='32' id='081c2b23'/>
    <pointer-type-def type-id='d357872a' size-in-bits='32' id='fae49a1f'/>
    <pointer-type-def type-id='c9459134' size-in-bits='32' id='71bed232'/>
    <pointer-type-def type-id='440aaf49' size-in-bits='32' id='85c463b1'/>
    <pointer-type-def type-id='baffb083' size-in-bits='32' id='478e3663'/>
    <pointer-type-def type-id='1e673c29' size-in-bits='32' id='ad326464'/>
    <pointer-type-def type-id='32d026f1' size-in-bits='32' id='2ef969b9'/>
    <reference-type-def kind='lvalue' type-id='7c0ac937' size-in-bits='32' id='439855fb'/>
    <pointer-type-def type-id='7c0ac937' size-in-bits='32' id='3f984faf'/>
    <reference-type-def kind='lvalue' type-id='01b8bd0d' size-in-bits='32' id='b8660f99'/>
    <pointer-type-def type-id='01b8bd0d' size-in-bits='32' id='c466227d'/>
    <qualified-type-def type-id='c466227d' const='yes' id='4fda6452'/>
    <reference-type-def kind='lvalue' type-id='4fda6452' size-in-bits='32' id='28cc229c'/>
    <reference-type-def kind='lvalue' type-id='c466227d' size-in-bits='32' id='87c81541'/>
    <reference-type-def kind='lvalue' type-id='238d5c19' size-in-bits='32' id='173b8195'/>
    <pointer-type-def type-id='238d5c19' size-in-bits='32' id='1b3b87e1'/>
    <reference-type-def kind='lvalue' type-id='1bec9f14' size-in-bits='32' id='45e7ebae'/>
    <pointer-type-def type-id='1bec9f14' size-in-bits='32' id='41e7e562'/>
    <qualified-type-def type-id='41e7e562' const='yes' id='a6d138ed'/>
    <reference-type-def kind='lvalue' type-id='a6d138ed' size-in-bits='32' id='665c6791'/>
    <reference-type-def kind='lvalue' type-id='41e7e562' size-in-bits='32' id='040dea0c'/>
    <pointer-type-def type-id='9337857f' size-in-bits='32' id='7ba678e7'/>
    <pointer-type-def type-id='0eedf0a9' size-in-bits='32' id='be739c71'/>
    <pointer-type-def type-id='0c7d43ed' size-in-bits='32' id='737dcd4d'/>
    <pointer-type-def type-id='aaa6ccca' size-in-bits='32' id='399793f8'/>
    <reference-type-def kind='lvalue' type-id='1ae556e8' size-in-bits='32' id='80661af2'/>
    <pointer-type-def type-id='1ae556e8' size-in-bits='32' id='8466213e'/>
    <pointer-type-def type-id='a1e4e0c1' size-in-bits='32' id='f617f949'/>
    <pointer-type-def type-id='e5242f33' size-in-bits='32' id='cc64c693'/>
    <reference-type-def kind='lvalue' type-id='83ab4f39' size-in-bits='32' id='4ce6d775'/>
    <pointer-type-def type-id='83ab4f39' size-in-bits='32' id='50e6ddc1'/>
    <reference-type-def kind='lvalue' type-id='406f4753' size-in-bits='32' id='665e3247'/>
    <pointer-type-def type-id='406f4753' size-in-bits='32' id='5a5e1f63'/>
    <pointer-type-def type-id='081066a5' size-in-bits='32' id='fb5b9575'/>
    <reference-type-def kind='lvalue' type-id='f8926d95' size-in-bits='32' id='03ec3711'/>
    <pointer-type-def type-id='f8926d95' size-in-bits='32' id='ffec30c5'/>
    <qualified-type-def type-id='ffec30c5' const='yes' id='6e0d67ba'/>
    <reference-type-def kind='lvalue' type-id='6e0d67ba' size-in-bits='32' id='db1a1a94'/>
    <reference-type-def kind='lvalue' type-id='ffec30c5' size-in-bits='32' id='c3d0f559'/>
    <pointer-type-def type-id='28543e70' size-in-bits='32' id='a4a0d016'/>
    <pointer-type-def type-id='0bab9a0f' size-in-bits='32' id='1ecbd0c7'/>
    <reference-type-def kind='lvalue' type-id='c73fabea' size-in-bits='32' id='22923b4c'/>
    <pointer-type-def type-id='c73fabea' size-in-bits='32' id='26924198'/>
    <reference-type-def kind='lvalue' type-id='bacf3393' size-in-bits='32' id='26b0aa17'/>
    <pointer-type-def type-id='bacf3393' size-in-bits='32' id='1ab09733'/>
    <pointer-type-def type-id='90bf4c40' size-in-bits='32' id='23d76c96'/>
    <reference-type-def kind='lvalue' type-id='36a9bc13' size-in-bits='32' id='8cf76667'/>
    <reference-type-def kind='lvalue' type-id='3beaa405' size-in-bits='32' id='315c6611'/>
    <reference-type-def kind='rvalue' type-id='3beaa405' size-in-bits='32' id='eb74e895'/>
    <pointer-type-def type-id='3beaa405' size-in-bits='32' id='2d5c5fc5'/>
    <reference-type-def kind='lvalue' type-id='a84c031d' size-in-bits='32' id='2aa915e1'/>
    <pointer-type-def type-id='a84c031d' size-in-bits='32' id='26a90f95'/>
    <pointer-type-def type-id='26a90f95' size-in-bits='32' id='9b23c9ad'/>
    <reference-type-def kind='lvalue' type-id='801a266d' size-in-bits='32' id='f42a4811'/>
    <pointer-type-def type-id='801a266d' size-in-bits='32' id='f02a41c5'/>
    <pointer-type-def type-id='f02a41c5' size-in-bits='32' id='0185cb3d'/>
    <qualified-type-def type-id='ad414f12' const='yes' id='bebf8fb7'/>
    <pointer-type-def type-id='bebf8fb7' size-in-bits='32' id='e48f1427'/>
    <qualified-type-def type-id='b7b5d51d' const='yes' id='f62c522d'/>
    <pointer-type-def type-id='f62c522d' size-in-bits='32' id='8ec52105'/>
    <qualified-type-def type-id='32d026f1' const='yes' id='3478aa1e'/>
    <reference-type-def kind='lvalue' type-id='3478aa1e' size-in-bits='32' id='d1f3f628'/>
    <pointer-type-def type-id='3478aa1e' size-in-bits='32' id='cdf3efdc'/>
    <qualified-type-def type-id='7c0ac937' const='yes' id='8e56f572'/>
    <reference-type-def kind='lvalue' type-id='8e56f572' size-in-bits='32' id='66e4333c'/>
    <pointer-type-def type-id='8e56f572' size-in-bits='32' id='6ae43988'/>
    <qualified-type-def type-id='01b8bd0d' const='yes' id='da1ad926'/>
    <reference-type-def kind='lvalue' type-id='da1ad926' size-in-bits='32' id='58439b00'/>
    <pointer-type-def type-id='da1ad926' size-in-bits='32' id='6443ade4'/>
    <qualified-type-def type-id='238d5c19' const='yes' id='124b0ffa'/>
    <reference-type-def kind='lvalue' type-id='124b0ffa' size-in-bits='32' id='a829f754'/>
    <qualified-type-def type-id='1bec9f14' const='yes' id='f541dc79'/>
    <reference-type-def kind='lvalue' type-id='f541dc79' size-in-bits='32' id='75ade98d'/>
    <pointer-type-def type-id='f541dc79' size-in-bits='32' id='69add6a9'/>
    <qualified-type-def type-id='9337857f' const='yes' id='e900403c'/>
    <pointer-type-def type-id='e900403c' size-in-bits='32' id='e164e2a2'/>
    <qualified-type-def type-id='0eedf0a9' const='yes' id='8875171c'/>
    <pointer-type-def type-id='8875171c' size-in-bits='32' id='06538a02'/>
    <qualified-type-def type-id='0c7d43ed' const='yes' id='ded9b194'/>
    <pointer-type-def type-id='ded9b194' size-in-bits='32' id='8eb2ce1a'/>
    <qualified-type-def type-id='aaa6ccca' const='yes' id='3f8580c7'/>
    <reference-type-def kind='lvalue' type-id='3f8580c7' size-in-bits='32' id='e029e233'/>
    <pointer-type-def type-id='3f8580c7' size-in-bits='32' id='ec29f517'/>
    <qualified-type-def type-id='1ae556e8' const='yes' id='cd945871'/>
    <reference-type-def kind='lvalue' type-id='cd945871' size-in-bits='32' id='f78710f5'/>
    <qualified-type-def type-id='4a84961d' const='yes' id='e6f5b684'/>
    <pointer-type-def type-id='e6f5b684' size-in-bits='32' id='42ce93ea'/>
    <qualified-type-def type-id='a1e4e0c1' const='yes' id='cfec3230'/>
    <reference-type-def kind='lvalue' type-id='cfec3230' size-in-bits='32' id='66d2d8a2'/>
    <pointer-type-def type-id='cfec3230' size-in-bits='32' id='6ad2deee'/>
    <qualified-type-def type-id='e5242f33' const='yes' id='3ee779f2'/>
    <reference-type-def kind='lvalue' type-id='3ee779f2' size-in-bits='32' id='da64c8bc'/>
    <pointer-type-def type-id='3ee779f2' size-in-bits='32' id='de64cf08'/>
    <qualified-type-def type-id='83ab4f39' const='yes' id='ddef579c'/>
    <reference-type-def kind='lvalue' type-id='ddef579c' size-in-bits='32' id='19c719ce'/>
    <pointer-type-def type-id='ddef579c' size-in-bits='32' id='15c71382'/>
    <qualified-type-def type-id='406f4753' const='yes' id='a3f5ae0e'/>
    <reference-type-def kind='lvalue' type-id='a3f5ae0e' size-in-bits='32' id='43c128f8'/>
    <qualified-type-def type-id='5da8e894' const='yes' id='d7426f71'/>
    <pointer-type-def type-id='d7426f71' size-in-bits='32' id='38954c41'/>
    <qualified-type-def type-id='081066a5' const='yes' id='364e3bf4'/>
    <pointer-type-def type-id='364e3bf4' size-in-bits='32' id='5b283e7a'/>
    <qualified-type-def type-id='1ccfdeff' const='yes' id='8897c276'/>
    <reference-type-def kind='lvalue' type-id='8897c276' size-in-bits='32' id='56e6e3f0'/>
    <qualified-type-def type-id='f8926d95' const='yes' id='d1018ac0'/>
    <reference-type-def kind='lvalue' type-id='d1018ac0' size-in-bits='32' id='eb6da812'/>
    <pointer-type-def type-id='d1018ac0' size-in-bits='32' id='ef6dae5e'/>
    <qualified-type-def type-id='24d11571' const='yes' id='c12c73fe'/>
    <pointer-type-def type-id='c12c73fe' size-in-bits='32' id='ecfa56bc'/>
    <qualified-type-def type-id='4504256f' const='yes' id='acf3e156'/>
    <pointer-type-def type-id='acf3e156' size-in-bits='32' id='bfebf634'/>
    <qualified-type-def type-id='bfebf634' const='yes' id='d3e0387f'/>
    <reference-type-def kind='lvalue' type-id='d3e0387f' size-in-bits='32' id='e2f8b41b'/>
    <pointer-type-def type-id='d3e0387f' size-in-bits='32' id='def8adcf'/>
    <reference-type-def kind='lvalue' type-id='bfebf634' size-in-bits='32' id='32745e56'/>
    <pointer-type-def type-id='bfebf634' size-in-bits='32' id='3e74713a'/>
    <qualified-type-def type-id='3e74713a' const='yes' id='ab189805'/>
    <reference-type-def kind='lvalue' type-id='ab189805' size-in-bits='32' id='7ab77f19'/>
    <reference-type-def kind='lvalue' type-id='3e74713a' size-in-bits='32' id='6d4e0f14'/>
    <qualified-type-def type-id='667ba238' const='yes' id='d6321531'/>
    <pointer-type-def type-id='d6321531' size-in-bits='32' id='4bd73981'/>
    <qualified-type-def type-id='28543e70' const='yes' id='c4bcb085'/>
    <reference-type-def kind='lvalue' type-id='c4bcb085' size-in-bits='32' id='580a1099'/>
    <qualified-type-def type-id='66278e1e' const='yes' id='7eb311c3'/>
    <pointer-type-def type-id='7eb311c3' size-in-bits='32' id='5ce531cb'/>
    <qualified-type-def type-id='0bab9a0f' const='yes' id='03c8f004'/>
    <reference-type-def kind='lvalue' type-id='03c8f004' size-in-bits='32' id='17520586'/>
    <qualified-type-def type-id='c73fabea' const='yes' id='a3cec311'/>
    <reference-type-def kind='lvalue' type-id='a3cec311' size-in-bits='32' id='157d4f95'/>
    <pointer-type-def type-id='a3cec311' size-in-bits='32' id='197d55e1'/>
    <qualified-type-def type-id='bacf3393' const='yes' id='745c9152'/>
    <reference-type-def kind='lvalue' type-id='745c9152' size-in-bits='32' id='a1b8f99c'/>
    <pointer-type-def type-id='745c9152' size-in-bits='32' id='a5b8ffe8'/>
    <qualified-type-def type-id='90bf4c40' const='yes' id='f36454e9'/>
    <pointer-type-def type-id='f36454e9' size-in-bits='32' id='e9f16ef9'/>
    <qualified-type-def type-id='36a9bc13' const='yes' id='a231f7f4'/>
    <pointer-type-def type-id='a231f7f4' size-in-bits='32' id='32a9327a'/>
    <qualified-type-def type-id='3beaa405' const='yes' id='36819e5e'/>
    <reference-type-def kind='lvalue' type-id='36819e5e' size-in-bits='32' id='460c76e8'/>
    <pointer-type-def type-id='36819e5e' size-in-bits='32' id='420c709c'/>
    <qualified-type-def type-id='c894953d' const='yes' id='4ab96a04'/>
    <qualified-type-def type-id='a84c031d' const='yes' id='9b45d938'/>
    <reference-type-def kind='lvalue' type-id='9b45d938' size-in-bits='32' id='8cf4ca3a'/>
    <pointer-type-def type-id='9b45d938' size-in-bits='32' id='80f4b756'/>
    <pointer-type-def type-id='4693c583' size-in-bits='32' id='653ec4e7'/>
    <pointer-type-def type-id='80f4b756' size-in-bits='32' id='7d3cd834'/>
    <qualified-type-def type-id='801a266d' const='yes' id='e7c31614'/>
    <reference-type-def kind='lvalue' type-id='e7c31614' size-in-bits='32' id='0a1bf0b6'/>
    <pointer-type-def type-id='e7c31614' size-in-bits='32' id='161c039a'/>
    <qualified-type-def type-id='a846fc93' const='yes' id='eb5b5ff2'/>
    <pointer-type-def type-id='eb5b5ff2' size-in-bits='32' id='58d7e108'/>
    <qualified-type-def type-id='a6c45d85' const='yes' id='73f3791e'/>
    <reference-type-def kind='lvalue' type-id='73f3791e' size-in-bits='32' id='c047d328'/>
    <qualified-type-def type-id='e322b6ef' const='yes' id='59d28eff'/>
    <pointer-type-def type-id='59d28eff' size-in-bits='32' id='3b76d94f'/>
    <qualified-type-def type-id='95e97e5e' const='yes' id='2448a865'/>
    <reference-type-def kind='lvalue' type-id='2448a865' size-in-bits='32' id='6160e179'/>
    <pointer-type-def type-id='2448a865' size-in-bits='32' id='6d60f45d'/>
    <qualified-type-def type-id='cc6e09ca' const='yes' id='5fa8a65a'/>
    <pointer-type-def type-id='5fa8a65a' size-in-bits='32' id='067e0250'/>
    <qualified-type-def type-id='adf18958' const='yes' id='3ebf19c8'/>
    <pointer-type-def type-id='3ebf19c8' size-in-bits='32' id='a8d5bec6'/>
    <qualified-type-def type-id='8dfe2e06' const='yes' id='9bf2d596'/>
    <pointer-type-def type-id='9bf2d596' size-in-bits='32' id='3b4676f4'/>
    <pointer-type-def type-id='6a9e3459' size-in-bits='32' id='a4d189fd'/>
    <qualified-type-def type-id='973e3c3f' const='yes' id='8bac99cf'/>
    <pointer-type-def type-id='8bac99cf' size-in-bits='32' id='c5b6437f'/>
    <qualified-type-def type-id='1a7fe6b0' const='yes' id='af8c6a20'/>
    <pointer-type-def type-id='af8c6a20' size-in-bits='32' id='640aedbe'/>
    <qualified-type-def type-id='0b9c02cb' const='yes' id='897a51fb'/>
    <pointer-type-def type-id='897a51fb' size-in-bits='32' id='3c8ecc03'/>
    <qualified-type-def type-id='c8745fdc' const='yes' id='7c1d680c'/>
    <pointer-type-def type-id='7c1d680c' size-in-bits='32' id='884af3d2'/>
    <qualified-type-def type-id='9a10f134' const='yes' id='c17f92e4'/>
    <pointer-type-def type-id='c17f92e4' size-in-bits='32' id='69d41a4a'/>
    <qualified-type-def type-id='3d7d8cbf' const='yes' id='7411c98f'/>
    <pointer-type-def type-id='7411c98f' size-in-bits='32' id='5d006ebf'/>
    <qualified-type-def type-id='b59d7dce' const='yes' id='d0fa5dde'/>
    <qualified-type-def type-id='143a6b70' const='yes' id='5919835e'/>
    <qualified-type-def type-id='c3e90ce7' const='yes' id='f49e9570'/>
    <pointer-type-def type-id='f49e9570' size-in-bits='32' id='6fa51cae'/>
    <qualified-type-def type-id='60f5da7d' const='yes' id='69dda76c'/>
    <reference-type-def kind='lvalue' type-id='69dda76c' size-in-bits='32' id='f1ee597e'/>
    <pointer-type-def type-id='69dda76c' size-in-bits='32' id='edee5332'/>
    <qualified-type-def type-id='d468014a' const='yes' id='127172da'/>
    <reference-type-def kind='lvalue' type-id='127172da' size-in-bits='32' id='049802b8'/>
    <qualified-type-def type-id='97941460' const='yes' id='ef733b59'/>
    <reference-type-def kind='lvalue' type-id='ef733b59' size-in-bits='32' id='7166a8ed'/>
    <pointer-type-def type-id='ef733b59' size-in-bits='32' id='65669609'/>
    <qualified-type-def type-id='d468014b' const='yes' id='127172db'/>
    <reference-type-def kind='lvalue' type-id='127172db' size-in-bits='32' id='049802b9'/>
    <qualified-type-def type-id='64fb4db3' const='yes' id='ac63f41a'/>
    <reference-type-def kind='lvalue' type-id='ac63f41a' size-in-bits='32' id='9d597a74'/>
    <pointer-type-def type-id='ac63f41a' size-in-bits='32' id='91596790'/>
    <qualified-type-def type-id='d468014c' const='yes' id='127172dc'/>
    <reference-type-def kind='lvalue' type-id='127172dc' size-in-bits='32' id='049802ba'/>
    <qualified-type-def type-id='c8491dd8' const='yes' id='cce517cd'/>
    <reference-type-def kind='lvalue' type-id='cce517cd' size-in-bits='32' id='77a4a6f1'/>
    <pointer-type-def type-id='cce517cd' size-in-bits='32' id='73a4a0a5'/>
    <qualified-type-def type-id='d468014d' const='yes' id='127172dd'/>
    <reference-type-def kind='lvalue' type-id='127172dd' size-in-bits='32' id='049802bb'/>
    <qualified-type-def type-id='ba4fbcc4' const='yes' id='e5685f15'/>
    <pointer-type-def type-id='e5685f15' size-in-bits='32' id='624df02d'/>
    <qualified-type-def type-id='2ef4b79c' const='yes' id='015c2579'/>
    <pointer-type-def type-id='015c2579' size-in-bits='32' id='770ec1a9'/>
    <qualified-type-def type-id='37dd8aae' const='yes' id='67f2d1ad'/>
    <pointer-type-def type-id='67f2d1ad' size-in-bits='32' id='2a3fd785'/>
    <qualified-type-def type-id='e015e2ec' const='yes' id='c6f082e7'/>
    <pointer-type-def type-id='c6f082e7' size-in-bits='32' id='f99de8b7'/>
    <qualified-type-def type-id='f045688c' const='yes' id='d14d7547'/>
    <pointer-type-def type-id='d14d7547' size-in-bits='32' id='e9efda97'/>
    <qualified-type-def type-id='94df1ca8' const='yes' id='1afeb553'/>
    <pointer-type-def type-id='1afeb553' size-in-bits='32' id='f7f7ad7b'/>
    <qualified-type-def type-id='43b7c228' const='yes' id='8b04234b'/>
    <pointer-type-def type-id='8b04234b' size-in-bits='32' id='3883b1b3'/>
    <qualified-type-def type-id='1988293c' const='yes' id='f6040e8d'/>
    <pointer-type-def type-id='f6040e8d' size-in-bits='32' id='ef6310e5'/>
    <qualified-type-def type-id='c01a67f4' const='yes' id='09a4ff6d'/>
    <pointer-type-def type-id='09a4ff6d' size-in-bits='32' id='75bddcc5'/>
    <qualified-type-def type-id='ec22f6fc' const='yes' id='24105c05'/>
    <pointer-type-def type-id='24105c05' size-in-bits='32' id='f4c11dfd'/>
    <qualified-type-def type-id='58870df2' const='yes' id='75d6bfad'/>
    <pointer-type-def type-id='75d6bfad' size-in-bits='32' id='080f8185'/>
    <qualified-type-def type-id='d22df4cd' const='yes' id='22034760'/>
    <pointer-type-def type-id='22034760' size-in-bits='32' id='d529397e'/>
    <qualified-type-def type-id='2622dfea' const='yes' id='c65b3cdf'/>
    <pointer-type-def type-id='c65b3cdf' size-in-bits='32' id='36a0f5af'/>
    <qualified-type-def type-id='39b8e88f' const='yes' id='cf5e3b94'/>
    <pointer-type-def type-id='cf5e3b94' size-in-bits='32' id='2f580c1a'/>
    <qualified-type-def type-id='97d0af14' const='yes' id='b1012a03'/>
    <pointer-type-def type-id='b1012a03' size-in-bits='32' id='cdd55e8b'/>
    <qualified-type-def type-id='7d3bb31a' const='yes' id='a006bbcf'/>
    <pointer-type-def type-id='a006bbcf' size-in-bits='32' id='cf99c97f'/>
    <qualified-type-def type-id='5fea02b3' const='yes' id='c60b39d6'/>
    <pointer-type-def type-id='c60b39d6' size-in-bits='32' id='bfac47b4'/>
    <qualified-type-def type-id='063dbdb6' const='yes' id='b6f04613'/>
    <pointer-type-def type-id='b6f04613' size-in-bits='32' id='353e8bbb'/>
    <qualified-type-def type-id='45b74b57' const='yes' id='71926ae2'/>
    <pointer-type-def type-id='71926ae2' size-in-bits='32' id='917e18d8'/>
    <qualified-type-def type-id='ffcdd1b2' const='yes' id='6ac16f07'/>
    <pointer-type-def type-id='6ac16f07' size-in-bits='32' id='3b8203d7'/>
    <qualified-type-def type-id='cd354cef' const='yes' id='7496d49a'/>
    <pointer-type-def type-id='7496d49a' size-in-bits='32' id='3970d110'/>
    <qualified-type-def type-id='7dee695e' const='yes' id='3c3515cb'/>
    <pointer-type-def type-id='3c3515cb' size-in-bits='32' id='a8917133'/>
    <qualified-type-def type-id='f03ebc7b' const='yes' id='276c3586'/>
    <pointer-type-def type-id='276c3586' size-in-bits='32' id='bb587dc4'/>
    <qualified-type-def type-id='678452de' const='yes' id='977f3b95'/>
    <pointer-type-def type-id='977f3b95' size-in-bits='32' id='3c4b0dad'/>
    <qualified-type-def type-id='8d3c18f6' const='yes' id='87af503d'/>
    <pointer-type-def type-id='87af503d' size-in-bits='32' id='affb1435'/>
    <qualified-type-def type-id='c24f72a3' const='yes' id='8469f184'/>
    <pointer-type-def type-id='8469f184' size-in-bits='32' id='20c774ea'/>
    <qualified-type-def type-id='e8967c46' const='yes' id='2d9d9a2b'/>
    <pointer-type-def type-id='2d9d9a2b' size-in-bits='32' id='d0196f93'/>
    <qualified-type-def type-id='e83f8f8d' const='yes' id='da7f0da8'/>
    <pointer-type-def type-id='da7f0da8' size-in-bits='32' id='780243a6'/>
    <qualified-type-def type-id='057d9591' const='yes' id='fe8749ec'/>
    <pointer-type-def type-id='fe8749ec' size-in-bits='32' id='74f922b2'/>
    <qualified-type-def type-id='7312e504' const='yes' id='125981d9'/>
    <pointer-type-def type-id='125981d9' size-in-bits='32' id='d5e79189'/>
    <qualified-type-def type-id='49a21e67' const='yes' id='72ff7e9a'/>
    <pointer-type-def type-id='72ff7e9a' size-in-bits='32' id='b8346f10'/>
    <qualified-type-def type-id='8b54feb4' const='yes' id='1f0a3e4d'/>
    <pointer-type-def type-id='1f0a3e4d' size-in-bits='32' id='44203c25'/>
    <qualified-type-def type-id='227041e1' const='yes' id='6cd37428'/>
    <pointer-type-def type-id='6cd37428' size-in-bits='32' id='52df9f26'/>
    <qualified-type-def type-id='9c4a3aff' const='yes' id='12249962'/>
    <pointer-type-def type-id='12249962' size-in-bits='32' id='d79d4c58'/>
    <qualified-type-def type-id='22e56ec2' const='yes' id='f2757f09'/>
    <pointer-type-def type-id='f2757f09' size-in-bits='32' id='d1f72419'/>
    <qualified-type-def type-id='b5df5bdc' const='yes' id='345edb2f'/>
    <pointer-type-def type-id='345edb2f' size-in-bits='32' id='7652c8df'/>
    <qualified-type-def type-id='3b4d4373' const='yes' id='df0e4d26'/>
    <pointer-type-def type-id='df0e4d26' size-in-bits='32' id='2f8349e4'/>
    <qualified-type-def type-id='277bc372' const='yes' id='11f3caa3'/>
    <pointer-type-def type-id='11f3caa3' size-in-bits='32' id='cbc7d5ab'/>
    <qualified-type-def type-id='aa3451ec' const='yes' id='f3e176c1'/>
    <pointer-type-def type-id='f3e176c1' size-in-bits='32' id='d6ee33f1'/>
    <qualified-type-def type-id='e4d4d078' const='yes' id='8e013285'/>
    <pointer-type-def type-id='8e013285' size-in-bits='32' id='3ae2c97d'/>
    <qualified-type-def type-id='63c7c233' const='yes' id='76ba5c4c'/>
    <pointer-type-def type-id='76ba5c4c' size-in-bits='32' id='4d5f7492'/>
    <qualified-type-def type-id='7c4db7cf' const='yes' id='d319d718'/>
    <pointer-type-def type-id='d319d718' size-in-bits='32' id='83adc3b6'/>
    <qualified-type-def type-id='6932bb90' const='yes' id='087cb129'/>
    <pointer-type-def type-id='087cb129' size-in-bits='32' id='5f4aa7b9'/>
    <qualified-type-def type-id='9884ef0e' const='yes' id='2f73bc05'/>
    <pointer-type-def type-id='2f73bc05' size-in-bits='32' id='e2313dfd'/>
    <qualified-type-def type-id='cd94fd85' const='yes' id='58db0cca'/>
    <pointer-type-def type-id='58db0cca' size-in-bits='32' id='c0d544a0'/>
    <qualified-type-def type-id='77d669a5' const='yes' id='0ee51430'/>
    <pointer-type-def type-id='0ee51430' size-in-bits='32' id='8c9ea4ee'/>
    <qualified-type-def type-id='a885088e' const='yes' id='5be8d6e7'/>
    <pointer-type-def type-id='5be8d6e7' size-in-bits='32' id='7c8a24b7'/>
    <qualified-type-def type-id='7b346a3f' const='yes' id='0c18ac26'/>
    <pointer-type-def type-id='0c18ac26' size-in-bits='32' id='16d6d6e4'/>
    <qualified-type-def type-id='ff06e1a2' const='yes' id='0cdc9f13'/>
    <pointer-type-def type-id='0cdc9f13' size-in-bits='32' id='784ea6bb'/>
    <qualified-type-def type-id='c230c56f' const='yes' id='65c590da'/>
    <pointer-type-def type-id='65c590da' size-in-bits='32' id='260329d0'/>
    <qualified-type-def type-id='a3175723' const='yes' id='f98533c0'/>
    <pointer-type-def type-id='f98533c0' size-in-bits='32' id='b6b0b95e'/>
    <qualified-type-def type-id='c6d12234' const='yes' id='6ec1638d'/>
    <pointer-type-def type-id='6ec1638d' size-in-bits='32' id='016fdfe5'/>
    <qualified-type-def type-id='6fb577ee' const='yes' id='7ea2111d'/>
    <pointer-type-def type-id='7ea2111d' size-in-bits='32' id='90211995'/>
    <qualified-type-def type-id='7873fb6d' const='yes' id='7ea4faa4'/>
    <pointer-type-def type-id='7ea4faa4' size-in-bits='32' id='ebb66d8a'/>
    <qualified-type-def type-id='34bedffd' const='yes' id='1f86947e'/>
    <pointer-type-def type-id='1f86947e' size-in-bits='32' id='f4db803c'/>
    <qualified-type-def type-id='37ff4804' const='yes' id='35bcf4e5'/>
    <pointer-type-def type-id='35bcf4e5' size-in-bits='32' id='677561dd'/>
    <qualified-type-def type-id='225e915e' const='yes' id='b1eb09e5'/>
    <pointer-type-def type-id='b1eb09e5' size-in-bits='32' id='e40070dd'/>
    <qualified-type-def type-id='1d6097d7' const='yes' id='96975fe0'/>
    <pointer-type-def type-id='96975fe0' size-in-bits='32' id='da4bcafe'/>
    <qualified-type-def type-id='9e7f15b0' const='yes' id='6c45eba1'/>
    <pointer-type-def type-id='6c45eba1' size-in-bits='32' id='fd11cbd1'/>
    <qualified-type-def type-id='70ed5ac7' const='yes' id='30307126'/>
    <pointer-type-def type-id='30307126' size-in-bits='32' id='e841f5e4'/>
    <qualified-type-def type-id='7068a110' const='yes' id='ef66f589'/>
    <pointer-type-def type-id='ef66f589' size-in-bits='32' id='8214af99'/>
    <qualified-type-def type-id='e771cfad' const='yes' id='648520a6'/>
    <pointer-type-def type-id='648520a6' size-in-bits='32' id='c9923c64'/>
    <qualified-type-def type-id='3efb2c0e' const='yes' id='9b0b4955'/>
    <pointer-type-def type-id='9b0b4955' size-in-bits='32' id='91c4b2ed'/>
    <qualified-type-def type-id='8288923d' const='yes' id='059b4a0a'/>
    <pointer-type-def type-id='059b4a0a' size-in-bits='32' id='f375b060'/>
    <qualified-type-def type-id='5a2afa10' const='yes' id='ea081829'/>
    <pointer-type-def type-id='ea081829' size-in-bits='32' id='6dbdccb9'/>
    <qualified-type-def type-id='f9da37d1' const='yes' id='c4e41a24'/>
    <pointer-type-def type-id='c4e41a24' size-in-bits='32' id='0115040a'/>
    <qualified-type-def type-id='5e03174f' const='yes' id='54209a76'/>
    <pointer-type-def type-id='54209a76' size-in-bits='32' id='cb52fed4'/>
    <qualified-type-def type-id='56dccc53' const='yes' id='19234ae2'/>
    <pointer-type-def type-id='19234ae2' size-in-bits='32' id='5a8eb8d8'/>
    <qualified-type-def type-id='02c104af' const='yes' id='e025c302'/>
    <pointer-type-def type-id='e025c302' size-in-bits='32' id='037237f8'/>
    <qualified-type-def type-id='bae33ff3' const='yes' id='d3fde2a2'/>
    <pointer-type-def type-id='d3fde2a2' size-in-bits='32' id='40ab9c18'/>
    <qualified-type-def type-id='d9fbed1c' const='yes' id='21ccd5f1'/>
    <pointer-type-def type-id='21ccd5f1' size-in-bits='32' id='1074a7c1'/>
    <qualified-type-def type-id='ed8c4278' const='yes' id='ac6cb785'/>
    <pointer-type-def type-id='ac6cb785' size-in-bits='32' id='1e25287d'/>
    <qualified-type-def type-id='f2c63883' const='yes' id='6afdde7c'/>
    <pointer-type-def type-id='6afdde7c' size-in-bits='32' id='c3a50162'/>
    <qualified-type-def type-id='51ebade8' const='yes' id='1689900b'/>
    <pointer-type-def type-id='1689900b' size-in-bits='32' id='9b8de3f3'/>
    <qualified-type-def type-id='62ec4a33' const='yes' id='6d3d4e7e'/>
    <pointer-type-def type-id='6d3d4e7e' size-in-bits='32' id='4b824e3c'/>
    <qualified-type-def type-id='1adfd3e6' const='yes' id='eb12177b'/>
    <pointer-type-def type-id='eb12177b' size-in-bits='32' id='5e7ab483'/>
    <qualified-type-def type-id='95757501' const='yes' id='50003bd4'/>
    <pointer-type-def type-id='50003bd4' size-in-bits='32' id='ee5e70da'/>
    <qualified-type-def type-id='b284e6e2' const='yes' id='3ee218a3'/>
    <pointer-type-def type-id='3ee218a3' size-in-bits='32' id='86ec9fab'/>
    <qualified-type-def type-id='2a699f96' const='yes' id='c014b171'/>
    <pointer-type-def type-id='c014b171' size-in-bits='32' id='bb933241'/>
    <qualified-type-def type-id='579722ef' const='yes' id='0adb7b58'/>
    <pointer-type-def type-id='0adb7b58' size-in-bits='32' id='89835476'/>
    <qualified-type-def type-id='adb0d72c' const='yes' id='1b4f6e3b'/>
    <pointer-type-def type-id='1b4f6e3b' size-in-bits='32' id='0f0a44c3'/>
    <qualified-type-def type-id='6e3f46eb' const='yes' id='3e21fc54'/>
    <pointer-type-def type-id='3e21fc54' size-in-bits='32' id='4d807a5a'/>
    <qualified-type-def type-id='fcbd9376' const='yes' id='c9adb00b'/>
    <pointer-type-def type-id='c9adb00b' size-in-bits='32' id='9d6c43f3'/>
    <qualified-type-def type-id='dd0abe4a' const='yes' id='080132d3'/>
    <pointer-type-def type-id='080132d3' size-in-bits='32' id='92e33dfb'/>
    <qualified-type-def type-id='0713c6a2' const='yes' id='456e0be5'/>
    <pointer-type-def type-id='456e0be5' size-in-bits='32' id='1b3c96dd'/>
    <qualified-type-def type-id='8d9552b9' const='yes' id='b7cd56ac'/>
    <pointer-type-def type-id='b7cd56ac' size-in-bits='32' id='de3f34f2'/>
    <qualified-type-def type-id='20704346' const='yes' id='24afc245'/>
    <pointer-type-def type-id='24afc245' size-in-bits='32' id='2faf14bd'/>
    <qualified-type-def type-id='abfeb1fe' const='yes' id='6bf2fba5'/>
    <pointer-type-def type-id='6bf2fba5' size-in-bits='32' id='7e82021d'/>
    <qualified-type-def type-id='8051cbec' const='yes' id='9fae01b1'/>
    <pointer-type-def type-id='9fae01b1' size-in-bits='32' id='f9ec8701'/>
    <qualified-type-def type-id='488eea75' const='yes' id='bf476b8e'/>
    <reference-type-def kind='lvalue' type-id='bf476b8e' size-in-bits='32' id='c56e7978'/>
    <pointer-type-def type-id='bf476b8e' size-in-bits='32' id='c16e732c'/>
    <qualified-type-def type-id='1c507e8b' const='yes' id='e0629c3e'/>
    <pointer-type-def type-id='e0629c3e' size-in-bits='32' id='4f3bb37c'/>
    <qualified-type-def type-id='62e477af' const='yes' id='3656e13e'/>
    <reference-type-def kind='lvalue' type-id='3656e13e' size-in-bits='32' id='a2c458cc'/>
    <qualified-type-def type-id='8940485c' const='yes' id='d386a90c'/>
    <reference-type-def kind='lvalue' type-id='d386a90c' size-in-bits='32' id='26fc4d1e'/>
    <qualified-type-def type-id='63aa61d5' const='yes' id='af954a65'/>
    <reference-type-def kind='lvalue' type-id='af954a65' size-in-bits='32' id='ab03e779'/>
    <qualified-type-def type-id='f26bade4' const='yes' id='47f81694'/>
    <reference-type-def kind='lvalue' type-id='47f81694' size-in-bits='32' id='fd8bba36'/>
    <qualified-type-def type-id='7194074a' const='yes' id='078f62bd'/>
    <reference-type-def kind='lvalue' type-id='078f62bd' size-in-bits='32' id='81b83a01'/>
    <pointer-type-def type-id='078f62bd' size-in-bits='32' id='7db833b5'/>
    <qualified-type-def type-id='568a771a' const='yes' id='a96f9975'/>
    <reference-type-def kind='lvalue' type-id='a96f9975' size-in-bits='32' id='0dae5da9'/>
    <pointer-type-def type-id='a96f9975' size-in-bits='32' id='19ae708d'/>
    <qualified-type-def type-id='602ad079' const='yes' id='ade0f876'/>
    <reference-type-def kind='lvalue' type-id='ade0f876' size-in-bits='32' id='0926e5f0'/>
    <pointer-type-def type-id='ade0f876' size-in-bits='32' id='1526f8d4'/>
    <qualified-type-def type-id='581cf3d8' const='yes' id='cec93afb'/>
    <reference-type-def kind='lvalue' type-id='cec93afb' size-in-bits='32' id='63c7a9e7'/>
    <pointer-type-def type-id='cec93afb' size-in-bits='32' id='57c79703'/>
    <qualified-type-def type-id='f76a9935' const='yes' id='93f1ab6e'/>
    <reference-type-def kind='lvalue' type-id='93f1ab6e' size-in-bits='32' id='2d70a258'/>
    <pointer-type-def type-id='93f1ab6e' size-in-bits='32' id='29709c0c'/>
    <qualified-type-def type-id='0b8a9bd4' const='yes' id='88613de9'/>
    <reference-type-def kind='lvalue' type-id='88613de9' size-in-bits='32' id='80144cdd'/>
    <pointer-type-def type-id='88613de9' size-in-bits='32' id='741439f9'/>
    <qualified-type-def type-id='73729dcc' const='yes' id='5cde35bc'/>
    <reference-type-def kind='lvalue' type-id='5cde35bc' size-in-bits='32' id='cbce616e'/>
    <qualified-type-def type-id='ee1a669b' const='yes' id='dcfea06b'/>
    <reference-type-def kind='lvalue' type-id='dcfea06b' size-in-bits='32' id='31d65937'/>
    <qualified-type-def type-id='78adc7a4' const='yes' id='ec805554'/>
    <reference-type-def kind='lvalue' type-id='ec805554' size-in-bits='32' id='c0068276'/>
    <qualified-type-def type-id='b069d066' const='yes' id='f4e4a967'/>
    <reference-type-def kind='lvalue' type-id='f4e4a967' size-in-bits='32' id='c4f67153'/>
    <pointer-type-def type-id='f4e4a967' size-in-bits='32' id='d0f68437'/>
    <qualified-type-def type-id='73729dcd' const='yes' id='5cde35bd'/>
    <reference-type-def kind='lvalue' type-id='5cde35bd' size-in-bits='32' id='cbce616f'/>
    <qualified-type-def type-id='ee1a669c' const='yes' id='dcfea06c'/>
    <reference-type-def kind='lvalue' type-id='dcfea06c' size-in-bits='32' id='31d65938'/>
    <qualified-type-def type-id='78adc7a5' const='yes' id='ec805555'/>
    <reference-type-def kind='lvalue' type-id='ec805555' size-in-bits='32' id='c0068277'/>
    <qualified-type-def type-id='16cfbc82' const='yes' id='83b16c13'/>
    <reference-type-def kind='lvalue' type-id='83b16c13' size-in-bits='32' id='854d576f'/>
    <pointer-type-def type-id='83b16c13' size-in-bits='32' id='894d5dbb'/>
    <qualified-type-def type-id='73729dce' const='yes' id='5cde35be'/>
    <reference-type-def kind='lvalue' type-id='5cde35be' size-in-bits='32' id='cbce6170'/>
    <qualified-type-def type-id='ee1a669d' const='yes' id='dcfea06d'/>
    <reference-type-def kind='lvalue' type-id='dcfea06d' size-in-bits='32' id='31d65939'/>
    <qualified-type-def type-id='78adc7a6' const='yes' id='ec805556'/>
    <reference-type-def kind='lvalue' type-id='ec805556' size-in-bits='32' id='c0068278'/>
    <qualified-type-def type-id='d6a92829' const='yes' id='c956a398'/>
    <reference-type-def kind='lvalue' type-id='c956a398' size-in-bits='32' id='b163c41a'/>
    <pointer-type-def type-id='c956a398' size-in-bits='32' id='a563b136'/>
    <qualified-type-def type-id='8940485d' const='yes' id='d386a90d'/>
    <reference-type-def kind='lvalue' type-id='d386a90d' size-in-bits='32' id='26fc4d1f'/>
    <qualified-type-def type-id='73729dcf' const='yes' id='5cde35bf'/>
    <reference-type-def kind='lvalue' type-id='5cde35bf' size-in-bits='32' id='cbce6171'/>
    <qualified-type-def type-id='ee1a669e' const='yes' id='dcfea06e'/>
    <reference-type-def kind='lvalue' type-id='dcfea06e' size-in-bits='32' id='31d6593a'/>
    <qualified-type-def type-id='78adc7a7' const='yes' id='ec805557'/>
    <reference-type-def kind='lvalue' type-id='ec805557' size-in-bits='32' id='c0068279'/>
    <qualified-type-def type-id='2c8660ce' const='yes' id='66c45ba7'/>
    <reference-type-def kind='lvalue' type-id='66c45ba7' size-in-bits='32' id='481c0c13'/>
    <pointer-type-def type-id='66c45ba7' size-in-bits='32' id='541c1ef7'/>
    <qualified-type-def type-id='92024495' const='yes' id='20ab0c9e'/>
    <reference-type-def kind='lvalue' type-id='20ab0c9e' size-in-bits='32' id='254505a8'/>
    <pointer-type-def type-id='20ab0c9e' size-in-bits='32' id='2144ff5c'/>
    <qualified-type-def type-id='16537306' const='yes' id='5cdd9e9d'/>
    <reference-type-def kind='lvalue' type-id='5cdd9e9d' size-in-bits='32' id='ebe0e061'/>
    <pointer-type-def type-id='5cdd9e9d' size-in-bits='32' id='e7e0da15'/>
    <qualified-type-def type-id='60e02119' const='yes' id='ac679f16'/>
    <reference-type-def kind='lvalue' type-id='ac679f16' size-in-bits='32' id='971f9890'/>
    <pointer-type-def type-id='ac679f16' size-in-bits='32' id='a31fab74'/>
    <qualified-type-def type-id='9a771f60' const='yes' id='c1918efd'/>
    <reference-type-def kind='lvalue' type-id='c1918efd' size-in-bits='32' id='9323e2c1'/>
    <pointer-type-def type-id='c1918efd' size-in-bits='32' id='8f23dc75'/>
    <qualified-type-def type-id='966331d7' const='yes' id='29a768f2'/>
    <reference-type-def kind='lvalue' type-id='29a768f2' size-in-bits='32' id='668a05bc'/>
    <pointer-type-def type-id='29a768f2' size-in-bits='32' id='6a8a0c08'/>
    <qualified-type-def type-id='6a81bf9f' const='yes' id='adeba43c'/>
    <reference-type-def kind='lvalue' type-id='adeba43c' size-in-bits='32' id='e3f354ee'/>
    <pointer-type-def type-id='adeba43c' size-in-bits='32' id='dff34ea2'/>
    <qualified-type-def type-id='0504b9a0' const='yes' id='2bf9e425'/>
    <reference-type-def kind='lvalue' type-id='2bf9e425' size-in-bits='32' id='3d61f0b9'/>
    <qualified-type-def type-id='62e477b0' const='yes' id='3656e13f'/>
    <reference-type-def kind='lvalue' type-id='3656e13f' size-in-bits='32' id='a2c458cd'/>
    <qualified-type-def type-id='a104f5a1' const='yes' id='b482634e'/>
    <reference-type-def kind='lvalue' type-id='b482634e' size-in-bits='32' id='91427cb8'/>
    <pointer-type-def type-id='b482634e' size-in-bits='32' id='8d42766c'/>
    <qualified-type-def type-id='0504b9a1' const='yes' id='2bf9e426'/>
    <reference-type-def kind='lvalue' type-id='2bf9e426' size-in-bits='32' id='3d61f0ba'/>
    <qualified-type-def type-id='62e477b1' const='yes' id='3656e140'/>
    <reference-type-def kind='lvalue' type-id='3656e140' size-in-bits='32' id='a2c458ce'/>
    <qualified-type-def type-id='97ba1631' const='yes' id='bada66f6'/>
    <reference-type-def kind='lvalue' type-id='bada66f6' size-in-bits='32' id='f5cfd970'/>
    <pointer-type-def type-id='bada66f6' size-in-bits='32' id='01cfec54'/>
    <qualified-type-def type-id='951e44e5' const='yes' id='3b165ce2'/>
    <reference-type-def kind='lvalue' type-id='3b165ce2' size-in-bits='32' id='c834088c'/>
    <pointer-type-def type-id='3b165ce2' size-in-bits='32' id='cc340ed8'/>
    <qualified-type-def type-id='86513975' const='yes' id='fe79fb3a'/>
    <reference-type-def kind='lvalue' type-id='fe79fb3a' size-in-bits='32' id='b6064d14'/>
    <pointer-type-def type-id='fe79fb3a' size-in-bits='32' id='aa063a30'/>
    <qualified-type-def type-id='0504b9a2' const='yes' id='2bf9e427'/>
    <reference-type-def kind='lvalue' type-id='2bf9e427' size-in-bits='32' id='3d61f0bb'/>
    <qualified-type-def type-id='62e477b2' const='yes' id='3656e141'/>
    <reference-type-def kind='lvalue' type-id='3656e141' size-in-bits='32' id='a2c458cf'/>
    <qualified-type-def type-id='cc5cd419' const='yes' id='9c8ba446'/>
    <reference-type-def kind='lvalue' type-id='9c8ba446' size-in-bits='32' id='cfd3c320'/>
    <pointer-type-def type-id='9c8ba446' size-in-bits='32' id='dbd3d604'/>
    <qualified-type-def type-id='dfecc261' const='yes' id='39f98ad6'/>
    <reference-type-def kind='lvalue' type-id='39f98ad6' size-in-bits='32' id='33d5b7d0'/>
    <pointer-type-def type-id='39f98ad6' size-in-bits='32' id='3fd5cab4'/>
    <qualified-type-def type-id='0504b9a3' const='yes' id='2bf9e428'/>
    <reference-type-def kind='lvalue' type-id='2bf9e428' size-in-bits='32' id='3d61f0bc'/>
    <qualified-type-def type-id='62e477b3' const='yes' id='3656e142'/>
    <reference-type-def kind='lvalue' type-id='3656e142' size-in-bits='32' id='a2c458d0'/>
    <qualified-type-def type-id='4bafa653' const='yes' id='204d3172'/>
    <reference-type-def kind='lvalue' type-id='204d3172' size-in-bits='32' id='2d84a73c'/>
    <pointer-type-def type-id='204d3172' size-in-bits='32' id='3184ad88'/>
    <qualified-type-def type-id='0504b9a4' const='yes' id='2bf9e429'/>
    <reference-type-def kind='lvalue' type-id='2bf9e429' size-in-bits='32' id='3d61f0bd'/>
    <qualified-type-def type-id='62e477b4' const='yes' id='3656e143'/>
    <reference-type-def kind='lvalue' type-id='3656e143' size-in-bits='32' id='a2c458d1'/>
    <qualified-type-def type-id='ccc1a701' const='yes' id='6ba820fe'/>
    <reference-type-def kind='lvalue' type-id='6ba820fe' size-in-bits='32' id='51abb408'/>
    <pointer-type-def type-id='6ba820fe' size-in-bits='32' id='4dabadbc'/>
    <qualified-type-def type-id='0504b999' const='yes' id='2bf9e42a'/>
    <reference-type-def kind='lvalue' type-id='2bf9e42a' size-in-bits='32' id='3d61f0be'/>
    <qualified-type-def type-id='62e477b5' const='yes' id='3656e144'/>
    <reference-type-def kind='lvalue' type-id='3656e144' size-in-bits='32' id='a2c458c8'/>
    <qualified-type-def type-id='c99d6d34' const='yes' id='86a0d7d7'/>
    <pointer-type-def type-id='86a0d7d7' size-in-bits='32' id='ec340347'/>
    <qualified-type-def type-id='a122f21c' const='yes' id='bd903223'/>
    <pointer-type-def type-id='bd903223' size-in-bits='32' id='72fec42b'/>
    <qualified-type-def type-id='4f878678' const='yes' id='dc7f3811'/>
    <reference-type-def kind='lvalue' type-id='dc7f3811' size-in-bits='32' id='53457e95'/>
    <pointer-type-def type-id='dc7f3811' size-in-bits='32' id='574584e1'/>
    <qualified-type-def type-id='fb2b2135' const='yes' id='3ecc6a56'/>
    <reference-type-def kind='lvalue' type-id='3ecc6a56' size-in-bits='32' id='4bcb8e50'/>
    <pointer-type-def type-id='3ecc6a56' size-in-bits='32' id='57cba134'/>
    <qualified-type-def type-id='f96f37f4' const='yes' id='3c42718b'/>
    <reference-type-def kind='lvalue' type-id='3c42718b' size-in-bits='32' id='8998f357'/>
    <pointer-type-def type-id='3c42718b' size-in-bits='32' id='7d98e073'/>
    <qualified-type-def type-id='dbb0c32e' const='yes' id='0145e9ad'/>
    <reference-type-def kind='lvalue' type-id='0145e9ad' size-in-bits='32' id='8c0ea5d1'/>
    <pointer-type-def type-id='0145e9ad' size-in-bits='32' id='880e9f85'/>
    <qualified-type-def type-id='bc83a16a' const='yes' id='e1d417f9'/>
    <reference-type-def kind='lvalue' type-id='e1d417f9' size-in-bits='32' id='5fe1940d'/>
    <pointer-type-def type-id='e1d417f9' size-in-bits='32' id='53e18129'/>
    <qualified-type-def type-id='443bd0ae' const='yes' id='94a71cf9'/>
    <reference-type-def kind='lvalue' type-id='94a71cf9' size-in-bits='32' id='e212730d'/>
    <pointer-type-def type-id='94a71cf9' size-in-bits='32' id='d6126029'/>
    <qualified-type-def type-id='c7b95082' const='yes' id='1377b429'/>
    <reference-type-def kind='lvalue' type-id='1377b429' size-in-bits='32' id='b470739d'/>
    <pointer-type-def type-id='1377b429' size-in-bits='32' id='a87060b9'/>
    <qualified-type-def type-id='c566fa15' const='yes' id='8b38c90e'/>
    <reference-type-def kind='lvalue' type-id='8b38c90e' size-in-bits='32' id='5264a9f8'/>
    <pointer-type-def type-id='8b38c90e' size-in-bits='32' id='4e64a3ac'/>
    <qualified-type-def type-id='35484ac1' const='yes' id='e0298922'/>
    <reference-type-def kind='lvalue' type-id='e0298922' size-in-bits='32' id='e562b14c'/>
    <pointer-type-def type-id='e0298922' size-in-bits='32' id='e962b798'/>
    <qualified-type-def type-id='9d7cc6de' const='yes' id='ea3375d3'/>
    <reference-type-def kind='lvalue' type-id='ea3375d3' size-in-bits='32' id='a402b0af'/>
    <pointer-type-def type-id='ea3375d3' size-in-bits='32' id='a802b6fb'/>
    <qualified-type-def type-id='fe392671' const='yes' id='c9b609d0'/>
    <reference-type-def kind='lvalue' type-id='c9b609d0' size-in-bits='32' id='7f91ae42'/>
    <pointer-type-def type-id='c9b609d0' size-in-bits='32' id='8391b48e'/>
    <qualified-type-def type-id='48b06606' const='yes' id='5fef81e5'/>
    <reference-type-def kind='lvalue' type-id='5fef81e5' size-in-bits='32' id='c90945f9'/>
    <pointer-type-def type-id='5fef81e5' size-in-bits='32' id='d50958dd'/>
    <qualified-type-def type-id='251e995b' const='yes' id='5245b2d0'/>
    <reference-type-def kind='lvalue' type-id='5245b2d0' size-in-bits='32' id='79b8b942'/>
    <pointer-type-def type-id='5245b2d0' size-in-bits='32' id='7db8bf8e'/>
    <qualified-type-def type-id='619f09b0' const='yes' id='db7a342b'/>
    <reference-type-def kind='lvalue' type-id='db7a342b' size-in-bits='32' id='8e5ff077'/>
    <pointer-type-def type-id='db7a342b' size-in-bits='32' id='825fdd93'/>
    <qualified-type-def type-id='500299ab' const='yes' id='062c8fe8'/>
    <reference-type-def kind='lvalue' type-id='062c8fe8' size-in-bits='32' id='8626614a'/>
    <pointer-type-def type-id='062c8fe8' size-in-bits='32' id='7a264e66'/>
    <qualified-type-def type-id='089fe5a3' const='yes' id='7588d14e'/>
    <reference-type-def kind='lvalue' type-id='7588d14e' size-in-bits='32' id='6e61a6b8'/>
    <pointer-type-def type-id='7588d14e' size-in-bits='32' id='6a61a06c'/>
    <qualified-type-def type-id='f6626d42' const='yes' id='17bb75ff'/>
    <reference-type-def kind='lvalue' type-id='17bb75ff' size-in-bits='32' id='351a849b'/>
    <pointer-type-def type-id='17bb75ff' size-in-bits='32' id='311a7e4f'/>
    <qualified-type-def type-id='bf1e7ced' const='yes' id='001b74d0'/>
    <reference-type-def kind='lvalue' type-id='001b74d0' size-in-bits='32' id='21391f42'/>
    <pointer-type-def type-id='001b74d0' size-in-bits='32' id='2539258e'/>
    <qualified-type-def type-id='1b40f38a' const='yes' id='2538414b'/>
    <reference-type-def kind='lvalue' type-id='2538414b' size-in-bits='32' id='048efe97'/>
    <pointer-type-def type-id='2538414b' size-in-bits='32' id='f88eebb3'/>
    <qualified-type-def type-id='30745bfb' const='yes' id='db87b3f2'/>
    <pointer-type-def type-id='db87b3f2' size-in-bits='32' id='6ea01d08'/>
    <qualified-type-def type-id='82ce69b4' const='yes' id='49a750c1'/>
    <pointer-type-def type-id='49a750c1' size-in-bits='32' id='dd6461f1'/>
    <qualified-type-def type-id='7a1975f9' const='yes' id='3f098f6c'/>
    <pointer-type-def type-id='3f098f6c' size-in-bits='32' id='820c8b32'/>
    <qualified-type-def type-id='d05727fd' const='yes' id='412f8662'/>
    <pointer-type-def type-id='412f8662' size-in-bits='32' id='e5d06358'/>
    <qualified-type-def type-id='9d7dd6fe' const='yes' id='26f80b51'/>
    <pointer-type-def type-id='26f80b51' size-in-bits='32' id='d37a12a1'/>
    <qualified-type-def type-id='84f52bff' const='yes' id='5fc9545c'/>
    <pointer-type-def type-id='5fc9545c' size-in-bits='32' id='3feff5c2'/>
    <qualified-type-def type-id='d784bbd4' const='yes' id='370afc1f'/>
    <pointer-type-def type-id='370afc1f' size-in-bits='32' id='db4b076f'/>
    <qualified-type-def type-id='d468014e' const='yes' id='127172de'/>
    <reference-type-def kind='lvalue' type-id='127172de' size-in-bits='32' id='049802bc'/>
    <qualified-type-def type-id='d468014f' const='yes' id='127172df'/>
    <reference-type-def kind='lvalue' type-id='127172df' size-in-bits='32' id='049802bd'/>
    <qualified-type-def type-id='d4680150' const='yes' id='127172e0'/>
    <reference-type-def kind='lvalue' type-id='127172e0' size-in-bits='32' id='049802be'/>
    <qualified-type-def type-id='d4680151' const='yes' id='127172e1'/>
    <reference-type-def kind='lvalue' type-id='127172e1' size-in-bits='32' id='049802bf'/>
    <qualified-type-def type-id='d4680152' const='yes' id='127172e2'/>
    <reference-type-def kind='lvalue' type-id='127172e2' size-in-bits='32' id='049802c0'/>
    <qualified-type-def type-id='d4680153' const='yes' id='127172e3'/>
    <reference-type-def kind='lvalue' type-id='127172e3' size-in-bits='32' id='049802c1'/>
    <qualified-type-def type-id='d4680154' const='yes' id='127172e4'/>
    <reference-type-def kind='lvalue' type-id='127172e4' size-in-bits='32' id='049802c2'/>
    <qualified-type-def type-id='d4680155' const='yes' id='127172e5'/>
    <reference-type-def kind='lvalue' type-id='127172e5' size-in-bits='32' id='049802c3'/>
    <qualified-type-def type-id='d4680156' const='yes' id='127172e6'/>
    <reference-type-def kind='lvalue' type-id='127172e6' size-in-bits='32' id='049802c4'/>
    <qualified-type-def type-id='d4680157' const='yes' id='127172e7'/>
    <reference-type-def kind='lvalue' type-id='127172e7' size-in-bits='32' id='049802c5'/>
    <qualified-type-def type-id='d4680158' const='yes' id='127172e8'/>
    <reference-type-def kind='lvalue' type-id='127172e8' size-in-bits='32' id='049802b4'/>
    <qualified-type-def type-id='d4680159' const='yes' id='127172e9'/>
    <reference-type-def kind='lvalue' type-id='127172e9' size-in-bits='32' id='049802c6'/>
    <qualified-type-def type-id='d468015a' const='yes' id='127172ea'/>
    <reference-type-def kind='lvalue' type-id='127172ea' size-in-bits='32' id='049802c7'/>
    <qualified-type-def type-id='d468015b' const='yes' id='127172eb'/>
    <reference-type-def kind='lvalue' type-id='127172eb' size-in-bits='32' id='049802c8'/>
    <qualified-type-def type-id='d468015c' const='yes' id='127172ec'/>
    <reference-type-def kind='lvalue' type-id='127172ec' size-in-bits='32' id='049802c9'/>
    <qualified-type-def type-id='155e8fd8' const='yes' id='caec6cbf'/>
    <pointer-type-def type-id='caec6cbf' size-in-bits='32' id='072eee8f'/>
    <qualified-type-def type-id='62e477b6' const='yes' id='3656e145'/>
    <reference-type-def kind='lvalue' type-id='3656e145' size-in-bits='32' id='a2c458ca'/>
    <pointer-type-def type-id='3656e145' size-in-bits='32' id='9ec4527c'/>
    <qualified-type-def type-id='4da3c689' const='yes' id='e5a3737c'/>
    <reference-type-def kind='lvalue' type-id='e5a3737c' size-in-bits='32' id='da4e96ae'/>
    <qualified-type-def type-id='62e477b7' const='yes' id='3656e146'/>
    <pointer-type-def type-id='3656e146' size-in-bits='32' id='9ec4527d'/>
    <qualified-type-def type-id='cea92a70' const='yes' id='0be3de7b'/>
    <reference-type-def kind='lvalue' type-id='0be3de7b' size-in-bits='32' id='14b70c67'/>
    <pointer-type-def type-id='0be3de7b' size-in-bits='32' id='08b6f983'/>
    <qualified-type-def type-id='ca9cbb0d' const='yes' id='14ee82e4'/>
    <reference-type-def kind='lvalue' type-id='14ee82e4' size-in-bits='32' id='b577d766'/>
    <qualified-type-def type-id='143a6b6f' const='yes' id='5919835f'/>
    <reference-type-def kind='lvalue' type-id='3656e147' size-in-bits='32' id='a2c458d2'/>
    <qualified-type-def type-id='501d9695' const='yes' id='11376d86'/>
    <reference-type-def kind='lvalue' type-id='11376d86' size-in-bits='32' id='ba4192e0'/>
    <pointer-type-def type-id='11376d86' size-in-bits='32' id='c641a5c4'/>
    <qualified-type-def type-id='62e477ae' const='yes' id='3656e147'/>
    <pointer-type-def type-id='3656e147' size-in-bits='32' id='9ec4527e'/>
    <qualified-type-def type-id='0c3d541d' const='yes' id='2c9ebcad'/>
    <reference-type-def kind='lvalue' type-id='2c9ebcad' size-in-bits='32' id='c8e2ced1'/>
    <pointer-type-def type-id='2c9ebcad' size-in-bits='32' id='c4e2c885'/>
    <qualified-type-def type-id='4d462c8d' const='yes' id='05fc47b4'/>
    <reference-type-def kind='lvalue' type-id='05fc47b4' size-in-bits='32' id='fe24aad6'/>
    <qualified-type-def type-id='d81eed6b' const='yes' id='9e890de2'/>
    <reference-type-def kind='lvalue' type-id='9e890de2' size-in-bits='32' id='55c0ab8c'/>
    <pointer-type-def type-id='9e890de2' size-in-bits='32' id='59c0b1d8'/>
    <qualified-type-def type-id='afb20d38' const='yes' id='036f5893'/>
    <reference-type-def kind='lvalue' type-id='036f5893' size-in-bits='32' id='1d48a4ef'/>
    <pointer-type-def type-id='036f5893' size-in-bits='32' id='2148ab3b'/>
    <qualified-type-def type-id='3c207afe' const='yes' id='42021ec3'/>
    <reference-type-def kind='lvalue' type-id='42021ec3' size-in-bits='32' id='ce56a27f'/>
    <pointer-type-def type-id='42021ec3' size-in-bits='32' id='d256a8cb'/>
    <qualified-type-def type-id='f9e4b3e7' const='yes' id='78c34362'/>
    <reference-type-def kind='lvalue' type-id='78c34362' size-in-bits='32' id='5f62e40c'/>
    <pointer-type-def type-id='78c34362' size-in-bits='32' id='6362ea58'/>
    <qualified-type-def type-id='60662a11' const='yes' id='1458d402'/>
    <reference-type-def kind='lvalue' type-id='1458d402' size-in-bits='32' id='2bd5f4ac'/>
    <pointer-type-def type-id='1458d402' size-in-bits='32' id='2fd5faf8'/>
    <qualified-type-def type-id='21d7352a' const='yes' id='05623813'/>
    <reference-type-def kind='lvalue' type-id='05623813' size-in-bits='32' id='ae9e7b6f'/>
    <pointer-type-def type-id='05623813' size-in-bits='32' id='b29e81bb'/>
    <qualified-type-def type-id='99463423' const='yes' id='84e91272'/>
    <reference-type-def kind='lvalue' type-id='84e91272' size-in-bits='32' id='8ee7da3c'/>
    <pointer-type-def type-id='84e91272' size-in-bits='32' id='92e7e088'/>
    <qualified-type-def type-id='f4edc297' const='yes' id='0542114e'/>
    <pointer-type-def type-id='0542114e' size-in-bits='32' id='ab01606c'/>
    <qualified-type-def type-id='249572b2' const='yes' id='236fe7b5'/>
    <pointer-type-def type-id='236fe7b5' size-in-bits='32' id='68299f4d'/>
    <qualified-type-def type-id='33591497' const='yes' id='ef041530'/>
    <reference-type-def kind='lvalue' type-id='ef041530' size-in-bits='32' id='596d31a2'/>
    <qualified-type-def type-id='199fc21a' const='yes' id='07053001'/>
    <reference-type-def kind='lvalue' type-id='07053001' size-in-bits='32' id='342acd65'/>
    <qualified-type-def type-id='6efd2fac' const='yes' id='0b53cd55'/>
    <reference-type-def kind='lvalue' type-id='0b53cd55' size-in-bits='32' id='47ec6c09'/>
    <pointer-type-def type-id='0b53cd55' size-in-bits='32' id='53ec7eed'/>
    <qualified-type-def type-id='53ec7eed' const='yes' id='83417942'/>
    <reference-type-def kind='lvalue' type-id='83417942' size-in-bits='32' id='0412186c'/>
    <reference-type-def kind='lvalue' type-id='53ec7eed' size-in-bits='32' id='e84b9991'/>
    <qualified-type-def type-id='2d5d8e21' const='yes' id='aade6091'/>
    <reference-type-def kind='lvalue' type-id='aade6091' size-in-bits='32' id='b3124015'/>
    <qualified-type-def type-id='ac070eda' const='yes' id='a94d5121'/>
    <pointer-type-def type-id='a94d5121' size-in-bits='32' id='8fb69451'/>
    <qualified-type-def type-id='4547cffb' const='yes' id='fc5a3b8a'/>
    <reference-type-def kind='lvalue' type-id='fc5a3b8a' size-in-bits='32' id='f00bf2ec'/>
    <qualified-type-def type-id='6a6c3f8a' const='yes' id='181848a1'/>
    <pointer-type-def type-id='181848a1' size-in-bits='32' id='793a32d1'/>
    <qualified-type-def type-id='4547cffc' const='yes' id='fc5a3b8b'/>
    <reference-type-def kind='lvalue' type-id='fc5a3b8b' size-in-bits='32' id='f00bf2ed'/>
    <qualified-type-def type-id='e982e448' const='yes' id='5bcaf7f1'/>
    <pointer-type-def type-id='5bcaf7f1' size-in-bits='32' id='5b842dc1'/>
    <qualified-type-def type-id='4547cffd' const='yes' id='fc5a3b8c'/>
    <reference-type-def kind='lvalue' type-id='fc5a3b8c' size-in-bits='32' id='f00bf2ee'/>
    <qualified-type-def type-id='075a9db6' const='yes' id='8c8e4db3'/>
    <pointer-type-def type-id='8c8e4db3' size-in-bits='32' id='dd0427db'/>
    <qualified-type-def type-id='4547cffe' const='yes' id='fc5a3b8d'/>
    <reference-type-def kind='lvalue' type-id='fc5a3b8d' size-in-bits='32' id='f00bf2ef'/>
    <qualified-type-def type-id='65b889e8' const='yes' id='7352da6d'/>
    <pointer-type-def type-id='7352da6d' size-in-bits='32' id='d26d9dc5'/>
    <qualified-type-def type-id='4547cfff' const='yes' id='fc5a3b8e'/>
    <reference-type-def kind='lvalue' type-id='fc5a3b8e' size-in-bits='32' id='f00bf2f0'/>
    <qualified-type-def type-id='603f72de' const='yes' id='bb4d3f1f'/>
    <pointer-type-def type-id='bb4d3f1f' size-in-bits='32' id='0f9a806f'/>
    <qualified-type-def type-id='4547d000' const='yes' id='fc5a3b8f'/>
    <reference-type-def kind='lvalue' type-id='fc5a3b8f' size-in-bits='32' id='f00bf2f1'/>
    <qualified-type-def type-id='56b14eae' const='yes' id='afb5051d'/>
    <reference-type-def kind='lvalue' type-id='afb5051d' size-in-bits='32' id='d4f73be1'/>
    <pointer-type-def type-id='afb5051d' size-in-bits='32' id='d0f73595'/>
    <qualified-type-def type-id='d468015d' const='yes' id='127172ed'/>
    <reference-type-def kind='lvalue' type-id='127172ed' size-in-bits='32' id='049802ca'/>
    <qualified-type-def type-id='ee1a669f' const='yes' id='dcfea06f'/>
    <reference-type-def kind='lvalue' type-id='dcfea06f' size-in-bits='32' id='31d6593b'/>
    <qualified-type-def type-id='78adc7a8' const='yes' id='ec805558'/>
    <reference-type-def kind='lvalue' type-id='ec805558' size-in-bits='32' id='c006827a'/>
    <qualified-type-def type-id='6a671eb0' const='yes' id='e35d6473'/>
    <reference-type-def kind='lvalue' type-id='e35d6473' size-in-bits='32' id='4104f1cf'/>
    <pointer-type-def type-id='e35d6473' size-in-bits='32' id='4504f81b'/>
    <qualified-type-def type-id='d468015e' const='yes' id='127172ee'/>
    <reference-type-def kind='lvalue' type-id='127172ee' size-in-bits='32' id='049802cb'/>
    <qualified-type-def type-id='6e9b5502' const='yes' id='109c5825'/>
    <reference-type-def kind='lvalue' type-id='109c5825' size-in-bits='32' id='291e8cb9'/>
    <pointer-type-def type-id='109c5825' size-in-bits='32' id='351e9f9d'/>
    <qualified-type-def type-id='d468015f' const='yes' id='127172ef'/>
    <reference-type-def kind='lvalue' type-id='127172ef' size-in-bits='32' id='049802cc'/>
    <qualified-type-def type-id='760319b5' const='yes' id='0cebea86'/>
    <reference-type-def kind='lvalue' type-id='0cebea86' size-in-bits='32' id='f76259e0'/>
    <pointer-type-def type-id='0cebea86' size-in-bits='32' id='03626cc4'/>
    <qualified-type-def type-id='62e477b8' const='yes' id='3656e148'/>
    <reference-type-def kind='lvalue' type-id='3656e148' size-in-bits='32' id='a2c458d3'/>
    <qualified-type-def type-id='a5320295' const='yes' id='6015fca8'/>
    <reference-type-def kind='lvalue' type-id='6015fca8' size-in-bits='32' id='d09c938a'/>
    <pointer-type-def type-id='6015fca8' size-in-bits='32' id='c49c80a6'/>
    <pointer-type-def type-id='3656e13f' size-in-bits='32' id='9ec4527f'/>
    <qualified-type-def type-id='1e763177' const='yes' id='3364f30a'/>
    <reference-type-def kind='lvalue' type-id='3364f30a' size-in-bits='32' id='13eace44'/>
    <pointer-type-def type-id='3364f30a' size-in-bits='32' id='07eabb60'/>
    <pointer-type-def type-id='3656e140' size-in-bits='32' id='9ec45280'/>
    <qualified-type-def type-id='46ef0c57' const='yes' id='b5643ad2'/>
    <reference-type-def kind='lvalue' type-id='b5643ad2' size-in-bits='32' id='80c8ce1c'/>
    <pointer-type-def type-id='b5643ad2' size-in-bits='32' id='84c8d468'/>
    <qualified-type-def type-id='ba2611f3' const='yes' id='7ce3efbe'/>
    <reference-type-def kind='lvalue' type-id='7ce3efbe' size-in-bits='32' id='32d22c48'/>
    <pointer-type-def type-id='7ce3efbe' size-in-bits='32' id='2ed225fc'/>
    <qualified-type-def type-id='2b166553' const='yes' id='2eeb4556'/>
    <reference-type-def kind='lvalue' type-id='2eeb4556' size-in-bits='32' id='4c5e4f50'/>
    <pointer-type-def type-id='2eeb4556' size-in-bits='32' id='585e6234'/>
    <pointer-type-def type-id='3656e141' size-in-bits='32' id='9ec45281'/>
    <qualified-type-def type-id='736f4e77' const='yes' id='343f7a92'/>
    <reference-type-def kind='lvalue' type-id='343f7a92' size-in-bits='32' id='f3ee295c'/>
    <pointer-type-def type-id='343f7a92' size-in-bits='32' id='f7ee2fa8'/>
    <qualified-type-def type-id='94c4b137' const='yes' id='5ff31802'/>
    <reference-type-def kind='lvalue' type-id='5ff31802' size-in-bits='32' id='2faf00ac'/>
    <pointer-type-def type-id='5ff31802' size-in-bits='32' id='33af06f8'/>
    <pointer-type-def type-id='3656e142' size-in-bits='32' id='9ec45282'/>
    <qualified-type-def type-id='e3e687ed' const='yes' id='ab517696'/>
    <reference-type-def kind='lvalue' type-id='ab517696' size-in-bits='32' id='613dd710'/>
    <pointer-type-def type-id='ab517696' size-in-bits='32' id='6d3de9f4'/>
    <pointer-type-def type-id='3656e143' size-in-bits='32' id='9ec45283'/>
    <qualified-type-def type-id='21156a1f' const='yes' id='fd4d5a6a'/>
    <reference-type-def kind='lvalue' type-id='fd4d5a6a' size-in-bits='32' id='0cc525a4'/>
    <pointer-type-def type-id='fd4d5a6a' size-in-bits='32' id='00c512c0'/>
    <pointer-type-def type-id='3656e144' size-in-bits='32' id='9ec45284'/>
    <qualified-type-def type-id='c9d12d66' const='yes' id='588b3216'/>
    <pointer-type-def type-id='588b3216' size-in-bits='32' id='9f201474'/>
    <qualified-type-def type-id='dddf6ca2' const='yes' id='e824a34f'/>
    <pointer-type-def type-id='e824a34f' size-in-bits='32' id='d6ad37ff'/>
    <qualified-type-def type-id='8f92235e' const='yes' id='b9930aae'/>
    <pointer-type-def type-id='b9930aae' size-in-bits='32' id='a6798dcc'/>
    <qualified-type-def type-id='b96825af' const='yes' id='2b61797f'/>
    <pointer-type-def type-id='2b61797f' size-in-bits='32' id='9f7200cf'/>
    <qualified-type-def type-id='002ac4a6' const='yes' id='ea86de29'/>
    <reference-type-def kind='lvalue' type-id='ea86de29' size-in-bits='32' id='414f919d'/>
    <qualified-type-def type-id='f0981eed' const='yes' id='20f5f452'/>
    <reference-type-def kind='lvalue' type-id='20f5f452' size-in-bits='32' id='572fd29c'/>
    <pointer-type-def type-id='20f5f452' size-in-bits='32' id='5b2fd8e8'/>
    <qualified-type-def type-id='c523b9f1' const='yes' id='effb3702'/>
    <pointer-type-def type-id='effb3702' size-in-bits='32' id='f077d3f8'/>
    <pointer-type-def type-id='f077d3f8' size-in-bits='32' id='5ea27396'/>
    <reference-type-def kind='lvalue' type-id='a6c45d85' size-in-bits='32' id='2a1f6799'/>
    <pointer-type-def type-id='a6c45d85' size-in-bits='32' id='361f7a7d'/>
    <pointer-type-def type-id='e322b6ef' size-in-bits='32' id='c5f12884'/>
    <pointer-type-def type-id='96ee24a5' size-in-bits='32' id='585e1de9'/>
    <reference-type-def kind='lvalue' type-id='95e97e5e' size-in-bits='32' id='769216e8'/>
    <pointer-type-def type-id='95e97e5e' size-in-bits='32' id='7292109c'/>
    <qualified-type-def type-id='7292109c' const='yes' id='5a5c0787'/>
    <reference-type-def kind='lvalue' type-id='5a5c0787' size-in-bits='32' id='dfe00273'/>
    <reference-type-def kind='lvalue' type-id='7292109c' size-in-bits='32' id='15f054ce'/>
    <pointer-type-def type-id='cc6e09ca' size-in-bits='32' id='d4a328b7'/>
    <pointer-type-def type-id='1704c89a' size-in-bits='32' id='03556b0c'/>
    <pointer-type-def type-id='adf18958' size-in-bits='32' id='a6979e77'/>
    <pointer-type-def type-id='c6492f6c' size-in-bits='32' id='bec89ede'/>
    <pointer-type-def type-id='8dfe2e06' size-in-bits='32' id='071e4e5d'/>
    <pointer-type-def type-id='062cf4ec' size-in-bits='32' id='679b55be'/>
    <pointer-type-def type-id='973e3c3f' size-in-bits='32' id='6292c81e'/>
    <pointer-type-def type-id='1b2606fc' size-in-bits='32' id='8fb656fe'/>
    <pointer-type-def type-id='1a7fe6b0' size-in-bits='32' id='d8263a65'/>
    <pointer-type-def type-id='1c8e3a5a' size-in-bits='32' id='190d83bc'/>
    <pointer-type-def type-id='0b9c02cb' size-in-bits='32' id='7f83e8c4'/>
    <pointer-type-def type-id='3aff0b18' size-in-bits='32' id='7b7de9b2'/>
    <pointer-type-def type-id='c8745fdc' size-in-bits='32' id='c2fb5303'/>
    <pointer-type-def type-id='f669f224' size-in-bits='32' id='20c01846'/>
    <pointer-type-def type-id='9a10f134' size-in-bits='32' id='aa210e95'/>
    <pointer-type-def type-id='31804c0e' size-in-bits='32' id='80456268'/>
    <pointer-type-def type-id='a0eb0f09' size-in-bits='32' id='7408d286'/>
    <pointer-type-def type-id='3d7d8cbf' size-in-bits='32' id='a68021ce'/>
    <pointer-type-def type-id='05d4c620' size-in-bits='32' id='b8263143'/>
    <pointer-type-def type-id='ad707ada' size-in-bits='32' id='e90c4311'/>
    <pointer-type-def type-id='b59d7dce' size-in-bits='32' id='78c01427'/>
    <reference-type-def kind='lvalue' type-id='60f5da7d' size-in-bits='32' id='809cbcf9'/>
    <reference-type-def kind='rvalue' type-id='60f5da7d' size-in-bits='32' id='55bd530d'/>
    <pointer-type-def type-id='60f5da7d' size-in-bits='32' id='8c9ccfdd'/>
    <reference-type-def kind='lvalue' type-id='97941460' size-in-bits='32' id='0f3c59ea'/>
    <reference-type-def kind='rvalue' type-id='97941460' size-in-bits='32' id='c8015c24'/>
    <pointer-type-def type-id='97941460' size-in-bits='32' id='033c4706'/>
    <reference-type-def kind='lvalue' type-id='64fb4db3' size-in-bits='32' id='e848cad7'/>
    <reference-type-def kind='rvalue' type-id='64fb4db3' size-in-bits='32' id='9b977963'/>
    <pointer-type-def type-id='64fb4db3' size-in-bits='32' id='dc48b7f3'/>
    <reference-type-def kind='lvalue' type-id='c8491dd8' size-in-bits='32' id='b8cb9312'/>
    <reference-type-def kind='rvalue' type-id='c8491dd8' size-in-bits='32' id='1c78badc'/>
    <pointer-type-def type-id='c8491dd8' size-in-bits='32' id='bccb995e'/>
    <reference-type-def kind='lvalue' type-id='143a6b6f' size-in-bits='32' id='591d24b5'/>
    <reference-type-def kind='lvalue' type-id='ba4fbcc4' size-in-bits='32' id='4d8e4cde'/>
    <pointer-type-def type-id='ba4fbcc4' size-in-bits='32' id='498e4692'/>
    <reference-type-def kind='lvalue' type-id='2ef4b79c' size-in-bits='32' id='35f62c46'/>
    <pointer-type-def type-id='2ef4b79c' size-in-bits='32' id='41f63f2a'/>
    <reference-type-def kind='lvalue' type-id='37dd8aae' size-in-bits='32' id='7c69c730'/>
    <pointer-type-def type-id='37dd8aae' size-in-bits='32' id='8869da14'/>
    <reference-type-def kind='lvalue' type-id='e015e2ec' size-in-bits='32' id='a0048bb6'/>
    <pointer-type-def type-id='e015e2ec' size-in-bits='32' id='ac049e9a'/>
    <reference-type-def kind='lvalue' type-id='f045688c' size-in-bits='32' id='b7f1e036'/>
    <pointer-type-def type-id='f045688c' size-in-bits='32' id='c3f1f31a'/>
    <reference-type-def kind='lvalue' type-id='94df1ca8' size-in-bits='32' id='1563fbe2'/>
    <pointer-type-def type-id='94df1ca8' size-in-bits='32' id='1964022e'/>
    <reference-type-def kind='lvalue' type-id='43b7c228' size-in-bits='32' id='9bc35562'/>
    <pointer-type-def type-id='43b7c228' size-in-bits='32' id='9fc35bae'/>
    <reference-type-def kind='lvalue' type-id='1988293c' size-in-bits='32' id='597d9276'/>
    <pointer-type-def type-id='1988293c' size-in-bits='32' id='657da55a'/>
    <reference-type-def kind='lvalue' type-id='c01a67f4' size-in-bits='32' id='8a40fade'/>
    <pointer-type-def type-id='c01a67f4' size-in-bits='32' id='8640f492'/>
    <reference-type-def kind='lvalue' type-id='ec22f6fc' size-in-bits='32' id='924ba976'/>
    <pointer-type-def type-id='ec22f6fc' size-in-bits='32' id='9e4bbc5a'/>
    <reference-type-def kind='lvalue' type-id='58870df2' size-in-bits='32' id='ad688bd4'/>
    <pointer-type-def type-id='58870df2' size-in-bits='32' id='a16878f0'/>
    <reference-type-def kind='lvalue' type-id='d22df4cd' size-in-bits='32' id='3af667b9'/>
    <pointer-type-def type-id='d22df4cd' size-in-bits='32' id='46f67a9d'/>
    <reference-type-def kind='lvalue' type-id='2622dfea' size-in-bits='32' id='f0d20a3c'/>
    <pointer-type-def type-id='2622dfea' size-in-bits='32' id='f4d21088'/>
    <reference-type-def kind='lvalue' type-id='39b8e88f' size-in-bits='32' id='de277393'/>
    <pointer-type-def type-id='39b8e88f' size-in-bits='32' id='ea278677'/>
    <reference-type-def kind='lvalue' type-id='97d0af14' size-in-bits='32' id='55394a2e'/>
    <pointer-type-def type-id='97d0af14' size-in-bits='32' id='513943e2'/>
    <reference-type-def kind='lvalue' type-id='7d3bb31a' size-in-bits='32' id='4f5ef92c'/>
    <pointer-type-def type-id='7d3bb31a' size-in-bits='32' id='535eff78'/>
    <reference-type-def kind='lvalue' type-id='5fea02b3' size-in-bits='32' id='65f90817'/>
    <pointer-type-def type-id='5fea02b3' size-in-bits='32' id='59f8f533'/>
    <reference-type-def kind='lvalue' type-id='063dbdb6' size-in-bits='32' id='7c829be8'/>
    <pointer-type-def type-id='063dbdb6' size-in-bits='32' id='7882959c'/>
    <reference-type-def kind='lvalue' type-id='45b74b57' size-in-bits='32' id='c0b8028b'/>
    <pointer-type-def type-id='45b74b57' size-in-bits='32' id='bcb7fc3f'/>
    <reference-type-def kind='lvalue' type-id='ffcdd1b2' size-in-bits='32' id='c69cf914'/>
    <pointer-type-def type-id='ffcdd1b2' size-in-bits='32' id='ba9ce630'/>
    <reference-type-def kind='lvalue' type-id='cd354cef' size-in-bits='32' id='7080b073'/>
    <pointer-type-def type-id='cd354cef' size-in-bits='32' id='7c80c357'/>
    <reference-type-def kind='lvalue' type-id='7dee695e' size-in-bits='32' id='bc3ebe00'/>
    <pointer-type-def type-id='7dee695e' size-in-bits='32' id='c83ed0e4'/>
    <reference-type-def kind='lvalue' type-id='f03ebc7b' size-in-bits='32' id='f771cb0f'/>
    <pointer-type-def type-id='f03ebc7b' size-in-bits='32' id='fb71d15b'/>
    <reference-type-def kind='lvalue' type-id='678452de' size-in-bits='32' id='ad62c780'/>
    <pointer-type-def type-id='678452de' size-in-bits='32' id='b962da64'/>
    <reference-type-def kind='lvalue' type-id='8d3c18f6' size-in-bits='32' id='e7edb488'/>
    <pointer-type-def type-id='8d3c18f6' size-in-bits='32' id='e3edae3c'/>
    <reference-type-def kind='lvalue' type-id='c24f72a3' size-in-bits='32' id='846b33c7'/>
    <pointer-type-def type-id='c24f72a3' size-in-bits='32' id='786b20e3'/>
    <reference-type-def kind='lvalue' type-id='e8967c46' size-in-bits='32' id='07ca8f98'/>
    <pointer-type-def type-id='e8967c46' size-in-bits='32' id='03ca894c'/>
    <reference-type-def kind='lvalue' type-id='e83f8f8d' size-in-bits='32' id='859efd59'/>
    <pointer-type-def type-id='e83f8f8d' size-in-bits='32' id='919f103d'/>
    <reference-type-def kind='lvalue' type-id='057d9591' size-in-bits='32' id='580c235d'/>
    <pointer-type-def type-id='057d9591' size-in-bits='32' id='4c0c1079'/>
    <reference-type-def kind='lvalue' type-id='7312e504' size-in-bits='32' id='4666712e'/>
    <pointer-type-def type-id='7312e504' size-in-bits='32' id='42666ae2'/>
    <reference-type-def kind='lvalue' type-id='49a21e67' size-in-bits='32' id='89073f2b'/>
    <pointer-type-def type-id='49a21e67' size-in-bits='32' id='850738df'/>
    <reference-type-def kind='lvalue' type-id='8b54feb4' size-in-bits='32' id='0b34c5be'/>
    <pointer-type-def type-id='8b54feb4' size-in-bits='32' id='0734bf72'/>
    <reference-type-def kind='lvalue' type-id='227041e1' size-in-bits='32' id='cd1a163d'/>
    <pointer-type-def type-id='227041e1' size-in-bits='32' id='c11a0359'/>
    <pointer-type-def type-id='9c4a3aff' size-in-bits='32' id='36c07807'/>
    <pointer-type-def type-id='22e56ec2' size-in-bits='32' id='2e0abaf0'/>
    <pointer-type-def type-id='b5df5bdc' size-in-bits='32' id='260dd06a'/>
    <pointer-type-def type-id='3b4d4373' size-in-bits='32' id='9592fed3'/>
    <pointer-type-def type-id='277bc372' size-in-bits='32' id='de02ba70'/>
    <pointer-type-def type-id='aa3451ec' size-in-bits='32' id='1166b2fa'/>
    <pointer-type-def type-id='e4d4d078' size-in-bits='32' id='02ec61be'/>
    <pointer-type-def type-id='63c7c233' size-in-bits='32' id='b68d6183'/>
    <pointer-type-def type-id='7c4db7cf' size-in-bits='32' id='c9bc71a7'/>
    <pointer-type-def type-id='6932bb90' size-in-bits='32' id='49ce5ba6'/>
    <pointer-type-def type-id='9884ef0e' size-in-bits='32' id='24a161d4'/>
    <pointer-type-def type-id='cd94fd85' size-in-bits='32' id='3e80e3d5'/>
    <pointer-type-def type-id='77d669a5' size-in-bits='32' id='f24621a5'/>
    <pointer-type-def type-id='a885088e' size-in-bits='32' id='9da29e54'/>
    <pointer-type-def type-id='7b346a3f' size-in-bits='32' id='3d25ebe7'/>
    <pointer-type-def type-id='ff06e1a2' size-in-bits='32' id='10856d80'/>
    <pointer-type-def type-id='c230c56f' size-in-bits='32' id='c2f5efe7'/>
    <pointer-type-def type-id='a3175723' size-in-bits='32' id='c4948923'/>
    <pointer-type-def type-id='c6d12234' size-in-bits='32' id='d1682362'/>
    <pointer-type-def type-id='6fb577ee' size-in-bits='32' id='f2c555e4'/>
    <pointer-type-def type-id='7873fb6d' size-in-bits='32' id='4f55591d'/>
    <pointer-type-def type-id='34bedffd' size-in-bits='32' id='a464139d'/>
    <pointer-type-def type-id='37ff4804' size-in-bits='32' id='78d1d352'/>
    <pointer-type-def type-id='225e915e' size-in-bits='32' id='ad5df6b4'/>
    <pointer-type-def type-id='1d6097d7' size-in-bits='32' id='12925a2f'/>
    <pointer-type-def type-id='9e7f15b0' size-in-bits='32' id='3c4129e6'/>
    <pointer-type-def type-id='70ed5ac7' size-in-bits='32' id='48b5a59f'/>
    <pointer-type-def type-id='7068a110' size-in-bits='32' id='10ecf146'/>
    <pointer-type-def type-id='e771cfad' size-in-bits='32' id='96c7730d'/>
    <pointer-type-def type-id='3efb2c0e' size-in-bits='32' id='acd46504'/>
    <pointer-type-def type-id='8288923d' size-in-bits='32' id='07c0801d'/>
    <pointer-type-def type-id='5a2afa10' size-in-bits='32' id='85e0e7c6'/>
    <pointer-type-def type-id='f9da37d1' size-in-bits='32' id='a1203c49'/>
    <pointer-type-def type-id='5e03174f' size-in-bits='32' id='1f3e8087'/>
    <pointer-type-def type-id='56dccc53' size-in-bits='32' id='600282c3'/>
    <pointer-type-def type-id='02c104af' size-in-bits='32' id='1dec42a7'/>
    <pointer-type-def type-id='bae33ff3' size-in-bits='32' id='735645b3'/>
    <pointer-type-def type-id='d9fbed1c' size-in-bits='32' id='d0a2215a'/>
    <pointer-type-def type-id='ed8c4278' size-in-bits='32' id='ed8afb2e'/>
    <pointer-type-def type-id='f2c63883' size-in-bits='32' id='8ce169d3'/>
    <pointer-type-def type-id='51ebade8' size-in-bits='32' id='b782537e'/>
    <pointer-type-def type-id='62ec4a33' size-in-bits='32' id='9c0dd783'/>
    <pointer-type-def type-id='1adfd3e6' size-in-bits='32' id='a86db4cc'/>
    <pointer-type-def type-id='95757501' size-in-bits='32' id='419b8fc9'/>
    <pointer-type-def type-id='b284e6e2' size-in-bits='32' id='52901a60'/>
    <pointer-type-def type-id='2a699f96' size-in-bits='32' id='6502f14c'/>
    <pointer-type-def type-id='579722ef' size-in-bits='32' id='0606baf7'/>
    <pointer-type-def type-id='adb0d72c' size-in-bits='32' id='814ebb9a'/>
    <pointer-type-def type-id='6e3f46eb' size-in-bits='32' id='f8651eeb'/>
    <pointer-type-def type-id='fcbd9376' size-in-bits='32' id='1145dfec'/>
    <pointer-type-def type-id='dd0abe4a' size-in-bits='32' id='b7ff7a48'/>
    <pointer-type-def type-id='0713c6a2' size-in-bits='32' id='6327cc10'/>
    <pointer-type-def type-id='8d9552b9' size-in-bits='32' id='f0e04c01'/>
    <pointer-type-def type-id='20704346' size-in-bits='32' id='85bea75c'/>
    <pointer-type-def type-id='abfeb1fe' size-in-bits='32' id='f2188c84'/>
    <pointer-type-def type-id='8051cbec' size-in-bits='32' id='990b291a'/>
    <reference-type-def kind='lvalue' type-id='488eea75' size-in-bits='32' id='0a31d471'/>
    <reference-type-def kind='rvalue' type-id='488eea75' size-in-bits='32' id='637144f5'/>
    <pointer-type-def type-id='488eea75' size-in-bits='32' id='0631ce25'/>
    <reference-type-def kind='lvalue' type-id='1c507e8b' size-in-bits='32' id='5417a92f'/>
    <pointer-type-def type-id='1c507e8b' size-in-bits='32' id='5817af7b'/>
    <reference-type-def kind='rvalue' type-id='8940485c' size-in-bits='32' id='9a5d496d'/>
    <pointer-type-def type-id='8940485c' size-in-bits='32' id='99687bbd'/>
    <reference-type-def kind='lvalue' type-id='63aa61d5' size-in-bits='32' id='d2ece510'/>
    <reference-type-def kind='lvalue' type-id='7194074a' size-in-bits='32' id='0d58425c'/>
    <pointer-type-def type-id='7194074a' size-in-bits='32' id='115848a8'/>
    <reference-type-def kind='lvalue' type-id='568a771a' size-in-bits='32' id='a5bc25fc'/>
    <pointer-type-def type-id='568a771a' size-in-bits='32' id='a9bc2c48'/>
    <qualified-type-def type-id='a9bc2c48' const='yes' id='a8f2489b'/>
    <reference-type-def kind='lvalue' type-id='a8f2489b' size-in-bits='32' id='b2688187'/>
    <pointer-type-def type-id='a8f2489b' size-in-bits='32' id='a6686ea3'/>
    <reference-type-def kind='lvalue' type-id='a9bc2c48' size-in-bits='32' id='a139f12a'/>
    <pointer-type-def type-id='a9bc2c48' size-in-bits='32' id='9539de46'/>
    <qualified-type-def type-id='9539de46' const='yes' id='5cd02479'/>
    <reference-type-def kind='lvalue' type-id='5cd02479' size-in-bits='32' id='7aa9418d'/>
    <reference-type-def kind='lvalue' type-id='9539de46' size-in-bits='32' id='4a191120'/>
    <reference-type-def kind='lvalue' type-id='602ad079' size-in-bits='32' id='5d627b15'/>
    <pointer-type-def type-id='602ad079' size-in-bits='32' id='61628161'/>
    <qualified-type-def type-id='61628161' const='yes' id='cb0e253e'/>
    <reference-type-def kind='lvalue' type-id='cb0e253e' size-in-bits='32' id='bf4464c8'/>
    <pointer-type-def type-id='cb0e253e' size-in-bits='32' id='bb445e7c'/>
    <reference-type-def kind='lvalue' type-id='61628161' size-in-bits='32' id='951182c5'/>
    <pointer-type-def type-id='61628161' size-in-bits='32' id='99118911'/>
    <qualified-type-def type-id='99118911' const='yes' id='2a6a20ee'/>
    <reference-type-def kind='lvalue' type-id='2a6a20ee' size-in-bits='32' id='8d119ad8'/>
    <reference-type-def kind='lvalue' type-id='99118911' size-in-bits='32' id='2d9b0195'/>
    <reference-type-def kind='lvalue' type-id='581cf3d8' size-in-bits='32' id='03df9612'/>
    <pointer-type-def type-id='581cf3d8' size-in-bits='32' id='07df9c5e'/>
    <qualified-type-def type-id='07df9c5e' const='yes' id='cdab2951'/>
    <reference-type-def kind='lvalue' type-id='cdab2951' size-in-bits='32' id='3b724655'/>
    <pointer-type-def type-id='cdab2951' size-in-bits='32' id='3f724ca1'/>
    <reference-type-def kind='lvalue' type-id='07df9c5e' size-in-bits='32' id='dd0350e8'/>
    <pointer-type-def type-id='07df9c5e' size-in-bits='32' id='d9034a9c'/>
    <qualified-type-def type-id='d9034a9c' const='yes' id='7f737187'/>
    <reference-type-def kind='lvalue' type-id='7f737187' size-in-bits='32' id='43bbe073'/>
    <reference-type-def kind='lvalue' type-id='d9034a9c' size-in-bits='32' id='5a2ea2ce'/>
    <reference-type-def kind='lvalue' type-id='f76a9935' size-in-bits='32' id='ec9f5471'/>
    <pointer-type-def type-id='f76a9935' size-in-bits='32' id='e89f4e25'/>
    <qualified-type-def type-id='e89f4e25' const='yes' id='c3ed119a'/>
    <reference-type-def kind='lvalue' type-id='c3ed119a' size-in-bits='32' id='2a32eaf4'/>
    <pointer-type-def type-id='c3ed119a' size-in-bits='32' id='1e32d810'/>
    <reference-type-def kind='lvalue' type-id='e89f4e25' size-in-bits='32' id='35c7ceb9'/>
    <pointer-type-def type-id='e89f4e25' size-in-bits='32' id='41c7e19d'/>
    <qualified-type-def type-id='41c7e19d' const='yes' id='168d64f2'/>
    <reference-type-def kind='lvalue' type-id='168d64f2' size-in-bits='32' id='5495b9bc'/>
    <reference-type-def kind='lvalue' type-id='41c7e19d' size-in-bits='32' id='48a85961'/>
    <reference-type-def kind='lvalue' type-id='0b8a9bd4' size-in-bits='32' id='5cacf4ee'/>
    <reference-type-def kind='rvalue' type-id='0b8a9bd4' size-in-bits='32' id='ac4556d8'/>
    <pointer-type-def type-id='0b8a9bd4' size-in-bits='32' id='58aceea2'/>
    <reference-type-def kind='lvalue' type-id='73729dcc' size-in-bits='32' id='a6279a6d'/>
    <reference-type-def kind='lvalue' type-id='ee1a669b' size-in-bits='32' id='d7d2bfa4'/>
    <reference-type-def kind='lvalue' type-id='78adc7a4' size-in-bits='32' id='6134d41f'/>
    <reference-type-def kind='lvalue' type-id='b069d066' size-in-bits='32' id='4ff59118'/>
    <reference-type-def kind='rvalue' type-id='b069d066' size-in-bits='32' id='1d93a49a'/>
    <pointer-type-def type-id='b069d066' size-in-bits='32' id='4bf58acc'/>
    <reference-type-def kind='lvalue' type-id='73729dcd' size-in-bits='32' id='a6279a6e'/>
    <reference-type-def kind='lvalue' type-id='ee1a669c' size-in-bits='32' id='d7d2bfa5'/>
    <reference-type-def kind='lvalue' type-id='78adc7a5' size-in-bits='32' id='6134d420'/>
    <reference-type-def kind='lvalue' type-id='16cfbc82' size-in-bits='32' id='097b72c4'/>
    <reference-type-def kind='rvalue' type-id='16cfbc82' size-in-bits='32' id='cf55d9c6'/>
    <pointer-type-def type-id='16cfbc82' size-in-bits='32' id='fd7b5fe0'/>
    <reference-type-def kind='lvalue' type-id='73729dce' size-in-bits='32' id='a6279a6f'/>
    <reference-type-def kind='lvalue' type-id='ee1a669d' size-in-bits='32' id='d7d2bfa6'/>
    <reference-type-def kind='lvalue' type-id='78adc7a6' size-in-bits='32' id='6134d421'/>
    <reference-type-def kind='lvalue' type-id='d6a92829' size-in-bits='32' id='d3305665'/>
    <reference-type-def kind='rvalue' type-id='d6a92829' size-in-bits='32' id='b817cb79'/>
    <pointer-type-def type-id='d6a92829' size-in-bits='32' id='d7305cb1'/>
    <reference-type-def kind='rvalue' type-id='8940485d' size-in-bits='32' id='9a5d496e'/>
    <reference-type-def kind='lvalue' type-id='73729dcf' size-in-bits='32' id='a6279a70'/>
    <reference-type-def kind='lvalue' type-id='ee1a669e' size-in-bits='32' id='d7d2bfa7'/>
    <reference-type-def kind='lvalue' type-id='78adc7a7' size-in-bits='32' id='6134d422'/>
    <reference-type-def kind='lvalue' type-id='62e477b9' size-in-bits='32' id='dcfa1383'/>
    <pointer-type-def type-id='fc549f25' size-in-bits='32' id='e0676d62'/>
    <reference-type-def kind='lvalue' type-id='2c8660ce' size-in-bits='32' id='494c85f0'/>
    <pointer-type-def type-id='2c8660ce' size-in-bits='32' id='554c98d4'/>
    <reference-type-def kind='lvalue' type-id='92024495' size-in-bits='32' id='98ae32f1'/>
    <pointer-type-def type-id='92024495' size-in-bits='32' id='94ae2ca5'/>
    <reference-type-def kind='lvalue' type-id='16537306' size-in-bits='32' id='721fa698'/>
    <pointer-type-def type-id='16537306' size-in-bits='32' id='6e1fa04c'/>
    <reference-type-def kind='lvalue' type-id='60e02119' size-in-bits='32' id='1673d4d5'/>
    <pointer-type-def type-id='60e02119' size-in-bits='32' id='1a73db21'/>
    <reference-type-def kind='lvalue' type-id='9a771f60' size-in-bits='32' id='e9d176ca'/>
    <pointer-type-def type-id='9a771f60' size-in-bits='32' id='ddd163e6'/>
    <reference-type-def kind='lvalue' type-id='966331d7' size-in-bits='32' id='b0a637eb'/>
    <pointer-type-def type-id='966331d7' size-in-bits='32' id='aca6319f'/>
    <reference-type-def kind='lvalue' type-id='6a81bf9f' size-in-bits='32' id='cea5dfc3'/>
    <pointer-type-def type-id='6a81bf9f' size-in-bits='32' id='daa5f2a7'/>
    <reference-type-def kind='rvalue' type-id='d468014e' size-in-bits='32' id='9d32e7b7'/>
    <reference-type-def kind='lvalue' type-id='0504b9a0' size-in-bits='32' id='3b4b8de4'/>
    <reference-type-def kind='lvalue' type-id='62e477b0' size-in-bits='32' id='dcfa1384'/>
    <reference-type-def kind='lvalue' type-id='a104f5a1' size-in-bits='32' id='7f537f6d'/>
    <pointer-type-def type-id='a104f5a1' size-in-bits='32' id='73536c89'/>
    <reference-type-def kind='rvalue' type-id='d468014f' size-in-bits='32' id='9d32e7b8'/>
    <reference-type-def kind='lvalue' type-id='0504b9a1' size-in-bits='32' id='3b4b8de5'/>
    <reference-type-def kind='lvalue' type-id='62e477b1' size-in-bits='32' id='dcfa1385'/>
    <reference-type-def kind='lvalue' type-id='97ba1631' size-in-bits='32' id='724e3f1d'/>
    <pointer-type-def type-id='97ba1631' size-in-bits='32' id='664e2c39'/>
    <reference-type-def kind='rvalue' type-id='d4680150' size-in-bits='32' id='9d32e7b9'/>
    <reference-type-def kind='lvalue' type-id='951e44e5' size-in-bits='32' id='1175ea41'/>
    <pointer-type-def type-id='951e44e5' size-in-bits='32' id='0d75e3f5'/>
    <reference-type-def kind='rvalue' type-id='d4680151' size-in-bits='32' id='9d32e7ba'/>
    <reference-type-def kind='lvalue' type-id='86513975' size-in-bits='32' id='628bf231'/>
    <pointer-type-def type-id='86513975' size-in-bits='32' id='5e8bebe5'/>
    <reference-type-def kind='rvalue' type-id='d4680152' size-in-bits='32' id='9d32e7bb'/>
    <reference-type-def kind='lvalue' type-id='0504b9a2' size-in-bits='32' id='3b4b8de6'/>
    <reference-type-def kind='lvalue' type-id='62e477b2' size-in-bits='32' id='dcfa1386'/>
    <reference-type-def kind='lvalue' type-id='cc5cd419' size-in-bits='32' id='00a02db5'/>
    <pointer-type-def type-id='cc5cd419' size-in-bits='32' id='04a03401'/>
    <reference-type-def kind='rvalue' type-id='d4680155' size-in-bits='32' id='9d32e7bc'/>
    <reference-type-def kind='lvalue' type-id='dfecc261' size-in-bits='32' id='8909690d'/>
    <pointer-type-def type-id='dfecc261' size-in-bits='32' id='7d095629'/>
    <reference-type-def kind='rvalue' type-id='d4680156' size-in-bits='32' id='9d32e7bd'/>
    <reference-type-def kind='lvalue' type-id='0504b9a3' size-in-bits='32' id='3b4b8de7'/>
    <reference-type-def kind='lvalue' type-id='62e477b3' size-in-bits='32' id='dcfa1387'/>
    <reference-type-def kind='lvalue' type-id='4bafa653' size-in-bits='32' id='06365a47'/>
    <pointer-type-def type-id='4bafa653' size-in-bits='32' id='fa364763'/>
    <reference-type-def kind='rvalue' type-id='d4680157' size-in-bits='32' id='9d32e7be'/>
    <reference-type-def kind='lvalue' type-id='0504b9a4' size-in-bits='32' id='3b4b8de8'/>
    <reference-type-def kind='lvalue' type-id='62e477b4' size-in-bits='32' id='dcfa1388'/>
    <reference-type-def kind='lvalue' type-id='ccc1a701' size-in-bits='32' id='4ce1e3ed'/>
    <pointer-type-def type-id='ccc1a701' size-in-bits='32' id='40e1d109'/>
    <reference-type-def kind='rvalue' type-id='d4680158' size-in-bits='32' id='9d32e7bf'/>
    <reference-type-def kind='lvalue' type-id='0504b999' size-in-bits='32' id='3b4b8de9'/>
    <reference-type-def kind='lvalue' type-id='62e477b5' size-in-bits='32' id='dcfa1389'/>
    <reference-type-def kind='lvalue' type-id='c99d6d34' size-in-bits='32' id='b18c044e'/>
    <pointer-type-def type-id='c99d6d34' size-in-bits='32' id='ad8bfe02'/>
    <reference-type-def kind='lvalue' type-id='a122f21c' size-in-bits='32' id='ca861806'/>
    <pointer-type-def type-id='a122f21c' size-in-bits='32' id='d6862aea'/>
    <reference-type-def kind='lvalue' type-id='4f878678' size-in-bits='32' id='aa41aef2'/>
    <pointer-type-def type-id='4f878678' size-in-bits='32' id='ae41b53e'/>
    <reference-type-def kind='lvalue' type-id='fb2b2135' size-in-bits='32' id='02fa9691'/>
    <pointer-type-def type-id='fb2b2135' size-in-bits='32' id='fefa9045'/>
    <reference-type-def kind='lvalue' type-id='f96f37f4' size-in-bits='32' id='804fe02e'/>
    <pointer-type-def type-id='f96f37f4' size-in-bits='32' id='7c4fd9e2'/>
    <reference-type-def kind='lvalue' type-id='dbb0c32e' size-in-bits='32' id='b280ec50'/>
    <pointer-type-def type-id='dbb0c32e' size-in-bits='32' id='be80ff34'/>
    <reference-type-def kind='lvalue' type-id='bc83a16a' size-in-bits='32' id='fbbf8bdc'/>
    <pointer-type-def type-id='bc83a16a' size-in-bits='32' id='ffbf9228'/>
    <reference-type-def kind='lvalue' type-id='443bd0ae' size-in-bits='32' id='feddd5f0'/>
    <pointer-type-def type-id='443bd0ae' size-in-bits='32' id='0adde8d4'/>
    <reference-type-def kind='lvalue' type-id='c7b95082' size-in-bits='32' id='11540f74'/>
    <pointer-type-def type-id='c7b95082' size-in-bits='32' id='0553fc90'/>
    <reference-type-def kind='lvalue' type-id='c566fa15' size-in-bits='32' id='f548e091'/>
    <pointer-type-def type-id='c566fa15' size-in-bits='32' id='f148da45'/>
    <reference-type-def kind='lvalue' type-id='35484ac1' size-in-bits='32' id='f3573b8d'/>
    <pointer-type-def type-id='35484ac1' size-in-bits='32' id='e75728a9'/>
    <reference-type-def kind='lvalue' type-id='9d7cc6de' size-in-bits='32' id='6d8aa860'/>
    <pointer-type-def type-id='9d7cc6de' size-in-bits='32' id='798abb44'/>
    <reference-type-def kind='lvalue' type-id='fe392671' size-in-bits='32' id='a9f79cfd'/>
    <pointer-type-def type-id='fe392671' size-in-bits='32' id='9df78a19'/>
    <reference-type-def kind='lvalue' type-id='48b06606' size-in-bits='32' id='f035ee58'/>
    <pointer-type-def type-id='48b06606' size-in-bits='32' id='ec35e80c'/>
    <reference-type-def kind='lvalue' type-id='251e995b' size-in-bits='32' id='c9a1305f'/>
    <pointer-type-def type-id='251e995b' size-in-bits='32' id='cda136ab'/>
    <reference-type-def kind='lvalue' type-id='619f09b0' size-in-bits='32' id='7e0ac88a'/>
    <pointer-type-def type-id='619f09b0' size-in-bits='32' id='720ab5a6'/>
    <reference-type-def kind='lvalue' type-id='500299ab' size-in-bits='32' id='f0f3daef'/>
    <pointer-type-def type-id='500299ab' size-in-bits='32' id='f4f3e13b'/>
    <reference-type-def kind='lvalue' type-id='089fe5a3' size-in-bits='32' id='3f8e6e67'/>
    <pointer-type-def type-id='089fe5a3' size-in-bits='32' id='338e5b83'/>
    <reference-type-def kind='lvalue' type-id='f6626d42' size-in-bits='32' id='68fec754'/>
    <pointer-type-def type-id='f6626d42' size-in-bits='32' id='5cfeb470'/>
    <reference-type-def kind='lvalue' type-id='bf1e7ced' size-in-bits='32' id='60381229'/>
    <pointer-type-def type-id='bf1e7ced' size-in-bits='32' id='6c38250d'/>
    <reference-type-def kind='lvalue' type-id='1b40f38a' size-in-bits='32' id='a8a7390c'/>
    <pointer-type-def type-id='1b40f38a' size-in-bits='32' id='aca73f58'/>
    <pointer-type-def type-id='30745bfb' size-in-bits='32' id='261c418b'/>
    <pointer-type-def type-id='82ce69b4' size-in-bits='32' id='3d639e42'/>
    <pointer-type-def type-id='7a1975f9' size-in-bits='32' id='2f15c3e1'/>
    <pointer-type-def type-id='d05727fd' size-in-bits='32' id='9207f1dd'/>
    <pointer-type-def type-id='9d7dd6fe' size-in-bits='32' id='5b2fee24'/>
    <pointer-type-def type-id='84f52bff' size-in-bits='32' id='539a4b27'/>
    <pointer-type-def type-id='d784bbd4' size-in-bits='32' id='e5e99ab2'/>
    <reference-type-def kind='lvalue' type-id='d468014e' size-in-bits='32' id='c9e2e7eb'/>
    <reference-type-def kind='lvalue' type-id='d468014f' size-in-bits='32' id='c9e2e7ec'/>
    <reference-type-def kind='lvalue' type-id='d4680150' size-in-bits='32' id='c9e2e7ed'/>
    <reference-type-def kind='lvalue' type-id='d4680151' size-in-bits='32' id='c9e2e7ee'/>
    <reference-type-def kind='lvalue' type-id='d4680152' size-in-bits='32' id='c9e2e7ef'/>
    <reference-type-def kind='lvalue' type-id='d4680153' size-in-bits='32' id='c9e2e7f0'/>
    <reference-type-def kind='lvalue' type-id='d4680154' size-in-bits='32' id='c9e2e7f1'/>
    <reference-type-def kind='lvalue' type-id='d4680155' size-in-bits='32' id='c9e2e7f2'/>
    <reference-type-def kind='lvalue' type-id='d4680156' size-in-bits='32' id='c9e2e7f3'/>
    <reference-type-def kind='lvalue' type-id='d4680157' size-in-bits='32' id='c9e2e7f4'/>
    <reference-type-def kind='lvalue' type-id='d4680158' size-in-bits='32' id='c9e2e7f5'/>
    <reference-type-def kind='lvalue' type-id='d468014a' size-in-bits='32' id='c9e2e7f6'/>
    <reference-type-def kind='lvalue' type-id='d468014b' size-in-bits='32' id='c9e2e7f7'/>
    <reference-type-def kind='lvalue' type-id='d468014c' size-in-bits='32' id='c9e2e7f8'/>
    <reference-type-def kind='lvalue' type-id='d468014d' size-in-bits='32' id='c9e2e7f9'/>
    <reference-type-def kind='lvalue' type-id='d4680159' size-in-bits='32' id='c9e2e7fa'/>
    <reference-type-def kind='lvalue' type-id='d468015a' size-in-bits='32' id='c9e2e7fb'/>
    <reference-type-def kind='lvalue' type-id='d468015b' size-in-bits='32' id='c9e2e7fc'/>
    <reference-type-def kind='lvalue' type-id='d468015c' size-in-bits='32' id='c9e2e7fd'/>
    <reference-type-def kind='lvalue' type-id='155e8fd8' size-in-bits='32' id='707c1c12'/>
    <pointer-type-def type-id='155e8fd8' size-in-bits='32' id='747c225e'/>
    <reference-type-def kind='lvalue' type-id='62e477b6' size-in-bits='32' id='dcfa138a'/>
    <pointer-type-def type-id='62e477b6' size-in-bits='32' id='e8fa2667'/>
    <reference-type-def kind='lvalue' type-id='4da3c689' size-in-bits='32' id='7da10fe5'/>
    <reference-type-def kind='lvalue' type-id='cea92a70' size-in-bits='32' id='b35fb9ea'/>
    <reference-type-def kind='rvalue' type-id='cea92a70' size-in-bits='32' id='2bb17c24'/>
    <pointer-type-def type-id='cea92a70' size-in-bits='32' id='a75fa706'/>
    <reference-type-def kind='lvalue' type-id='ca9cbb0d' size-in-bits='32' id='d74abfe9'/>
    <reference-type-def kind='lvalue' type-id='62e477ae' size-in-bits='32' id='dcfa138b'/>
    <pointer-type-def type-id='62e477ae' size-in-bits='32' id='e8fa2668'/>
    <reference-type-def kind='lvalue' type-id='501d9695' size-in-bits='32' id='9787af61'/>
    <pointer-type-def type-id='501d9695' size-in-bits='32' id='9387a915'/>
    <reference-type-def kind='lvalue' type-id='0c3d541d' size-in-bits='32' id='46741e50'/>
    <pointer-type-def type-id='0c3d541d' size-in-bits='32' id='52743134'/>
    <reference-type-def kind='lvalue' type-id='4d462c8e' size-in-bits='32' id='2ce10b71'/>
    <reference-type-def kind='lvalue' type-id='4d462c8f' size-in-bits='32' id='2ce10b72'/>
    <reference-type-def kind='lvalue' type-id='4d462c90' size-in-bits='32' id='2ce10b73'/>
    <reference-type-def kind='lvalue' type-id='4d462c91' size-in-bits='32' id='2ce10b74'/>
    <reference-type-def kind='lvalue' type-id='4d462c92' size-in-bits='32' id='2ce10b75'/>
    <reference-type-def kind='lvalue' type-id='4d462c93' size-in-bits='32' id='2ce10b76'/>
    <reference-type-def kind='lvalue' type-id='4d462c94' size-in-bits='32' id='2ce10b77'/>
    <reference-type-def kind='lvalue' type-id='4d462c95' size-in-bits='32' id='2ce10b78'/>
    <reference-type-def kind='lvalue' type-id='4d462c96' size-in-bits='32' id='2ce10b79'/>
    <reference-type-def kind='lvalue' type-id='4d462c97' size-in-bits='32' id='2ce10b7a'/>
    <reference-type-def kind='lvalue' type-id='4d462c98' size-in-bits='32' id='2ce10b7b'/>
    <reference-type-def kind='lvalue' type-id='4d462c99' size-in-bits='32' id='2ce10b7c'/>
    <reference-type-def kind='lvalue' type-id='4d462c9a' size-in-bits='32' id='2ce10b7d'/>
    <reference-type-def kind='rvalue' type-id='4d462c8d' size-in-bits='32' id='fd44d9f5'/>
    <reference-type-def kind='lvalue' type-id='d81eed6b' size-in-bits='32' id='923ca45f'/>
    <reference-type-def kind='rvalue' type-id='d81eed6b' size-in-bits='32' id='ae76ea7b'/>
    <pointer-type-def type-id='d81eed6b' size-in-bits='32' id='963caaab'/>
    <reference-type-def kind='lvalue' type-id='afb20d38' size-in-bits='32' id='09718062'/>
    <reference-type-def kind='rvalue' type-id='afb20d38' size-in-bits='32' id='21aceb0c'/>
    <pointer-type-def type-id='afb20d38' size-in-bits='32' id='0d7186ae'/>
    <reference-type-def kind='lvalue' type-id='f9e4b3e7' size-in-bits='32' id='9b5e46db'/>
    <reference-type-def kind='lvalue' type-id='60662a11' size-in-bits='32' id='fa0cba0d'/>
    <reference-type-def kind='rvalue' type-id='60662a11' size-in-bits='32' id='cd0911b1'/>
    <pointer-type-def type-id='60662a11' size-in-bits='32' id='ee0ca729'/>
    <reference-type-def kind='lvalue' type-id='99463423' size-in-bits='32' id='2e1e1cf7'/>
    <reference-type-def kind='lvalue' type-id='33591497' size-in-bits='32' id='07e7053b'/>
    <pointer-type-def type-id='33591497' size-in-bits='32' id='03e6feef'/>
    <reference-type-def kind='lvalue' type-id='b74d7770' size-in-bits='32' id='1fa4c13d'/>
    <reference-type-def kind='lvalue' type-id='199fc21a' size-in-bits='32' id='8755c08c'/>
    <pointer-type-def type-id='199fc21a' size-in-bits='32' id='8b55c6d8'/>
    <reference-type-def kind='lvalue' type-id='6efd2fac' size-in-bits='32' id='27c48ad6'/>
    <reference-type-def kind='rvalue' type-id='6efd2fac' size-in-bits='32' id='8a66b7d0'/>
    <pointer-type-def type-id='6efd2fac' size-in-bits='32' id='33c49dba'/>
    <pointer-type-def type-id='4d462c9b' size-in-bits='32' id='28e10525'/>
    <reference-type-def kind='lvalue' type-id='ac070eda' size-in-bits='32' id='b20bdefc'/>
    <reference-type-def kind='rvalue' type-id='ac070eda' size-in-bits='32' id='22afd12e'/>
    <pointer-type-def type-id='ac070eda' size-in-bits='32' id='b60be548'/>
    <reference-type-def kind='lvalue' type-id='4547cffb' size-in-bits='32' id='ff242d43'/>
    <reference-type-def kind='lvalue' type-id='6a6c3f8a' size-in-bits='32' id='33b2cf2c'/>
    <reference-type-def kind='rvalue' type-id='6a6c3f8a' size-in-bits='32' id='6c7becbe'/>
    <pointer-type-def type-id='6a6c3f8a' size-in-bits='32' id='37b2d578'/>
    <reference-type-def kind='lvalue' type-id='4547cffc' size-in-bits='32' id='ff242d44'/>
    <reference-type-def kind='lvalue' type-id='e982e448' size-in-bits='32' id='c32d4562'/>
    <reference-type-def kind='rvalue' type-id='e982e448' size-in-bits='32' id='84440a0c'/>
    <pointer-type-def type-id='e982e448' size-in-bits='32' id='c72d4bae'/>
    <reference-type-def kind='lvalue' type-id='4547cffd' size-in-bits='32' id='ff242d45'/>
    <reference-type-def kind='lvalue' type-id='075a9db6' size-in-bits='32' id='4994ec28'/>
    <reference-type-def kind='rvalue' type-id='075a9db6' size-in-bits='32' id='e36f9a0a'/>
    <pointer-type-def type-id='075a9db6' size-in-bits='32' id='4594e5dc'/>
    <reference-type-def kind='lvalue' type-id='4547cffe' size-in-bits='32' id='ff242d46'/>
    <reference-type-def kind='lvalue' type-id='65b889e8' size-in-bits='32' id='d9d6e702'/>
    <reference-type-def kind='rvalue' type-id='65b889e8' size-in-bits='32' id='114dddac'/>
    <pointer-type-def type-id='65b889e8' size-in-bits='32' id='ddd6ed4e'/>
    <reference-type-def kind='lvalue' type-id='4547cfff' size-in-bits='32' id='ff242d47'/>
    <reference-type-def kind='lvalue' type-id='603f72de' size-in-bits='32' id='b0ecf9c0'/>
    <reference-type-def kind='rvalue' type-id='603f72de' size-in-bits='32' id='6b0d6512'/>
    <pointer-type-def type-id='603f72de' size-in-bits='32' id='bced0ca4'/>
    <reference-type-def kind='lvalue' type-id='4547d000' size-in-bits='32' id='ff242d48'/>
    <reference-type-def kind='lvalue' type-id='56b14eae' size-in-bits='32' id='e7b7ef60'/>
    <reference-type-def kind='rvalue' type-id='56b14eae' size-in-bits='32' id='0c8dab32'/>
    <pointer-type-def type-id='56b14eae' size-in-bits='32' id='f3b80244'/>
    <reference-type-def kind='lvalue' type-id='6a671eb0' size-in-bits='32' id='18fd35aa'/>
    <reference-type-def kind='rvalue' type-id='6a671eb0' size-in-bits='32' id='e29b4b64'/>
    <pointer-type-def type-id='6a671eb0' size-in-bits='32' id='0cfd22c6'/>
    <reference-type-def kind='rvalue' type-id='f26bade4' size-in-bits='32' id='cd3a6999'/>
    <reference-type-def kind='lvalue' type-id='6e9b5502' size-in-bits='32' id='6497cf54'/>
    <reference-type-def kind='rvalue' type-id='6e9b5502' size-in-bits='32' id='ccfb9076'/>
    <pointer-type-def type-id='6e9b5502' size-in-bits='32' id='5897bc70'/>
    <reference-type-def kind='lvalue' type-id='760319b5' size-in-bits='32' id='2fca2671'/>
    <reference-type-def kind='rvalue' type-id='760319b5' size-in-bits='32' id='923a5af5'/>
    <pointer-type-def type-id='760319b5' size-in-bits='32' id='2bca2025'/>
    <reference-type-def kind='rvalue' type-id='62e477b8' size-in-bits='32' id='82acecbf'/>
    <reference-type-def kind='lvalue' type-id='a5320295' size-in-bits='32' id='404b8c71'/>
    <reference-type-def kind='rvalue' type-id='a5320295' size-in-bits='32' id='8dedecf5'/>
    <pointer-type-def type-id='a5320295' size-in-bits='32' id='3c4b8625'/>
    <reference-type-def kind='rvalue' type-id='62e477b0' size-in-bits='32' id='82acecc0'/>
    <pointer-type-def type-id='62e477b0' size-in-bits='32' id='e8fa2669'/>
    <reference-type-def kind='lvalue' type-id='1e763177' size-in-bits='32' id='4705fceb'/>
    <reference-type-def kind='rvalue' type-id='1e763177' size-in-bits='32' id='9b6cf6b7'/>
    <pointer-type-def type-id='1e763177' size-in-bits='32' id='4305f69f'/>
    <reference-type-def kind='rvalue' type-id='62e477b1' size-in-bits='32' id='82acecc1'/>
    <pointer-type-def type-id='62e477b1' size-in-bits='32' id='e8fa266a'/>
    <reference-type-def kind='lvalue' type-id='46ef0c57' size-in-bits='32' id='a41e8ccb'/>
    <reference-type-def kind='rvalue' type-id='46ef0c57' size-in-bits='32' id='4917d917'/>
    <pointer-type-def type-id='46ef0c57' size-in-bits='32' id='a01e867f'/>
    <reference-type-def kind='lvalue' type-id='ba2611f3' size-in-bits='32' id='ac55be37'/>
    <reference-type-def kind='rvalue' type-id='ba2611f3' size-in-bits='32' id='5bfa34c3'/>
    <pointer-type-def type-id='ba2611f3' size-in-bits='32' id='a055ab53'/>
    <reference-type-def kind='lvalue' type-id='2b166553' size-in-bits='32' id='e54ff0b7'/>
    <reference-type-def kind='rvalue' type-id='2b166553' size-in-bits='32' id='8dd7b443'/>
    <pointer-type-def type-id='2b166553' size-in-bits='32' id='d94fddd3'/>
    <reference-type-def kind='rvalue' type-id='62e477b2' size-in-bits='32' id='82acecc2'/>
    <pointer-type-def type-id='62e477b2' size-in-bits='32' id='e8fa266b'/>
    <reference-type-def kind='lvalue' type-id='736f4e77' size-in-bits='32' id='3a255d2b'/>
    <reference-type-def kind='rvalue' type-id='736f4e77' size-in-bits='32' id='95d17b77'/>
    <pointer-type-def type-id='736f4e77' size-in-bits='32' id='362556df'/>
    <reference-type-def kind='lvalue' type-id='94c4b137' size-in-bits='32' id='eb1215cb'/>
    <reference-type-def kind='rvalue' type-id='94c4b137' size-in-bits='32' id='fa788417'/>
    <pointer-type-def type-id='94c4b137' size-in-bits='32' id='e7120f7f'/>
    <reference-type-def kind='rvalue' type-id='62e477b3' size-in-bits='32' id='82acecc3'/>
    <pointer-type-def type-id='62e477b3' size-in-bits='32' id='e8fa266c'/>
    <reference-type-def kind='lvalue' type-id='e3e687ed' size-in-bits='32' id='b5a2dba9'/>
    <reference-type-def kind='rvalue' type-id='e3e687ed' size-in-bits='32' id='7e5fa21d'/>
    <pointer-type-def type-id='e3e687ed' size-in-bits='32' id='c1a2ee8d'/>
    <reference-type-def kind='rvalue' type-id='62e477b4' size-in-bits='32' id='82acecc4'/>
    <pointer-type-def type-id='62e477b4' size-in-bits='32' id='e8fa266d'/>
    <reference-type-def kind='lvalue' type-id='21156a1f' size-in-bits='32' id='fe8c9783'/>
    <reference-type-def kind='rvalue' type-id='21156a1f' size-in-bits='32' id='5c52b8bf'/>
    <pointer-type-def type-id='21156a1f' size-in-bits='32' id='0a8caa67'/>
    <reference-type-def kind='rvalue' type-id='62e477b5' size-in-bits='32' id='82acecc5'/>
    <pointer-type-def type-id='62e477b5' size-in-bits='32' id='e8fa266e'/>
    <pointer-type-def type-id='c9d12d66' size-in-bits='32' id='b2eb2c3f'/>
    <pointer-type-def type-id='dddf6ca2' size-in-bits='32' id='d915a820'/>
    <pointer-type-def type-id='c2ab665d' size-in-bits='32' id='22b63871'/>
    <pointer-type-def type-id='ca1de4b9' size-in-bits='32' id='192dd735'/>
    <pointer-type-def type-id='6f7cb7b4' size-in-bits='32' id='c61bcf16'/>
    <pointer-type-def type-id='eda358d5' size-in-bits='32' id='4a68d231'/>
    <pointer-type-def type-id='84f1ec00' size-in-bits='32' id='46959e4a'/>
    <pointer-type-def type-id='357a5107' size-in-bits='32' id='59816c03'/>
    <pointer-type-def type-id='2207a1d4' size-in-bits='32' id='bfafe7be'/>
    <pointer-type-def type-id='b3920ec1' size-in-bits='32' id='632958b5'/>
    <pointer-type-def type-id='dbddeaa4' size-in-bits='32' id='5502cec6'/>
    <pointer-type-def type-id='dce8633b' size-in-bits='32' id='911bafcf'/>
    <pointer-type-def type-id='635e0a25' size-in-bits='32' id='afd19731'/>
    <pointer-type-def type-id='40138048' size-in-bits='32' id='fb4bf8a2'/>
    <pointer-type-def type-id='ffceb0d7' size-in-bits='32' id='f47c20db'/>
    <pointer-type-def type-id='118a7d6e' size-in-bits='32' id='dcc01f40'/>
    <pointer-type-def type-id='6a7bb135' size-in-bits='32' id='00722fb9'/>
    <pointer-type-def type-id='72c33ddb' size-in-bits='32' id='2ab62f6f'/>
    <pointer-type-def type-id='76032d71' size-in-bits='32' id='f02d21bd'/>
    <pointer-type-def type-id='36acdbcc' size-in-bits='32' id='39e07fe6'/>
    <pointer-type-def type-id='ffadf963' size-in-bits='32' id='4602a027'/>
    <pointer-type-def type-id='1e23d39a' size-in-bits='32' id='dbd5502c'/>
    <pointer-type-def type-id='8ae90496' size-in-bits='32' id='3f53da28'/>
    <pointer-type-def type-id='7c58e9c1' size-in-bits='32' id='ac33c16d'/>
    <pointer-type-def type-id='9f92723c' size-in-bits='32' id='c5080c6e'/>
    <pointer-type-def type-id='d6f3cc1e' size-in-bits='32' id='be83b1c0'/>
    <pointer-type-def type-id='4aa4e453' size-in-bits='32' id='bd039867'/>
    <pointer-type-def type-id='aa966e7a' size-in-bits='32' id='8e395004'/>
    <pointer-type-def type-id='60d09265' size-in-bits='32' id='b8872911'/>
    <pointer-type-def type-id='23a084d1' size-in-bits='32' id='2dc018ad'/>
    <pointer-type-def type-id='1c231d7d' size-in-bits='32' id='3a544209'/>
    <pointer-type-def type-id='63e40290' size-in-bits='32' id='5316a70a'/>
    <pointer-type-def type-id='234ebc1f' size-in-bits='32' id='8212a383'/>
    <pointer-type-def type-id='a3568ec6' size-in-bits='32' id='7cc5a858'/>
    <pointer-type-def type-id='48a0988a' size-in-bits='32' id='429f83fc'/>
    <pointer-type-def type-id='b6337d2d' size-in-bits='32' id='e202bf99'/>
    <pointer-type-def type-id='aef1d658' size-in-bits='32' id='d3d606ba'/>
    <pointer-type-def type-id='024b2e02' size-in-bits='32' id='5b2401a4'/>
    <pointer-type-def type-id='4d6cc7ff' size-in-bits='32' id='75022493'/>
    <pointer-type-def type-id='82e9406e' size-in-bits='32' id='e6cee188'/>
    <pointer-type-def type-id='32dce039' size-in-bits='32' id='276929e5'/>
    <pointer-type-def type-id='2362799b' size-in-bits='32' id='843cef5f'/>
    <pointer-type-def type-id='e7767992' size-in-bits='32' id='a247d414'/>
    <pointer-type-def type-id='6b5969a6' size-in-bits='32' id='c1bcbe60'/>
    <pointer-type-def type-id='41d77b1c' size-in-bits='32' id='61e793ce'/>
    <pointer-type-def type-id='541d431d' size-in-bits='32' id='f50e7349'/>
    <pointer-type-def type-id='0fbe2cda' size-in-bits='32' id='8820c0ac'/>
    <pointer-type-def type-id='0257c247' size-in-bits='32' id='fcb05c6b'/>
    <pointer-type-def type-id='9665bdb6' size-in-bits='32' id='4d96d680'/>
    <pointer-type-def type-id='66488491' size-in-bits='32' id='56da0ded'/>
    <pointer-type-def type-id='7cc5073b' size-in-bits='32' id='06ef81e7'/>
    <pointer-type-def type-id='a3c89a22' size-in-bits='32' id='57f14084'/>
    <pointer-type-def type-id='028fa27d' size-in-bits='32' id='81941e91'/>
    <pointer-type-def type-id='9ee61f63' size-in-bits='32' id='a737306f'/>
    <pointer-type-def type-id='6b33627a' size-in-bits='32' id='cce2541c'/>
    <pointer-type-def type-id='50f8d93d' size-in-bits='32' id='061addf9'/>
    <pointer-type-def type-id='76a432e8' size-in-bits='32' id='1358cb5a'/>
    <pointer-type-def type-id='b5b9ed34' size-in-bits='32' id='ef68ddae'/>
    <pointer-type-def type-id='74c6e66d' size-in-bits='32' id='700bfd71'/>
    <pointer-type-def type-id='18f35374' size-in-bits='32' id='2c8531ee'/>
    <pointer-type-def type-id='3ed49d13' size-in-bits='32' id='2525f167'/>
    <pointer-type-def type-id='2baaba0a' size-in-bits='32' id='e8cbc4c4'/>
    <pointer-type-def type-id='14ac55ad' size-in-bits='32' id='aaed3ee1'/>
    <pointer-type-def type-id='5ebac3d8' size-in-bits='32' id='b540af52'/>
    <pointer-type-def type-id='06dcb13c' size-in-bits='32' id='34d95ce6'/>
    <pointer-type-def type-id='eb1675b3' size-in-bits='32' id='286f4f27'/>
    <pointer-type-def type-id='129c82ea' size-in-bits='32' id='6a09952c'/>
    <pointer-type-def type-id='7f8c4cf0' size-in-bits='32' id='45f30d62'/>
    <pointer-type-def type-id='89a65589' size-in-bits='32' id='81649ee5'/>
    <pointer-type-def type-id='263f3dcc' size-in-bits='32' id='a1d47c16'/>
    <pointer-type-def type-id='047ae073' size-in-bits='32' id='9f5f6d1f'/>
    <pointer-type-def type-id='5321e7f1' size-in-bits='32' id='8fe62605'/>
    <pointer-type-def type-id='f68d4a05' size-in-bits='32' id='18d755d9'/>
    <pointer-type-def type-id='2fb8ba3e' size-in-bits='32' id='a65198e8'/>
    <pointer-type-def type-id='b02c2550' size-in-bits='32' id='55811db2'/>
    <pointer-type-def type-id='eb909c09' size-in-bits='32' id='dfa383fd'/>
    <pointer-type-def type-id='46353f35' size-in-bits='32' id='98515169'/>
    <pointer-type-def type-id='ccb79e1c' size-in-bits='32' id='826b5edf'/>
    <pointer-type-def type-id='846957ad' size-in-bits='32' id='8394b66a'/>
    <pointer-type-def type-id='2f3e7a58' size-in-bits='32' id='2b6dfd03'/>
    <pointer-type-def type-id='e8eab40f' size-in-bits='32' id='4442688c'/>
    <pointer-type-def type-id='49080c66' size-in-bits='32' id='8770ee20'/>
    <pointer-type-def type-id='e375f1d9' size-in-bits='32' id='7a154085'/>
    <pointer-type-def type-id='09e3e169' size-in-bits='32' id='5b8df47e'/>
    <pointer-type-def type-id='d5e4d4ec' size-in-bits='32' id='5b336a8f'/>
    <pointer-type-def type-id='1bb86c53' size-in-bits='32' id='cab20a88'/>
    <pointer-type-def type-id='02d5f98d' size-in-bits='32' id='d9547e1a'/>
    <pointer-type-def type-id='9454c680' size-in-bits='32' id='4ed5bc7b'/>
    <pointer-type-def type-id='a84589af' size-in-bits='32' id='4ab10d54'/>
    <pointer-type-def type-id='86f41856' size-in-bits='32' id='9f2ec5e9'/>
    <pointer-type-def type-id='1461dd30' size-in-bits='32' id='c8a34da2'/>
    <pointer-type-def type-id='7343f038' size-in-bits='32' id='87d7d6ca'/>
    <pointer-type-def type-id='ccb79e1d' size-in-bits='32' id='826b5ee0'/>
    <pointer-type-def type-id='846957ae' size-in-bits='32' id='8394b66b'/>
    <pointer-type-def type-id='2f3e7a59' size-in-bits='32' id='2b6dfd04'/>
    <pointer-type-def type-id='e8eab410' size-in-bits='32' id='4442688d'/>
    <pointer-type-def type-id='e375f1da' size-in-bits='32' id='7a154086'/>
    <pointer-type-def type-id='09e3e16a' size-in-bits='32' id='5b8df47f'/>
    <pointer-type-def type-id='d5e4d4ed' size-in-bits='32' id='5b336a90'/>
    <pointer-type-def type-id='1bb86c54' size-in-bits='32' id='cab20a89'/>
    <pointer-type-def type-id='02d5f98e' size-in-bits='32' id='d9547e1b'/>
    <pointer-type-def type-id='9454c681' size-in-bits='32' id='4ed5bc7c'/>
    <pointer-type-def type-id='a84589b0' size-in-bits='32' id='4ab10d55'/>
    <pointer-type-def type-id='86f41857' size-in-bits='32' id='9f2ec5ea'/>
    <pointer-type-def type-id='9da94b15' size-in-bits='32' id='adc7abf9'/>
    <pointer-type-def type-id='2fe17cde' size-in-bits='32' id='7b39afc8'/>
    <pointer-type-def type-id='2b6522f1' size-in-bits='32' id='95094585'/>
    <pointer-type-def type-id='d5b15e49' size-in-bits='32' id='32aa4f8d'/>
    <pointer-type-def type-id='a77026dd' size-in-bits='32' id='4bcddc31'/>
    <pointer-type-def type-id='4c6da22e' size-in-bits='32' id='d17c3f88'/>
    <pointer-type-def type-id='4aacf270' size-in-bits='32' id='38637da2'/>
    <pointer-type-def type-id='357daae3' size-in-bits='32' id='a19c74f7'/>
    <pointer-type-def type-id='582752bf' size-in-bits='32' id='775787db'/>
    <pointer-type-def type-id='08ced926' size-in-bits='32' id='260c4c40'/>
    <pointer-type-def type-id='39763bbe' size-in-bits='32' id='f2a57148'/>
    <pointer-type-def type-id='392f372a' size-in-bits='32' id='75e166e4'/>
    <pointer-type-def type-id='8a107f0d' size-in-bits='32' id='671a4cc1'/>
    <pointer-type-def type-id='08cb7a78' size-in-bits='32' id='36fdf2f2'/>
    <pointer-type-def type-id='93d80062' size-in-bits='32' id='676c304c'/>
    <pointer-type-def type-id='92fdb75f' size-in-bits='32' id='d469a98b'/>
    <pointer-type-def type-id='1a60c48e' size-in-bits='32' id='e2a33260'/>
    <pointer-type-def type-id='7c644d19' size-in-bits='32' id='ceea3b8d'/>
    <pointer-type-def type-id='cf650c06' size-in-bits='32' id='3426ab68'/>
    <pointer-type-def type-id='f74edd67' size-in-bits='32' id='e8dccc6b'/>
    <pointer-type-def type-id='bb3a3bd3' size-in-bits='32' id='3a73b9e7'/>
    <pointer-type-def type-id='4861351d' size-in-bits='32' id='ddfe5d59'/>
    <pointer-type-def type-id='ccb79e1e' size-in-bits='32' id='826b5ede'/>
    <pointer-type-def type-id='846957af' size-in-bits='32' id='8394b669'/>
    <pointer-type-def type-id='2f3e7a5a' size-in-bits='32' id='2b6dfd02'/>
    <pointer-type-def type-id='e8eab411' size-in-bits='32' id='4442688b'/>
    <pointer-type-def type-id='09e3e16b' size-in-bits='32' id='5b8df47d'/>
    <pointer-type-def type-id='d5e4d4ee' size-in-bits='32' id='5b336a8e'/>
    <pointer-type-def type-id='1bb86c55' size-in-bits='32' id='cab20a87'/>
    <pointer-type-def type-id='02d5f98f' size-in-bits='32' id='d9547e19'/>
    <pointer-type-def type-id='9454c682' size-in-bits='32' id='4ed5bc7a'/>
    <pointer-type-def type-id='a84589b1' size-in-bits='32' id='4ab10d53'/>
    <pointer-type-def type-id='86f41858' size-in-bits='32' id='9f2ec5e8'/>
    <pointer-type-def type-id='9dcf39b9' size-in-bits='32' id='730c485d'/>
    <pointer-type-def type-id='060737b9' size-in-bits='32' id='3c0c03e5'/>
    <pointer-type-def type-id='3ccdd9d3' size-in-bits='32' id='814cad27'/>
    <pointer-type-def type-id='bf8b79fb' size-in-bits='32' id='629338b7'/>
    <pointer-type-def type-id='a6863c16' size-in-bits='32' id='21ec59f0'/>
    <pointer-type-def type-id='e13d7981' size-in-bits='32' id='b3dfc495'/>
    <pointer-type-def type-id='8f92235e' size-in-bits='32' id='90421557'/>
    <reference-type-def kind='lvalue' type-id='002ac4a6' size-in-bits='32' id='c3535580'/>
    <reference-type-def kind='rvalue' type-id='002ac4a6' size-in-bits='32' id='222fd452'/>
    <reference-type-def kind='lvalue' type-id='f0981eed' size-in-bits='32' id='8c787cb7'/>
    <pointer-type-def type-id='f0981eed' size-in-bits='32' id='807869d3'/>
    <pointer-type-def type-id='ee076206' size-in-bits='32' id='953b12f8'/>
    <pointer-type-def type-id='03e3ce24' size-in-bits='32' id='8bc971a6'/>
    <pointer-type-def type-id='a1159711' size-in-bits='32' id='2deb20e5'/>
    <pointer-type-def type-id='d91da88b' size-in-bits='32' id='4382c817'/>
    <pointer-type-def type-id='44c9c9bf' size-in-bits='32' id='69aab5c3'/>
    <pointer-type-def type-id='bf5f1f6d' size-in-bits='32' id='08a2f0e1'/>
    <pointer-type-def type-id='df741104' size-in-bits='32' id='fbe0c9de'/>
    <pointer-type-def type-id='a390bd39' size-in-bits='32' id='6d8c64bd'/>
    <pointer-type-def type-id='1529f4a1' size-in-bits='32' id='3b7e394d'/>
    <pointer-type-def type-id='33597c16' size-in-bits='32' id='5bf36468'/>
    <pointer-type-def type-id='be7282a9' size-in-bits='32' id='0f8e37bd'/>
    <pointer-type-def type-id='089c907d' size-in-bits='32' id='dc329231'/>
    <pointer-type-def type-id='831ffd4a' size-in-bits='32' id='730be8b4'/>
    <pointer-type-def type-id='3733befa' size-in-bits='32' id='a1ed8fac'/>
    <pointer-type-def type-id='0306f1a9' size-in-bits='32' id='d5efc015'/>
    <pointer-type-def type-id='e65944cb' size-in-bits='32' id='400806b7'/>
    <pointer-type-def type-id='bdd36586' size-in-bits='32' id='6c7c35c0'/>
    <pointer-type-def type-id='83901d9f' size-in-bits='32' id='192b003b'/>
    <pointer-type-def type-id='a8c3878a' size-in-bits='32' id='48f9101d'/>
    <pointer-type-def type-id='a8c3878b' size-in-bits='32' id='48f9101e'/>
    <pointer-type-def type-id='c06e176d' size-in-bits='32' id='01a865d1'/>
    <pointer-type-def type-id='a8c3878c' size-in-bits='32' id='48f9101c'/>
    <pointer-type-def type-id='deb04b74' size-in-bits='32' id='7399468e'/>
    <pointer-type-def type-id='cb36c1eb' size-in-bits='32' id='063cc4af'/>
    <pointer-type-def type-id='a39024d2' size-in-bits='32' id='35958544'/>
    <pointer-type-def type-id='980f5b1b' size-in-bits='32' id='db388837'/>
    <pointer-type-def type-id='a4bca08f' size-in-bits='32' id='977cec7b'/>
    <pointer-type-def type-id='c918d3fc' size-in-bits='32' id='fd9a9816'/>
    <pointer-type-def type-id='741ec8cb' size-in-bits='32' id='298dc3b7'/>
    <pointer-type-def type-id='6b259141' size-in-bits='32' id='9990734d'/>
    <pointer-type-def type-id='394d7db8' size-in-bits='32' id='eb01d38a'/>
    <pointer-type-def type-id='86dac493' size-in-bits='32' id='66b73f2f'/>
    <pointer-type-def type-id='e3c17b35' size-in-bits='32' id='fa46db69'/>
    <pointer-type-def type-id='5e9ac5ac' size-in-bits='32' id='6bc23226'/>
    <pointer-type-def type-id='8d96fcb9' size-in-bits='32' id='4ae3250d'/>
    <pointer-type-def type-id='71bbb5b1' size-in-bits='32' id='ebf40e2d'/>
    <pointer-type-def type-id='65f72aae' size-in-bits='32' id='ad1ea7c0'/>
    <pointer-type-def type-id='f82c684a' size-in-bits='32' id='43af461c'/>
    <pointer-type-def type-id='252732ae' size-in-bits='32' id='59a4a320'/>
    <pointer-type-def type-id='03deda19' size-in-bits='32' id='e25f48c5'/>
    <pointer-type-def type-id='44d47584' size-in-bits='32' id='f1b14db6'/>
    <pointer-type-def type-id='c5a9c037' size-in-bits='32' id='9af031fb'/>
    <pointer-type-def type-id='f52cf650' size-in-bits='32' id='ffc17d12'/>
    <pointer-type-def type-id='8f97eff0' size-in-bits='32' id='e9d4d69a'/>
    <pointer-type-def type-id='3c76d9f1' size-in-bits='32' id='fcbe15c5'/>
    <pointer-type-def type-id='138fbb56' size-in-bits='32' id='d69f3378'/>
    <pointer-type-def type-id='0c71af8b' size-in-bits='32' id='aa5e90a8'/>
    <pointer-type-def type-id='0c71af8c' size-in-bits='32' id='aa5e90a9'/>
    <pointer-type-def type-id='a23173c4' size-in-bits='32' id='bc60df5e'/>
    <pointer-type-def type-id='0c71af8d' size-in-bits='32' id='aa5e90a7'/>
    <pointer-type-def type-id='69b156fb' size-in-bits='32' id='7359e10f'/>
    <pointer-type-def type-id='0e213a62' size-in-bits='32' id='72df644c'/>
    <pointer-type-def type-id='21e4693d' size-in-bits='32' id='d4f446a9'/>
    <pointer-type-def type-id='e123a5d8' size-in-bits='32' id='177b60ba'/>
    <pointer-type-def type-id='9edfc7bf' size-in-bits='32' id='89ccc593'/>
    <pointer-type-def type-id='ba51789d' size-in-bits='32' id='5fc46b11'/>
    <pointer-type-def type-id='b9e9f180' size-in-bits='32' id='b95eace2'/>
    <pointer-type-def type-id='d80b7155' size-in-bits='32' id='f48e25c1'/>
    <pointer-type-def type-id='3b2e054f' size-in-bits='32' id='6fd868db'/>
    <pointer-type-def type-id='71686cf2' size-in-bits='32' id='0a719884'/>
    <pointer-type-def type-id='ada13aa2' size-in-bits='32' id='7a8e54fc'/>
    <pointer-type-def type-id='8deca216' size-in-bits='32' id='101b8c80'/>
    <pointer-type-def type-id='b472b352' size-in-bits='32' id='4db2cf0c'/>
    <pointer-type-def type-id='c523b9f1' size-in-bits='32' id='323d93c1'/>
    <pointer-type-def type-id='323d93c1' size-in-bits='32' id='01efdaf1'/>
    <pointer-type-def type-id='aa12d1bd' size-in-bits='32' id='822cd80e'/>
    <pointer-type-def type-id='ebc81181' size-in-bits='32' id='c3a70532'/>
    <pointer-type-def type-id='c3a70532' size-in-bits='32' id='17ed04c8'/>
    <pointer-type-def type-id='2ca86b0d' size-in-bits='32' id='715a5bad'/>
    <pointer-type-def type-id='1e7918a7' size-in-bits='32' id='047d4fff'/>
    <pointer-type-def type-id='eeed1f5d' size-in-bits='32' id='349a45dd'/>
    <pointer-type-def type-id='e53ab91c' size-in-bits='32' id='a5a1fc5a'/>
    <pointer-type-def type-id='530c1a32' size-in-bits='32' id='76b5a6a0'/>
    <pointer-type-def type-id='2e67d715' size-in-bits='32' id='ee3187c5'/>
    <pointer-type-def type-id='a87003ef' size-in-bits='32' id='dda33667'/>
    <pointer-type-def type-id='b0749e8e' size-in-bits='32' id='0faa6e74'/>
    <pointer-type-def type-id='fb46a283' size-in-bits='32' id='15b6e673'/>
    <pointer-type-def type-id='d988e2e8' size-in-bits='32' id='b09bab5e'/>
    <pointer-type-def type-id='fdf9f098' size-in-bits='32' id='14c7458e'/>
    <pointer-type-def type-id='30a4d497' size-in-bits='32' id='3239e3af'/>
    <pointer-type-def type-id='ae6a1c55' size-in-bits='32' id='e65fd0e5'/>
    <pointer-type-def type-id='07f10124' size-in-bits='32' id='a5fd6882'/>
    <reference-type-def kind='lvalue' type-id='663ed4a0' size-in-bits='32' id='4b4fe04a'/>
    <pointer-type-def type-id='663ed4a0' size-in-bits='32' id='3f4fcd66'/>
    <qualified-type-def type-id='3f4fcd66' const='yes' id='a9c47199'/>
    <reference-type-def kind='lvalue' type-id='a9c47199' size-in-bits='32' id='ff3f0fad'/>
    <reference-type-def kind='lvalue' type-id='3f4fcd66' size-in-bits='32' id='eaa01bc0'/>
    <reference-type-def kind='rvalue' type-id='3f4fcd66' size-in-bits='32' id='400beb12'/>
    <reference-type-def kind='lvalue' type-id='e31c3bd7' size-in-bits='32' id='799fd35b'/>
    <pointer-type-def type-id='e31c3bd7' size-in-bits='32' id='759fcd0f'/>
    <pointer-type-def type-id='e31c3bd7' size-in-bits='32' id='759fcd10'/>
    <qualified-type-def type-id='759fcd0f' const='yes' id='4c08731c'/>
    <reference-type-def kind='lvalue' type-id='4c08731c' size-in-bits='32' id='eb4d644e'/>
    <reference-type-def kind='lvalue' type-id='759fcd0f' size-in-bits='32' id='538ff78b'/>
    <reference-type-def kind='rvalue' type-id='759fcd0f' size-in-bits='32' id='38a2e557'/>
    <reference-type-def kind='lvalue' type-id='88bb28ef' size-in-bits='32' id='72c30cf3'/>
    <pointer-type-def type-id='88bb28ef' size-in-bits='32' id='7ec31fd7'/>
    <qualified-type-def type-id='7ec31fd7' const='yes' id='9a153d84'/>
    <reference-type-def kind='lvalue' type-id='9a153d84' size-in-bits='32' id='31700606'/>
    <reference-type-def kind='lvalue' type-id='7ec31fd7' size-in-bits='32' id='7e2b4863'/>
    <pointer-type-def type-id='eb3e39c8' size-in-bits='32' id='567e1fde'/>
    <reference-type-def kind='lvalue' type-id='61a43bb9' size-in-bits='32' id='114a8bd5'/>
    <pointer-type-def type-id='61a43bb9' size-in-bits='32' id='154a9221'/>
    <qualified-type-def type-id='154a9221' const='yes' id='6f51437e'/>
    <reference-type-def kind='lvalue' type-id='6f51437e' size-in-bits='32' id='94ed0388'/>
    <reference-type-def kind='lvalue' type-id='154a9221' size-in-bits='32' id='8b63e105'/>
    <pointer-type-def type-id='9c9f3114' size-in-bits='32' id='d8b900b2'/>
    <class-decl name='_jbooleanArray' visibility='default' is-declaration-only='yes' id='2ca86b0d'/>
    <class-decl name='_jbyteArray' visibility='default' is-declaration-only='yes' id='1e7918a7'/>
    <class-decl name='_jcharArray' visibility='default' is-declaration-only='yes' id='eeed1f5d'/>
    <class-decl name='_jclass' visibility='default' is-declaration-only='yes' id='e53ab91c'/>
    <class-decl name='_jdoubleArray' visibility='default' is-declaration-only='yes' id='530c1a32'/>
    <class-decl name='_jfloatArray' visibility='default' is-declaration-only='yes' id='a87003ef'/>
    <class-decl name='_jintArray' visibility='default' is-declaration-only='yes' id='b0749e8e'/>
    <class-decl name='_jlongArray' visibility='default' is-declaration-only='yes' id='fb46a283'/>
    <class-decl name='_jobjectArray' visibility='default' is-declaration-only='yes' id='fdf9f098'/>
    <class-decl name='_jshortArray' visibility='default' is-declaration-only='yes' id='30a4d497'/>
    <class-decl name='_jstring' visibility='default' is-declaration-only='yes' id='ae6a1c55'/>
    <class-decl name='_jthrowable' visibility='default' is-declaration-only='yes' id='07f10124'/>
    <qualified-type-def type-id='05502b73' const='yes' id='bc0ea392'/>
    <pointer-type-def type-id='bc0ea392' size-in-bits='32' id='c30bbaa8'/>
    <qualified-type-def type-id='c30bbaa8' const='yes' id='e941ec7b'/>
    <reference-type-def kind='lvalue' type-id='e941ec7b' size-in-bits='32' id='8fc71667'/>
    <pointer-type-def type-id='e941ec7b' size-in-bits='32' id='83c70383'/>
    <reference-type-def kind='lvalue' type-id='c30bbaa8' size-in-bits='32' id='9976ad8a'/>
    <pointer-type-def type-id='c30bbaa8' size-in-bits='32' id='8d769aa6'/>
    <qualified-type-def type-id='8d769aa6' const='yes' id='e7ebc359'/>
    <reference-type-def kind='lvalue' type-id='e7ebc359' size-in-bits='32' id='9724c0ed'/>
    <reference-type-def kind='lvalue' type-id='8d769aa6' size-in-bits='32' id='31b53780'/>
    <qualified-type-def type-id='88bb28ef' const='yes' id='708139f2'/>
    <reference-type-def kind='lvalue' type-id='708139f2' size-in-bits='32' id='ef6e08bc'/>
    <pointer-type-def type-id='708139f2' size-in-bits='32' id='f36e0f08'/>
    <qualified-type-def type-id='2b69792d' const='yes' id='f737af48'/>
    <reference-type-def kind='lvalue' type-id='f737af48' size-in-bits='32' id='9aa92a2a'/>
    <qualified-type-def type-id='61a43bb9' const='yes' id='99894634'/>
    <reference-type-def kind='lvalue' type-id='99894634' size-in-bits='32' id='c5194e56'/>
    <pointer-type-def type-id='99894634' size-in-bits='32' id='d119613a'/>
    <qualified-type-def type-id='d5288ede' const='yes' id='18c30a77'/>
    <pointer-type-def type-id='18c30a77' size-in-bits='32' id='58095067'/>
    <qualified-type-def type-id='c1dbcc1f' const='yes' id='c76c9474'/>
    <pointer-type-def type-id='c76c9474' size-in-bits='32' id='4ded8ffa'/>
    <qualified-type-def type-id='7fd3de76' const='yes' id='edda3635'/>
    <pointer-type-def type-id='edda3635' size-in-bits='32' id='8d8332cd'/>
    <qualified-type-def type-id='90ba7532' const='yes' id='8a82e18f'/>
    <pointer-type-def type-id='8a82e18f' size-in-bits='32' id='b10936bf'/>
    <qualified-type-def type-id='b10936bf' const='yes' id='81b89a4c'/>
    <qualified-type-def type-id='aa001fba' const='yes' id='1a672873'/>
    <pointer-type-def type-id='1a672873' size-in-bits='32' id='e964841b'/>
    <pointer-type-def type-id='1a672873' size-in-bits='32' id='e964841c'/>
    <qualified-type-def type-id='86634f01' const='yes' id='5d1a6276'/>
    <pointer-type-def type-id='5d1a6276' size-in-bits='32' id='ec88d6d4'/>
    <qualified-type-def type-id='0994533b' const='yes' id='a981db8b'/>
    <pointer-type-def type-id='a981db8b' size-in-bits='32' id='786cbe73'/>
    <qualified-type-def type-id='2f79a79c' const='yes' id='c909ecac'/>
    <reference-type-def kind='lvalue' type-id='c909ecac' size-in-bits='32' id='049f5d3e'/>
    <qualified-type-def type-id='8940485e' const='yes' id='d386a90e'/>
    <reference-type-def kind='lvalue' type-id='d386a90e' size-in-bits='32' id='26fc4d20'/>
    <qualified-type-def type-id='f26bade5' const='yes' id='47f81695'/>
    <reference-type-def kind='lvalue' type-id='47f81695' size-in-bits='32' id='fd8bba37'/>
    <qualified-type-def type-id='8940485f' const='yes' id='d386a90f'/>
    <reference-type-def kind='lvalue' type-id='d386a90f' size-in-bits='32' id='26fc4d21'/>
    <qualified-type-def type-id='89404860' const='yes' id='d386a910'/>
    <reference-type-def kind='lvalue' type-id='d386a910' size-in-bits='32' id='26fc4d22'/>
    <qualified-type-def type-id='bc902aeb' const='yes' id='64016f24'/>
    <reference-type-def kind='lvalue' type-id='64016f24' size-in-bits='32' id='7041c026'/>
    <pointer-type-def type-id='64016f24' size-in-bits='32' id='7c41d30a'/>
    <qualified-type-def type-id='20a793a2' const='yes' id='d986cfad'/>
    <reference-type-def kind='lvalue' type-id='d986cfad' size-in-bits='32' id='fa38b7d1'/>
    <pointer-type-def type-id='d986cfad' size-in-bits='32' id='f638b185'/>
    <qualified-type-def type-id='4b7d2285' const='yes' id='f2ba7f4a'/>
    <reference-type-def kind='lvalue' type-id='f2ba7f4a' size-in-bits='32' id='87969704'/>
    <pointer-type-def type-id='f2ba7f4a' size-in-bits='32' id='7b968420'/>
    <qualified-type-def type-id='89404861' const='yes' id='d386a911'/>
    <reference-type-def kind='lvalue' type-id='d386a911' size-in-bits='32' id='26fc4d23'/>
    <qualified-type-def type-id='89404862' const='yes' id='d386a912'/>
    <reference-type-def kind='lvalue' type-id='d386a912' size-in-bits='32' id='26fc4d24'/>
    <qualified-type-def type-id='89404863' const='yes' id='d386a913'/>
    <reference-type-def kind='lvalue' type-id='d386a913' size-in-bits='32' id='26fc4d25'/>
    <qualified-type-def type-id='874fd690' const='yes' id='97b7164d'/>
    <reference-type-def kind='lvalue' type-id='97b7164d' size-in-bits='32' id='40384a71'/>
    <pointer-type-def type-id='97b7164d' size-in-bits='32' id='3c384425'/>
    <qualified-type-def type-id='ee02cccf' const='yes' id='ada16e66'/>
    <reference-type-def kind='lvalue' type-id='ada16e66' size-in-bits='32' id='95208ec0'/>
    <pointer-type-def type-id='ada16e66' size-in-bits='32' id='a120a1a4'/>
    <qualified-type-def type-id='c5316456' const='yes' id='b2500fff'/>
    <reference-type-def kind='lvalue' type-id='b2500fff' size-in-bits='32' id='8d08f29b'/>
    <pointer-type-def type-id='b2500fff' size-in-bits='32' id='8908ec4f'/>
    <qualified-type-def type-id='0504b9a5' const='yes' id='2bf9e42b'/>
    <reference-type-def kind='lvalue' type-id='2bf9e42b' size-in-bits='32' id='3d61f0bf'/>
    <qualified-type-def type-id='62e477ba' const='yes' id='3656e149'/>
    <reference-type-def kind='lvalue' type-id='3656e149' size-in-bits='32' id='a2c458d4'/>
    <qualified-type-def type-id='0504b9a6' const='yes' id='2bf9e42c'/>
    <reference-type-def kind='lvalue' type-id='2bf9e42c' size-in-bits='32' id='3d61f0c0'/>
    <qualified-type-def type-id='62e477bb' const='yes' id='3656e14a'/>
    <reference-type-def kind='lvalue' type-id='3656e14a' size-in-bits='32' id='a2c458d5'/>
    <qualified-type-def type-id='0504b9a7' const='yes' id='2bf9e42d'/>
    <reference-type-def kind='lvalue' type-id='2bf9e42d' size-in-bits='32' id='3d61f0c1'/>
    <qualified-type-def type-id='62e477bc' const='yes' id='3656e14b'/>
    <reference-type-def kind='lvalue' type-id='3656e14b' size-in-bits='32' id='a2c458d6'/>
    <qualified-type-def type-id='27619c1f' const='yes' id='c3332543'/>
    <reference-type-def kind='lvalue' type-id='c3332543' size-in-bits='32' id='ae83ddff'/>
    <pointer-type-def type-id='c3332543' size-in-bits='32' id='b283e44b'/>
    <qualified-type-def type-id='08084680' const='yes' id='e28bbd7b'/>
    <reference-type-def kind='lvalue' type-id='e28bbd7b' size-in-bits='32' id='fefb1967'/>
    <pointer-type-def type-id='e28bbd7b' size-in-bits='32' id='f2fb0683'/>
    <qualified-type-def type-id='feedc99f' const='yes' id='6d0b86cc'/>
    <reference-type-def kind='lvalue' type-id='6d0b86cc' size-in-bits='32' id='9325625e'/>
    <pointer-type-def type-id='6d0b86cc' size-in-bits='32' id='8f255c12'/>
    <qualified-type-def type-id='4616b4c6' const='yes' id='da3ad709'/>
    <reference-type-def kind='lvalue' type-id='da3ad709' size-in-bits='32' id='b9a0befd'/>
    <pointer-type-def type-id='da3ad709' size-in-bits='32' id='ada0ac19'/>
    <qualified-type-def type-id='763f7590' const='yes' id='17a746bf'/>
    <reference-type-def kind='lvalue' type-id='17a746bf' size-in-bits='32' id='d7542601'/>
    <qualified-type-def type-id='f26bade6' const='yes' id='47f81696'/>
    <reference-type-def kind='lvalue' type-id='47f81696' size-in-bits='32' id='fd8bba38'/>
    <qualified-type-def type-id='2c715060' const='yes' id='00cfccd0'/>
    <reference-type-def kind='lvalue' type-id='00cfccd0' size-in-bits='32' id='3d1fa742'/>
    <qualified-type-def type-id='62e477bd' const='yes' id='3656e14c'/>
    <reference-type-def kind='lvalue' type-id='3656e14c' size-in-bits='32' id='a2c458d7'/>
    <qualified-type-def type-id='2c715061' const='yes' id='00cfccd1'/>
    <reference-type-def kind='lvalue' type-id='00cfccd1' size-in-bits='32' id='3d1fa743'/>
    <qualified-type-def type-id='62e477be' const='yes' id='3656e14d'/>
    <reference-type-def kind='lvalue' type-id='3656e14d' size-in-bits='32' id='a2c458d8'/>
    <qualified-type-def type-id='2c715062' const='yes' id='00cfccd2'/>
    <reference-type-def kind='lvalue' type-id='00cfccd2' size-in-bits='32' id='3d1fa744'/>
    <qualified-type-def type-id='62e477bf' const='yes' id='3656e14e'/>
    <reference-type-def kind='lvalue' type-id='3656e14e' size-in-bits='32' id='a2c458d9'/>
    <qualified-type-def type-id='62e477c0' const='yes' id='3656e14f'/>
    <reference-type-def kind='lvalue' type-id='3656e14f' size-in-bits='32' id='a2c458da'/>
    <pointer-type-def type-id='3656e14f' size-in-bits='32' id='9ec45285'/>
    <qualified-type-def type-id='62e477c1' const='yes' id='3656e150'/>
    <reference-type-def kind='lvalue' type-id='3656e150' size-in-bits='32' id='a2c458db'/>
    <pointer-type-def type-id='3656e150' size-in-bits='32' id='9ec45286'/>
    <qualified-type-def type-id='62e477c2' const='yes' id='3656e151'/>
    <reference-type-def kind='lvalue' type-id='3656e151' size-in-bits='32' id='a2c458dc'/>
    <pointer-type-def type-id='3656e151' size-in-bits='32' id='9ec45287'/>
    <qualified-type-def type-id='814fe063' const='yes' id='d585e4c6'/>
    <namespace-decl name='android'>
      <class-decl name='AssetManager2' size-in-bits='3392' visibility='default' filepath='frameworks/base/libs/androidfw/include/androidfw/AssetManager2.h' line='79' column='1' id='7c0ac937'>
        <member-type access='private'>
          <class-decl name='ConfiguredPackage' size-in-bits='736' is-struct='yes' visibility='default' filepath='frameworks/base/libs/androidfw/include/androidfw/AssetManager2.h' line='325' column='1' id='01b8bd0d'>
            <data-member access='public' layout-offset-in-bits='0'>
              <var-decl name='loaded_package_' type-id='de64cf08' visibility='default' filepath='frameworks/base/libs/androidfw/include/androidfw/AssetManager2.h' line='327' column='1'/>
            </data-member>
            <data-member access='public' layout-offset-in-bits='32'>
              <var-decl name='filtered_configs_' type-id='9337857f' visibility='default' filepath='frameworks/base/libs/androidfw/include/androidfw/AssetManager2.h' line='332' column='1'/>
            </data-member>
          </class-decl>
        </member-type>
        <member-type access='private'>
          <class-decl name='FilteredConfigGroup' size-in-bits='192' is-struct='yes' visibility='default' filepath='frameworks/base/libs/androidfw/include/androidfw/AssetManager2.h' line='319' column='1' id='238d5c19'>
            <data-member access='public' layout-offset-in-bits='0'>
              <var-decl name='configurations' type-id='2b166553' visibility='default' filepath='frameworks/base/libs/androidfw/include/androidfw/AssetManager2.h' line='320' column='1'/>
            </data-member>
            <data-member access='public' layout-offset-in-bits='96'>
              <var-decl name='types' type-id='94c4b137' visibility='default' filepath='frameworks/base/libs/androidfw/include/androidfw/AssetManager2.h' line='321' column='1'/>
            </data-member>
          </class-decl>
        </member-type>
        <member-type access='private'>
          <class-decl name='PackageGroup' size-in-bits='2464' is-struct='yes' visibility='default' filepath='frameworks/base/libs/androidfw/include/androidfw/AssetManager2.h' line='337' column='1' id='1bec9f14'>
            <data-member access='public' layout-offset-in-bits='0'>
              <var-decl name='packages_' type-id='a5320295' visibility='default' filepath='frameworks/base/libs/androidfw/include/androidfw/AssetManager2.h' line='339' column='1'/>
            </data-member>
            <data-member access='public' layout-offset-in-bits='96'>
              <var-decl name='cookies_' type-id='21156a1f' visibility='default' filepath='frameworks/base/libs/androidfw/include/androidfw/AssetManager2.h' line='343' column='1'/>
            </data-member>
            <data-member access='public' layout-offset-in-bits='192'>
              <var-decl name='dynamic_ref_table' type-id='aaa6ccca' visibility='default' filepath='frameworks/base/libs/androidfw/include/androidfw/AssetManager2.h' line='346' column='1'/>
            </data-member>
          </class-decl>
        </member-type>
        <member-type access='private'>
          <class-decl name='Resolution' size-in-bits='288' is-struct='yes' visibility='default' filepath='frameworks/base/libs/androidfw/include/androidfw/AssetManager2.h' line='374' column='1' id='809a5d55'>
            <member-type access='public'>
              <class-decl name='Step' is-struct='yes' visibility='default' is-declaration-only='yes' id='88bb28ef'/>
            </member-type>
            <data-member access='public' layout-offset-in-bits='0'>
              <var-decl name='resid' type-id='8f92235e' visibility='default' filepath='frameworks/base/libs/androidfw/include/androidfw/AssetManager2.h' line='395' column='1'/>
            </data-member>
            <data-member access='public' layout-offset-in-bits='32'>
              <var-decl name='cookie' type-id='1e673c29' visibility='default' filepath='frameworks/base/libs/androidfw/include/androidfw/AssetManager2.h' line='398' column='1'/>
            </data-member>
            <data-member access='public' layout-offset-in-bits='64'>
              <var-decl name='type_string_ref' type-id='90bf4c40' visibility='default' filepath='frameworks/base/libs/androidfw/include/androidfw/AssetManager2.h' line='401' column='1'/>
            </data-member>
            <data-member access='public' layout-offset-in-bits='128'>
              <var-decl name='entry_string_ref' type-id='90bf4c40' visibility='default' filepath='frameworks/base/libs/androidfw/include/androidfw/AssetManager2.h' line='404' column='1'/>
            </data-member>
            <data-member access='public' layout-offset-in-bits='192'>
              <var-decl name='steps' type-id='46ef0c57' visibility='default' filepath='frameworks/base/libs/androidfw/include/androidfw/AssetManager2.h' line='407' column='1'/>
            </data-member>
          </class-decl>
        </member-type>
        <member-type access='private'>
          <class-decl name='ResourceName' is-struct='yes' visibility='default' is-declaration-only='yes' id='eb3e39c8'/>
        </member-type>
        <member-type access='private'>
          <class-decl name='ResourceName' is-struct='yes' visibility='default' is-declaration-only='yes' id='eb3e39c9'/>
        </member-type>
        <data-member access='private' layout-offset-in-bits='0'>
          <var-decl name='apk_assets_' type-id='736f4e77' visibility='default' filepath='frameworks/base/libs/androidfw/include/androidfw/AssetManager2.h' line='315' column='1'/>
        </data-member>
        <data-member access='private' layout-offset-in-bits='96'>
          <var-decl name='package_groups_' type-id='1e763177' visibility='default' filepath='frameworks/base/libs/androidfw/include/androidfw/AssetManager2.h' line='353' column='1'/>
        </data-member>
        <data-member access='private' layout-offset-in-bits='192'>
          <var-decl name='package_ids_' type-id='155e8fd8' visibility='default' filepath='frameworks/base/libs/androidfw/include/androidfw/AssetManager2.h' line='357' column='1'/>
        </data-member>
        <data-member access='private' layout-offset-in-bits='2240'>
          <var-decl name='configuration_' type-id='f8926d95' visibility='default' filepath='frameworks/base/libs/androidfw/include/androidfw/AssetManager2.h' line='361' column='1'/>
        </data-member>
        <data-member access='private' layout-offset-in-bits='2752'>
          <var-decl name='cached_bags_' type-id='6a671eb0' visibility='default' filepath='frameworks/base/libs/androidfw/include/androidfw/AssetManager2.h' line='365' column='1'/>
        </data-member>
        <data-member access='private' layout-offset-in-bits='2912'>
          <var-decl name='cached_bag_resid_stacks_' type-id='6e9b5502' visibility='default' filepath='frameworks/base/libs/androidfw/include/androidfw/AssetManager2.h' line='369' column='1'/>
        </data-member>
        <data-member access='private' layout-offset-in-bits='3072'>
          <var-decl name='resource_resolution_logging_enabled_' type-id='c894953d' visibility='default' filepath='frameworks/base/libs/androidfw/include/androidfw/AssetManager2.h' line='372' column='1'/>
        </data-member>
        <data-member access='private' layout-offset-in-bits='3104'>
          <var-decl name='last_resolution' type-id='809a5d55' visibility='default' filepath='frameworks/base/libs/androidfw/include/androidfw/AssetManager2.h' line='411' column='1'/>
        </data-member>
        <member-function access='public' constructor='yes'>
          <function-decl name='AssetManager2' filepath='frameworks/base/libs/androidfw/include/androidfw/AssetManager2.h' line='96' column='1' visibility='default' binding='global' size-in-bits='32'>
            <parameter type-id='3f984faf' is-artificial='yes'/>
            <return type-id='48b5725f'/>
          </function-decl>
        </member-function>
        <member-function access='private' constructor='yes'>
          <function-decl name='AssetManager2' filepath='frameworks/base/libs/androidfw/include/androidfw/AssetManager2.h' line='272' column='1' visibility='default' binding='global' size-in-bits='32'>
            <parameter type-id='3f984faf' is-artificial='yes'/>
            <parameter type-id='66e4333c'/>
            <return type-id='48b5725f'/>
          </function-decl>
        </member-function>
        <member-function access='public' constructor='yes'>
          <function-decl name='AssetManager2' filepath='frameworks/base/libs/androidfw/include/androidfw/AssetManager2.h' line='96' column='1' visibility='default' binding='global' size-in-bits='32'>
            <parameter type-id='3f984faf' is-artificial='yes'/>
            <return type-id='48b5725f'/>
          </function-decl>
        </member-function>
        <member-function access='private' constructor='yes'>
          <function-decl name='AssetManager2' filepath='frameworks/base/libs/androidfw/include/androidfw/AssetManager2.h' line='272' column='1' visibility='default' binding='global' size-in-bits='32'>
            <parameter type-id='3f984faf' is-artificial='yes'/>
            <parameter type-id='66e4333c'/>
            <return type-id='48b5725f'/>
          </function-decl>
        </member-function>
        <member-function access='public'>
          <function-decl name='GetConfiguration' mangled-name='_ZNK7android13AssetManager216GetConfigurationEv' filepath='frameworks/base/libs/androidfw/include/androidfw/AssetManager2.h' line='134' column='1' visibility='default' binding='global' size-in-bits='32'>
            <parameter type-id='6ae43988' is-artificial='yes'/>
            <return type-id='eb6da812'/>
          </function-decl>
        </member-function>
      </class-decl>
      <class-decl name='ByteBucketArray&lt;android::AssetManager2::FilteredConfigGroup&gt;' size-in-bits='704' visibility='default' filepath='frameworks/base/libs/androidfw/include/androidfw/ByteBucketArray.h' line='32' column='1' id='9337857f'>
        <data-member access='private' layout-offset-in-bits='0'>
          <var-decl name='buckets_' type-id='224e4514' visibility='default' filepath='frameworks/base/libs/androidfw/include/androidfw/ByteBucketArray.h' line='86' column='1'/>
        </data-member>
        <data-member access='private' layout-offset-in-bits='512'>
          <var-decl name='default_' type-id='238d5c19' visibility='default' filepath='frameworks/base/libs/androidfw/include/androidfw/ByteBucketArray.h' line='87' column='1'/>
        </data-member>
        <member-function access='public'>
          <function-decl name='ByteBucketArray' filepath='frameworks/base/libs/androidfw/include/androidfw/ByteBucketArray.h' line='34' column='1' visibility='default' binding='global' size-in-bits='32'>
            <parameter type-id='7ba678e7' is-artificial='yes'/>
            <return type-id='48b5725f'/>
          </function-decl>
        </member-function>
        <member-function access='public' destructor='yes'>
          <function-decl name='~ByteBucketArray' filepath='frameworks/base/libs/androidfw/include/androidfw/ByteBucketArray.h' line='36' column='1' visibility='default' binding='global' size-in-bits='32'>
            <parameter type-id='7ba678e7' is-artificial='yes'/>
            <return type-id='48b5725f'/>
          </function-decl>
